SF:/home/nathan/Projects/lens/src/adversarial/adversarial_orchestrator.rs
FN:201,_RNCNCNvMs_NtNtCscx2lCY9pHX3_9lens_core11adversarial24adversarial_orchestratorNtB8_23AdversarialOrchestrator22execute_parallel_audit00Bc_
FN:221,_RNCNCNvMs_NtNtCscx2lCY9pHX3_9lens_core11adversarial24adversarial_orchestratorNtB8_23AdversarialOrchestrator22execute_parallel_audit0s0_0Bc_
FN:231,_RNCNCNvMs_NtNtCscx2lCY9pHX3_9lens_core11adversarial24adversarial_orchestratorNtB8_23AdversarialOrchestrator22execute_parallel_audit0s1_0Bc_
FN:211,_RNCNCNvMs_NtNtCscx2lCY9pHX3_9lens_core11adversarial24adversarial_orchestratorNtB8_23AdversarialOrchestrator22execute_parallel_audit0s_0Bc_
FN:336,_RNCNvMs_NtNtCscx2lCY9pHX3_9lens_core11adversarial24adversarial_orchestratorNtB6_23AdversarialOrchestrator17aggregate_results0Ba_
FN:515,_RNCNvMs_NtNtCscx2lCY9pHX3_9lens_core11adversarial24adversarial_orchestratorNtB6_23AdversarialOrchestrator17log_audit_summary0Ba_
FN:84,_RNCNvMs_NtNtCscx2lCY9pHX3_9lens_core11adversarial24adversarial_orchestratorNtB6_23AdversarialOrchestrator18execute_full_audit0Ba_
FN:267,_RNCNvMs_NtNtCscx2lCY9pHX3_9lens_core11adversarial24adversarial_orchestratorNtB6_23AdversarialOrchestrator19execute_bloat_suite0Ba_
FN:258,_RNCNvMs_NtNtCscx2lCY9pHX3_9lens_core11adversarial24adversarial_orchestratorNtB6_23AdversarialOrchestrator19execute_clone_suite0Ba_
FN:276,_RNCNvMs_NtNtCscx2lCY9pHX3_9lens_core11adversarial24adversarial_orchestratorNtB6_23AdversarialOrchestrator19execute_noise_suite0Ba_
FN:544,_RNCNvMs_NtNtCscx2lCY9pHX3_9lens_core11adversarial24adversarial_orchestratorNtB6_23AdversarialOrchestrator22cleanup_test_artifacts0Ba_
FN:193,_RNCNvMs_NtNtCscx2lCY9pHX3_9lens_core11adversarial24adversarial_orchestratorNtB6_23AdversarialOrchestrator22execute_parallel_audit0Ba_
FN:285,_RNCNvMs_NtNtCscx2lCY9pHX3_9lens_core11adversarial24adversarial_orchestratorNtB6_23AdversarialOrchestrator22execute_stress_testing0Ba_
FN:114,_RNCNvMs_NtNtCscx2lCY9pHX3_9lens_core11adversarial24adversarial_orchestratorNtB6_23AdversarialOrchestrator24execute_sequential_audit0Ba_
FN:504,_RNCNvMs_NtNtCscx2lCY9pHX3_9lens_core11adversarial24adversarial_orchestratorNtB6_23AdversarialOrchestrator24setup_output_directories0Ba_
FN:330,_RNvMs_NtNtCscx2lCY9pHX3_9lens_core11adversarial24adversarial_orchestratorNtB4_23AdversarialOrchestrator17aggregate_results
FN:515,_RNvMs_NtNtCscx2lCY9pHX3_9lens_core11adversarial24adversarial_orchestratorNtB4_23AdversarialOrchestrator17log_audit_summary
FN:84,_RNvMs_NtNtCscx2lCY9pHX3_9lens_core11adversarial24adversarial_orchestratorNtB4_23AdversarialOrchestrator18execute_full_audit
FN:267,_RNvMs_NtNtCscx2lCY9pHX3_9lens_core11adversarial24adversarial_orchestratorNtB4_23AdversarialOrchestrator19execute_bloat_suite
FN:258,_RNvMs_NtNtCscx2lCY9pHX3_9lens_core11adversarial24adversarial_orchestratorNtB4_23AdversarialOrchestrator19execute_clone_suite
FN:276,_RNvMs_NtNtCscx2lCY9pHX3_9lens_core11adversarial24adversarial_orchestratorNtB4_23AdversarialOrchestrator19execute_noise_suite
FN:409,_RNvMs_NtNtCscx2lCY9pHX3_9lens_core11adversarial24adversarial_orchestratorNtB4_23AdversarialOrchestrator20calculate_sla_recall
FN:544,_RNvMs_NtNtCscx2lCY9pHX3_9lens_core11adversarial24adversarial_orchestratorNtB4_23AdversarialOrchestrator22cleanup_test_artifacts
FN:193,_RNvMs_NtNtCscx2lCY9pHX3_9lens_core11adversarial24adversarial_orchestratorNtB4_23AdversarialOrchestrator22execute_parallel_audit
FN:285,_RNvMs_NtNtCscx2lCY9pHX3_9lens_core11adversarial24adversarial_orchestratorNtB4_23AdversarialOrchestrator22execute_stress_testing
FN:403,_RNvMs_NtNtCscx2lCY9pHX3_9lens_core11adversarial24adversarial_orchestratorNtB4_23AdversarialOrchestrator23calculate_span_coverage
FN:481,_RNvMs_NtNtCscx2lCY9pHX3_9lens_core11adversarial24adversarial_orchestratorNtB4_23AdversarialOrchestrator23generate_stress_profile
FN:114,_RNvMs_NtNtCscx2lCY9pHX3_9lens_core11adversarial24adversarial_orchestratorNtB4_23AdversarialOrchestrator24execute_sequential_audit
FN:504,_RNvMs_NtNtCscx2lCY9pHX3_9lens_core11adversarial24adversarial_orchestratorNtB4_23AdversarialOrchestrator24setup_output_directories
FN:369,_RNvMs_NtNtCscx2lCY9pHX3_9lens_core11adversarial24adversarial_orchestratorNtB4_23AdversarialOrchestrator25calculate_overall_metrics
FN:424,_RNvMs_NtNtCscx2lCY9pHX3_9lens_core11adversarial24adversarial_orchestratorNtB4_23AdversarialOrchestrator28calculate_degradation_factor
FN:415,_RNvMs_NtNtCscx2lCY9pHX3_9lens_core11adversarial24adversarial_orchestratorNtB4_23AdversarialOrchestrator29calculate_latency_percentiles
FN:429,_RNvMs_NtNtCscx2lCY9pHX3_9lens_core11adversarial24adversarial_orchestratorNtB4_23AdversarialOrchestrator38calculate_preliminary_robustness_score
FN:439,_RNvMs_NtNtCscx2lCY9pHX3_9lens_core11adversarial24adversarial_orchestratorNtB4_23AdversarialOrchestrator18validate_all_gates
FN:307,_RNvMs_NtNtCscx2lCY9pHX3_9lens_core11adversarial24adversarial_orchestratorNtB4_23AdversarialOrchestrator19create_bloat_config
FN:296,_RNvMs_NtNtCscx2lCY9pHX3_9lens_core11adversarial24adversarial_orchestratorNtB4_23AdversarialOrchestrator19create_clone_config
FN:319,_RNvMs_NtNtCscx2lCY9pHX3_9lens_core11adversarial24adversarial_orchestratorNtB4_23AdversarialOrchestrator19create_noise_config
FN:76,_RNvMs_NtNtCscx2lCY9pHX3_9lens_core11adversarial24adversarial_orchestratorNtB4_23AdversarialOrchestrator3new
FN:54,_RNvXNtNtCscx2lCY9pHX3_9lens_core11adversarial24adversarial_orchestratorNtB2_17AdversarialConfigNtNtCs66KPHxksi63_4core7default7Default7default
FN:594,_RNvNtNtNtCscx2lCY9pHX3_9lens_core11adversarial24adversarial_orchestrator5testss_26test_gate_validation_logic
FN:579,_RNvNtNtNtCscx2lCY9pHX3_9lens_core11adversarial24adversarial_orchestrator5testss_26test_suite_config_creation
FN:559,_RNvNtNtNtCscx2lCY9pHX3_9lens_core11adversarial24adversarial_orchestrator5testss_32test_adversarial_config_creation
FN:571,_RNvNtNtNtCscx2lCY9pHX3_9lens_core11adversarial24adversarial_orchestrator5testss_32test_orchestrator_initialization
FNDA:0,_RNCNCNvMs_NtNtCscx2lCY9pHX3_9lens_core11adversarial24adversarial_orchestratorNtB8_23AdversarialOrchestrator22execute_parallel_audit00Bc_
FNDA:0,_RNCNCNvMs_NtNtCscx2lCY9pHX3_9lens_core11adversarial24adversarial_orchestratorNtB8_23AdversarialOrchestrator22execute_parallel_audit0s0_0Bc_
FNDA:0,_RNCNCNvMs_NtNtCscx2lCY9pHX3_9lens_core11adversarial24adversarial_orchestratorNtB8_23AdversarialOrchestrator22execute_parallel_audit0s1_0Bc_
FNDA:0,_RNCNCNvMs_NtNtCscx2lCY9pHX3_9lens_core11adversarial24adversarial_orchestratorNtB8_23AdversarialOrchestrator22execute_parallel_audit0s_0Bc_
FNDA:0,_RNCNvMs_NtNtCscx2lCY9pHX3_9lens_core11adversarial24adversarial_orchestratorNtB6_23AdversarialOrchestrator17aggregate_results0Ba_
FNDA:0,_RNCNvMs_NtNtCscx2lCY9pHX3_9lens_core11adversarial24adversarial_orchestratorNtB6_23AdversarialOrchestrator17log_audit_summary0Ba_
FNDA:0,_RNCNvMs_NtNtCscx2lCY9pHX3_9lens_core11adversarial24adversarial_orchestratorNtB6_23AdversarialOrchestrator18execute_full_audit0Ba_
FNDA:0,_RNCNvMs_NtNtCscx2lCY9pHX3_9lens_core11adversarial24adversarial_orchestratorNtB6_23AdversarialOrchestrator19execute_bloat_suite0Ba_
FNDA:0,_RNCNvMs_NtNtCscx2lCY9pHX3_9lens_core11adversarial24adversarial_orchestratorNtB6_23AdversarialOrchestrator19execute_clone_suite0Ba_
FNDA:0,_RNCNvMs_NtNtCscx2lCY9pHX3_9lens_core11adversarial24adversarial_orchestratorNtB6_23AdversarialOrchestrator19execute_noise_suite0Ba_
FNDA:0,_RNCNvMs_NtNtCscx2lCY9pHX3_9lens_core11adversarial24adversarial_orchestratorNtB6_23AdversarialOrchestrator22cleanup_test_artifacts0Ba_
FNDA:0,_RNCNvMs_NtNtCscx2lCY9pHX3_9lens_core11adversarial24adversarial_orchestratorNtB6_23AdversarialOrchestrator22execute_parallel_audit0Ba_
FNDA:0,_RNCNvMs_NtNtCscx2lCY9pHX3_9lens_core11adversarial24adversarial_orchestratorNtB6_23AdversarialOrchestrator22execute_stress_testing0Ba_
FNDA:0,_RNCNvMs_NtNtCscx2lCY9pHX3_9lens_core11adversarial24adversarial_orchestratorNtB6_23AdversarialOrchestrator24execute_sequential_audit0Ba_
FNDA:0,_RNCNvMs_NtNtCscx2lCY9pHX3_9lens_core11adversarial24adversarial_orchestratorNtB6_23AdversarialOrchestrator24setup_output_directories0Ba_
FNDA:0,_RNvMs_NtNtCscx2lCY9pHX3_9lens_core11adversarial24adversarial_orchestratorNtB4_23AdversarialOrchestrator17aggregate_results
FNDA:0,_RNvMs_NtNtCscx2lCY9pHX3_9lens_core11adversarial24adversarial_orchestratorNtB4_23AdversarialOrchestrator17log_audit_summary
FNDA:0,_RNvMs_NtNtCscx2lCY9pHX3_9lens_core11adversarial24adversarial_orchestratorNtB4_23AdversarialOrchestrator18execute_full_audit
FNDA:0,_RNvMs_NtNtCscx2lCY9pHX3_9lens_core11adversarial24adversarial_orchestratorNtB4_23AdversarialOrchestrator19execute_bloat_suite
FNDA:0,_RNvMs_NtNtCscx2lCY9pHX3_9lens_core11adversarial24adversarial_orchestratorNtB4_23AdversarialOrchestrator19execute_clone_suite
FNDA:0,_RNvMs_NtNtCscx2lCY9pHX3_9lens_core11adversarial24adversarial_orchestratorNtB4_23AdversarialOrchestrator19execute_noise_suite
FNDA:0,_RNvMs_NtNtCscx2lCY9pHX3_9lens_core11adversarial24adversarial_orchestratorNtB4_23AdversarialOrchestrator20calculate_sla_recall
FNDA:0,_RNvMs_NtNtCscx2lCY9pHX3_9lens_core11adversarial24adversarial_orchestratorNtB4_23AdversarialOrchestrator22cleanup_test_artifacts
FNDA:0,_RNvMs_NtNtCscx2lCY9pHX3_9lens_core11adversarial24adversarial_orchestratorNtB4_23AdversarialOrchestrator22execute_parallel_audit
FNDA:0,_RNvMs_NtNtCscx2lCY9pHX3_9lens_core11adversarial24adversarial_orchestratorNtB4_23AdversarialOrchestrator22execute_stress_testing
FNDA:0,_RNvMs_NtNtCscx2lCY9pHX3_9lens_core11adversarial24adversarial_orchestratorNtB4_23AdversarialOrchestrator23calculate_span_coverage
FNDA:0,_RNvMs_NtNtCscx2lCY9pHX3_9lens_core11adversarial24adversarial_orchestratorNtB4_23AdversarialOrchestrator23generate_stress_profile
FNDA:0,_RNvMs_NtNtCscx2lCY9pHX3_9lens_core11adversarial24adversarial_orchestratorNtB4_23AdversarialOrchestrator24execute_sequential_audit
FNDA:0,_RNvMs_NtNtCscx2lCY9pHX3_9lens_core11adversarial24adversarial_orchestratorNtB4_23AdversarialOrchestrator24setup_output_directories
FNDA:0,_RNvMs_NtNtCscx2lCY9pHX3_9lens_core11adversarial24adversarial_orchestratorNtB4_23AdversarialOrchestrator25calculate_overall_metrics
FNDA:0,_RNvMs_NtNtCscx2lCY9pHX3_9lens_core11adversarial24adversarial_orchestratorNtB4_23AdversarialOrchestrator28calculate_degradation_factor
FNDA:0,_RNvMs_NtNtCscx2lCY9pHX3_9lens_core11adversarial24adversarial_orchestratorNtB4_23AdversarialOrchestrator29calculate_latency_percentiles
FNDA:0,_RNvMs_NtNtCscx2lCY9pHX3_9lens_core11adversarial24adversarial_orchestratorNtB4_23AdversarialOrchestrator38calculate_preliminary_robustness_score
FNDA:2,_RNvMs_NtNtCscx2lCY9pHX3_9lens_core11adversarial24adversarial_orchestratorNtB4_23AdversarialOrchestrator18validate_all_gates
FNDA:1,_RNvMs_NtNtCscx2lCY9pHX3_9lens_core11adversarial24adversarial_orchestratorNtB4_23AdversarialOrchestrator19create_bloat_config
FNDA:1,_RNvMs_NtNtCscx2lCY9pHX3_9lens_core11adversarial24adversarial_orchestratorNtB4_23AdversarialOrchestrator19create_clone_config
FNDA:1,_RNvMs_NtNtCscx2lCY9pHX3_9lens_core11adversarial24adversarial_orchestratorNtB4_23AdversarialOrchestrator19create_noise_config
FNDA:3,_RNvMs_NtNtCscx2lCY9pHX3_9lens_core11adversarial24adversarial_orchestratorNtB4_23AdversarialOrchestrator3new
FNDA:4,_RNvXNtNtCscx2lCY9pHX3_9lens_core11adversarial24adversarial_orchestratorNtB2_17AdversarialConfigNtNtCs66KPHxksi63_4core7default7Default7default
FNDA:1,_RNvNtNtNtCscx2lCY9pHX3_9lens_core11adversarial24adversarial_orchestrator5testss_26test_gate_validation_logic
FNDA:1,_RNvNtNtNtCscx2lCY9pHX3_9lens_core11adversarial24adversarial_orchestrator5testss_26test_suite_config_creation
FNDA:1,_RNvNtNtNtCscx2lCY9pHX3_9lens_core11adversarial24adversarial_orchestrator5testss_32test_adversarial_config_creation
FNDA:1,_RNvNtNtNtCscx2lCY9pHX3_9lens_core11adversarial24adversarial_orchestrator5testss_32test_orchestrator_initialization
FNF:43
FNH:10
DA:54,4
DA:55,4
DA:56,4
DA:57,4
DA:58,4
DA:59,4
DA:60,4
DA:61,4
DA:62,4
DA:63,4
DA:64,4
DA:65,4
DA:66,4
DA:67,4
DA:76,3
DA:77,3
DA:78,3
DA:79,3
DA:80,3
DA:81,3
DA:84,0
DA:85,0
DA:86,0
DA:89,0
DA:91,0
DA:92,0
DA:94,0
DA:98,0
DA:101,0
DA:104,0
DA:105,0
DA:106,0
DA:108,0
DA:109,0
DA:111,0
DA:112,0
DA:114,0
DA:115,0
DA:118,0
DA:119,0
DA:120,0
DA:121,0
DA:122,0
DA:123,0
DA:125,0
DA:126,0
DA:127,0
DA:131,0
DA:132,0
DA:136,0
DA:137,0
DA:138,0
DA:139,0
DA:140,0
DA:141,0
DA:143,0
DA:144,0
DA:145,0
DA:149,0
DA:150,0
DA:154,0
DA:155,0
DA:156,0
DA:157,0
DA:158,0
DA:159,0
DA:161,0
DA:162,0
DA:163,0
DA:167,0
DA:168,0
DA:172,0
DA:173,0
DA:174,0
DA:175,0
DA:176,0
DA:177,0
DA:179,0
DA:180,0
DA:181,0
DA:185,0
DA:186,0
DA:190,0
DA:191,0
DA:193,0
DA:194,0
DA:196,0
DA:199,0
DA:200,0
DA:201,0
DA:202,0
DA:203,0
DA:204,0
DA:205,0
DA:206,0
DA:209,0
DA:210,0
DA:211,0
DA:212,0
DA:213,0
DA:214,0
DA:215,0
DA:216,0
DA:219,0
DA:220,0
DA:221,0
DA:222,0
DA:223,0
DA:224,0
DA:225,0
DA:226,0
DA:229,0
DA:231,0
DA:232,0
DA:233,0
DA:234,0
DA:237,0
DA:238,0
DA:239,0
DA:240,0
DA:242,0
DA:243,0
DA:244,0
DA:245,0
DA:246,0
DA:247,0
DA:248,0
DA:249,0
DA:250,0
DA:251,0
DA:255,0
DA:256,0
DA:258,0
DA:259,0
DA:260,0
DA:262,0
DA:263,0
DA:264,0
DA:265,0
DA:267,0
DA:268,0
DA:269,0
DA:271,0
DA:272,0
DA:273,0
DA:274,0
DA:276,0
DA:277,0
DA:278,0
DA:280,0
DA:281,0
DA:282,0
DA:283,0
DA:285,0
DA:286,0
DA:287,0
DA:288,0
DA:291,0
DA:292,0
DA:293,0
DA:294,0
DA:296,1
DA:297,1
DA:298,1
DA:299,1
DA:300,1
DA:301,1
DA:302,1
DA:303,1
DA:304,1
DA:305,1
DA:307,1
DA:308,1
DA:309,1
DA:310,1
DA:311,1
DA:312,1
DA:313,1
DA:314,1
DA:315,1
DA:316,1
DA:317,1
DA:319,1
DA:320,1
DA:321,1
DA:322,1
DA:323,1
DA:324,1
DA:325,1
DA:326,1
DA:327,1
DA:328,1
DA:330,0
DA:331,0
DA:332,0
DA:333,0
DA:334,0
DA:335,0
DA:336,0
DA:337,0
DA:340,0
DA:341,0
DA:342,0
DA:343,0
DA:344,0
DA:348,0
DA:351,0
DA:353,0
DA:354,0
DA:355,0
DA:356,0
DA:357,0
DA:358,0
DA:359,0
DA:360,0
DA:363,0
DA:364,0
DA:366,0
DA:367,0
DA:369,0
DA:370,0
DA:371,0
DA:372,0
DA:373,0
DA:374,0
DA:375,0
DA:377,0
DA:380,0
DA:383,0
DA:386,0
DA:389,0
DA:390,0
DA:393,0
DA:394,0
DA:395,0
DA:396,0
DA:397,0
DA:398,0
DA:399,0
DA:400,0
DA:401,0
DA:403,0
DA:406,0
DA:407,0
DA:409,0
DA:412,0
DA:413,0
DA:415,0
DA:417,0
DA:418,0
DA:419,0
DA:421,0
DA:422,0
DA:424,0
DA:426,0
DA:427,0
DA:429,0
DA:430,0
DA:431,0
DA:432,0
DA:433,0
DA:436,0
DA:437,0
DA:439,2
DA:440,2
DA:443,2
DA:444,2
DA:445,1
DA:446,1
DA:447,1
DA:448,1
DA:449,1
DA:452,2
DA:453,2
DA:454,1
DA:455,1
DA:456,1
DA:457,1
DA:458,1
DA:461,2
DA:462,2
DA:463,2
DA:464,1
DA:465,1
DA:466,1
DA:467,1
DA:468,1
DA:470,2
DA:472,2
DA:473,2
DA:474,2
DA:475,2
DA:476,2
DA:477,2
DA:478,2
DA:479,2
DA:481,0
DA:483,0
DA:484,0
DA:486,0
DA:487,0
DA:488,0
DA:489,0
DA:491,0
DA:494,0
DA:495,0
DA:496,0
DA:497,0
DA:498,0
DA:499,0
DA:500,0
DA:501,0
DA:502,0
DA:504,0
DA:505,0
DA:506,0
DA:507,0
DA:508,0
DA:509,0
DA:511,0
DA:512,0
DA:513,0
DA:515,0
DA:516,0
DA:518,0
DA:519,0
DA:520,0
DA:521,0
DA:522,0
DA:523,0
DA:524,0
DA:526,0
DA:527,0
DA:529,0
DA:530,0
DA:531,0
DA:536,0
DA:537,0
DA:538,0
DA:539,0
DA:541,0
DA:542,0
DA:544,0
DA:545,0
DA:546,0
DA:547,0
DA:548,0
DA:549,0
DA:550,0
DA:559,1
DA:560,1
DA:562,1
DA:563,1
DA:564,1
DA:565,1
DA:566,1
DA:567,1
DA:568,1
DA:571,1
DA:572,1
DA:573,1
DA:575,1
DA:576,1
DA:579,1
DA:580,1
DA:581,1
DA:583,1
DA:584,1
DA:586,1
DA:587,1
DA:589,1
DA:590,1
DA:591,1
DA:594,1
DA:595,1
DA:596,1
DA:599,1
DA:600,1
DA:601,1
DA:602,1
DA:603,1
DA:604,1
DA:605,1
DA:606,1
DA:608,1
DA:609,1
DA:610,1
DA:613,1
DA:614,1
DA:615,1
DA:616,1
DA:617,1
DA:618,1
DA:619,1
DA:620,1
DA:622,1
DA:623,1
DA:624,1
DA:625,1
BRF:0
BRH:0
LF:415
LH:134
end_of_record
SF:/home/nathan/Projects/lens/src/adversarial/bloat_suite.rs
FN:617,_RNCNvMs0_NtNtCscx2lCY9pHX3_9lens_core11adversarial11bloat_suiteNtB7_10BloatSuite17copy_signal_files0Bb_
FN:692,_RNCNvMs0_NtNtCscx2lCY9pHX3_9lens_core11adversarial11bloat_suiteNtB7_10BloatSuite17simulate_indexing0Bb_
FN:666,_RNCNvMs0_NtNtCscx2lCY9pHX3_9lens_core11adversarial11bloat_suiteNtB7_10BloatSuite18count_signal_files0Bb_
FN:225,_RNCNvMs0_NtNtCscx2lCY9pHX3_9lens_core11adversarial11bloat_suiteNtB7_10BloatSuite18establish_baseline0Bb_
FN:634,_RNCNvMs0_NtNtCscx2lCY9pHX3_9lens_core11adversarial11bloat_suiteNtB7_10BloatSuite19create_ratio_corpus0Bb_
FN:257,_RNCNvMs0_NtNtCscx2lCY9pHX3_9lens_core11adversarial11bloat_suiteNtB7_10BloatSuite19test_bloat_scenario0Bb_
FN:339,_RNCNvMs0_NtNtCscx2lCY9pHX3_9lens_core11adversarial11bloat_suiteNtB7_10BloatSuite21create_bloated_corpus0Bb_
FN:729,_RNCNvMs0_NtNtCscx2lCY9pHX3_9lens_core11adversarial11bloat_suiteNtB7_10BloatSuite21measure_indexing_time0Bb_
FN:798,_RNCNvMs0_NtNtCscx2lCY9pHX3_9lens_core11adversarial11bloat_suiteNtB7_10BloatSuite22cleanup_test_artifacts0Bb_
FN:704,_RNCNvMs0_NtNtCscx2lCY9pHX3_9lens_core11adversarial11bloat_suiteNtB7_10BloatSuite23measure_memory_baseline0Bb_
FN:713,_RNCNvMs0_NtNtCscx2lCY9pHX3_9lens_core11adversarial11bloat_suiteNtB7_10BloatSuite23measure_memory_overhead0Bb_
FN:679,_RNCNvMs0_NtNtCscx2lCY9pHX3_9lens_core11adversarial11bloat_suiteNtB7_10BloatSuite24calculate_directory_size0Bb_
FN:708,_RNCNvMs0_NtNtCscx2lCY9pHX3_9lens_core11adversarial11bloat_suiteNtB7_10BloatSuite24measure_search_precision0Bb_
FN:361,_RNCNvMs0_NtNtCscx2lCY9pHX3_9lens_core11adversarial11bloat_suiteNtB7_10BloatSuite25create_node_modules_bloat0Bb_
FN:532,_RNCNvMs0_NtNtCscx2lCY9pHX3_9lens_core11adversarial11bloat_suiteNtB7_10BloatSuite26create_binary_assets_bloat0Bb_
FN:698,_RNCNvMs0_NtNtCscx2lCY9pHX3_9lens_core11adversarial11bloat_suiteNtB7_10BloatSuite26measure_search_performance0Bb_
FN:308,_RNCNvMs0_NtNtCscx2lCY9pHX3_9lens_core11adversarial11bloat_suiteNtB7_10BloatSuite26test_noise_to_signal_ratio0Bb_
FN:493,_RNCNvMs0_NtNtCscx2lCY9pHX3_9lens_core11adversarial11bloat_suiteNtB7_10BloatSuite27create_generated_code_bloat0Bb_
FN:725,_RNCNvMs0_NtNtCscx2lCY9pHX3_9lens_core11adversarial11bloat_suiteNtB7_10BloatSuite27measure_false_positive_rate0Bb_
FN:759,_RNCNvMs0_NtNtCscx2lCY9pHX3_9lens_core11adversarial11bloat_suiteNtB7_10BloatSuite28calculate_performance_impact0Bb_
FN:767,_RNCNvMs0_NtNtCscx2lCY9pHX3_9lens_core11adversarial11bloat_suiteNtB7_10BloatSuite28calculate_performance_impacts0_0Bb_
FN:446,_RNCNvMs0_NtNtCscx2lCY9pHX3_9lens_core11adversarial11bloat_suiteNtB7_10BloatSuite28create_build_artifacts_bloat0Bb_
FN:407,_RNCNvMs0_NtNtCscx2lCY9pHX3_9lens_core11adversarial11bloat_suiteNtB7_10BloatSuite29create_vendor_libraries_bloat0Bb_
FN:721,_RNCNvMs0_NtNtCscx2lCY9pHX3_9lens_core11adversarial11bloat_suiteNtB7_10BloatSuite30calculate_relevant_results_pct0Bb_
FN:717,_RNCNvMs0_NtNtCscx2lCY9pHX3_9lens_core11adversarial11bloat_suiteNtB7_10BloatSuite33measure_search_quality_with_noise0Bb_
FN:163,_RNCNvMs0_NtNtCscx2lCY9pHX3_9lens_core11adversarial11bloat_suiteNtB7_10BloatSuite7execute0Bb_
FN:617,_RNvMs0_NtNtCscx2lCY9pHX3_9lens_core11adversarial11bloat_suiteNtB5_10BloatSuite17copy_signal_files
FN:692,_RNvMs0_NtNtCscx2lCY9pHX3_9lens_core11adversarial11bloat_suiteNtB5_10BloatSuite17simulate_indexing
FN:666,_RNvMs0_NtNtCscx2lCY9pHX3_9lens_core11adversarial11bloat_suiteNtB5_10BloatSuite18count_signal_files
FN:225,_RNvMs0_NtNtCscx2lCY9pHX3_9lens_core11adversarial11bloat_suiteNtB5_10BloatSuite18establish_baseline
FN:634,_RNvMs0_NtNtCscx2lCY9pHX3_9lens_core11adversarial11bloat_suiteNtB5_10BloatSuite19create_ratio_corpus
FN:257,_RNvMs0_NtNtCscx2lCY9pHX3_9lens_core11adversarial11bloat_suiteNtB5_10BloatSuite19test_bloat_scenario
FN:339,_RNvMs0_NtNtCscx2lCY9pHX3_9lens_core11adversarial11bloat_suiteNtB5_10BloatSuite21create_bloated_corpus
FN:729,_RNvMs0_NtNtCscx2lCY9pHX3_9lens_core11adversarial11bloat_suiteNtB5_10BloatSuite21measure_indexing_time
FN:798,_RNvMs0_NtNtCscx2lCY9pHX3_9lens_core11adversarial11bloat_suiteNtB5_10BloatSuite22cleanup_test_artifacts
FN:704,_RNvMs0_NtNtCscx2lCY9pHX3_9lens_core11adversarial11bloat_suiteNtB5_10BloatSuite23measure_memory_baseline
FN:713,_RNvMs0_NtNtCscx2lCY9pHX3_9lens_core11adversarial11bloat_suiteNtB5_10BloatSuite23measure_memory_overhead
FN:679,_RNvMs0_NtNtCscx2lCY9pHX3_9lens_core11adversarial11bloat_suiteNtB5_10BloatSuite24calculate_directory_size
FN:708,_RNvMs0_NtNtCscx2lCY9pHX3_9lens_core11adversarial11bloat_suiteNtB5_10BloatSuite24measure_search_precision
FN:361,_RNvMs0_NtNtCscx2lCY9pHX3_9lens_core11adversarial11bloat_suiteNtB5_10BloatSuite25create_node_modules_bloat
FN:532,_RNvMs0_NtNtCscx2lCY9pHX3_9lens_core11adversarial11bloat_suiteNtB5_10BloatSuite26create_binary_assets_bloat
FN:698,_RNvMs0_NtNtCscx2lCY9pHX3_9lens_core11adversarial11bloat_suiteNtB5_10BloatSuite26measure_search_performance
FN:308,_RNvMs0_NtNtCscx2lCY9pHX3_9lens_core11adversarial11bloat_suiteNtB5_10BloatSuite26test_noise_to_signal_ratio
FN:493,_RNvMs0_NtNtCscx2lCY9pHX3_9lens_core11adversarial11bloat_suiteNtB5_10BloatSuite27create_generated_code_bloat
FN:725,_RNvMs0_NtNtCscx2lCY9pHX3_9lens_core11adversarial11bloat_suiteNtB5_10BloatSuite27measure_false_positive_rate
FN:755,_RNvMs0_NtNtCscx2lCY9pHX3_9lens_core11adversarial11bloat_suiteNtB5_10BloatSuite28calculate_performance_impact
FN:446,_RNvMs0_NtNtCscx2lCY9pHX3_9lens_core11adversarial11bloat_suiteNtB5_10BloatSuite28create_build_artifacts_bloat
FN:778,_RNvMs0_NtNtCscx2lCY9pHX3_9lens_core11adversarial11bloat_suiteNtB5_10BloatSuite28measure_resource_consumption
FN:407,_RNvMs0_NtNtCscx2lCY9pHX3_9lens_core11adversarial11bloat_suiteNtB5_10BloatSuite29create_vendor_libraries_bloat
FN:721,_RNvMs0_NtNtCscx2lCY9pHX3_9lens_core11adversarial11bloat_suiteNtB5_10BloatSuite30calculate_relevant_results_pct
FN:733,_RNvMs0_NtNtCscx2lCY9pHX3_9lens_core11adversarial11bloat_suiteNtB5_10BloatSuite31analyze_filtering_effectiveness
FN:717,_RNvMs0_NtNtCscx2lCY9pHX3_9lens_core11adversarial11bloat_suiteNtB5_10BloatSuite33measure_search_quality_with_noise
FN:163,_RNvMs0_NtNtCscx2lCY9pHX3_9lens_core11adversarial11bloat_suiteNtB5_10BloatSuite7execute
FN:839,_RNCNvNtNtNtCscx2lCY9pHX3_9lens_core11adversarial11bloat_suite5testss_28test_bloat_config_validation0B9_
FN:656,_RNvMs0_NtNtCscx2lCY9pHX3_9lens_core11adversarial11bloat_suiteNtB5_10BloatSuite17get_scenario_name
FN:590,_RNvMs0_NtNtCscx2lCY9pHX3_9lens_core11adversarial11bloat_suiteNtB5_10BloatSuite24generate_graphql_content
FN:573,_RNvMs0_NtNtCscx2lCY9pHX3_9lens_core11adversarial11bloat_suiteNtB5_10BloatSuite25generate_protobuf_content
FN:155,_RNvMs0_NtNtCscx2lCY9pHX3_9lens_core11adversarial11bloat_suiteNtB5_10BloatSuite3new
FN:42,_RNvXNtNtCscx2lCY9pHX3_9lens_core11adversarial11bloat_suiteNtB2_15BloatTestConfigNtNtCs66KPHxksi63_4core7default7Default7default
FN:83,_RNvXs_NtNtCscx2lCY9pHX3_9lens_core11adversarial11bloat_suiteNtB4_11BloatResultNtNtCs66KPHxksi63_4core7default7Default7default
FN:812,_RNvNtNtNtCscx2lCY9pHX3_9lens_core11adversarial11bloat_suite5testss_26test_bloat_scenario_naming
FN:839,_RNvNtNtNtCscx2lCY9pHX3_9lens_core11adversarial11bloat_suite5testss_28test_bloat_config_validation
FN:826,_RNvNtNtNtCscx2lCY9pHX3_9lens_core11adversarial11bloat_suite5testss_30test_generated_content_quality
FNDA:0,_RNCNvMs0_NtNtCscx2lCY9pHX3_9lens_core11adversarial11bloat_suiteNtB7_10BloatSuite17copy_signal_files0Bb_
FNDA:0,_RNCNvMs0_NtNtCscx2lCY9pHX3_9lens_core11adversarial11bloat_suiteNtB7_10BloatSuite17simulate_indexing0Bb_
FNDA:0,_RNCNvMs0_NtNtCscx2lCY9pHX3_9lens_core11adversarial11bloat_suiteNtB7_10BloatSuite18count_signal_files0Bb_
FNDA:0,_RNCNvMs0_NtNtCscx2lCY9pHX3_9lens_core11adversarial11bloat_suiteNtB7_10BloatSuite18establish_baseline0Bb_
FNDA:0,_RNCNvMs0_NtNtCscx2lCY9pHX3_9lens_core11adversarial11bloat_suiteNtB7_10BloatSuite19create_ratio_corpus0Bb_
FNDA:0,_RNCNvMs0_NtNtCscx2lCY9pHX3_9lens_core11adversarial11bloat_suiteNtB7_10BloatSuite19test_bloat_scenario0Bb_
FNDA:0,_RNCNvMs0_NtNtCscx2lCY9pHX3_9lens_core11adversarial11bloat_suiteNtB7_10BloatSuite21create_bloated_corpus0Bb_
FNDA:0,_RNCNvMs0_NtNtCscx2lCY9pHX3_9lens_core11adversarial11bloat_suiteNtB7_10BloatSuite21measure_indexing_time0Bb_
FNDA:0,_RNCNvMs0_NtNtCscx2lCY9pHX3_9lens_core11adversarial11bloat_suiteNtB7_10BloatSuite22cleanup_test_artifacts0Bb_
FNDA:0,_RNCNvMs0_NtNtCscx2lCY9pHX3_9lens_core11adversarial11bloat_suiteNtB7_10BloatSuite23measure_memory_baseline0Bb_
FNDA:0,_RNCNvMs0_NtNtCscx2lCY9pHX3_9lens_core11adversarial11bloat_suiteNtB7_10BloatSuite23measure_memory_overhead0Bb_
FNDA:0,_RNCNvMs0_NtNtCscx2lCY9pHX3_9lens_core11adversarial11bloat_suiteNtB7_10BloatSuite24calculate_directory_size0Bb_
FNDA:0,_RNCNvMs0_NtNtCscx2lCY9pHX3_9lens_core11adversarial11bloat_suiteNtB7_10BloatSuite24measure_search_precision0Bb_
FNDA:0,_RNCNvMs0_NtNtCscx2lCY9pHX3_9lens_core11adversarial11bloat_suiteNtB7_10BloatSuite25create_node_modules_bloat0Bb_
FNDA:0,_RNCNvMs0_NtNtCscx2lCY9pHX3_9lens_core11adversarial11bloat_suiteNtB7_10BloatSuite26create_binary_assets_bloat0Bb_
FNDA:0,_RNCNvMs0_NtNtCscx2lCY9pHX3_9lens_core11adversarial11bloat_suiteNtB7_10BloatSuite26measure_search_performance0Bb_
FNDA:0,_RNCNvMs0_NtNtCscx2lCY9pHX3_9lens_core11adversarial11bloat_suiteNtB7_10BloatSuite26test_noise_to_signal_ratio0Bb_
FNDA:0,_RNCNvMs0_NtNtCscx2lCY9pHX3_9lens_core11adversarial11bloat_suiteNtB7_10BloatSuite27create_generated_code_bloat0Bb_
FNDA:0,_RNCNvMs0_NtNtCscx2lCY9pHX3_9lens_core11adversarial11bloat_suiteNtB7_10BloatSuite27measure_false_positive_rate0Bb_
FNDA:0,_RNCNvMs0_NtNtCscx2lCY9pHX3_9lens_core11adversarial11bloat_suiteNtB7_10BloatSuite28calculate_performance_impact0Bb_
FNDA:0,_RNCNvMs0_NtNtCscx2lCY9pHX3_9lens_core11adversarial11bloat_suiteNtB7_10BloatSuite28calculate_performance_impacts0_0Bb_
FNDA:0,_RNCNvMs0_NtNtCscx2lCY9pHX3_9lens_core11adversarial11bloat_suiteNtB7_10BloatSuite28create_build_artifacts_bloat0Bb_
FNDA:0,_RNCNvMs0_NtNtCscx2lCY9pHX3_9lens_core11adversarial11bloat_suiteNtB7_10BloatSuite29create_vendor_libraries_bloat0Bb_
FNDA:0,_RNCNvMs0_NtNtCscx2lCY9pHX3_9lens_core11adversarial11bloat_suiteNtB7_10BloatSuite30calculate_relevant_results_pct0Bb_
FNDA:0,_RNCNvMs0_NtNtCscx2lCY9pHX3_9lens_core11adversarial11bloat_suiteNtB7_10BloatSuite33measure_search_quality_with_noise0Bb_
FNDA:0,_RNCNvMs0_NtNtCscx2lCY9pHX3_9lens_core11adversarial11bloat_suiteNtB7_10BloatSuite7execute0Bb_
FNDA:0,_RNvMs0_NtNtCscx2lCY9pHX3_9lens_core11adversarial11bloat_suiteNtB5_10BloatSuite17copy_signal_files
FNDA:0,_RNvMs0_NtNtCscx2lCY9pHX3_9lens_core11adversarial11bloat_suiteNtB5_10BloatSuite17simulate_indexing
FNDA:0,_RNvMs0_NtNtCscx2lCY9pHX3_9lens_core11adversarial11bloat_suiteNtB5_10BloatSuite18count_signal_files
FNDA:0,_RNvMs0_NtNtCscx2lCY9pHX3_9lens_core11adversarial11bloat_suiteNtB5_10BloatSuite18establish_baseline
FNDA:0,_RNvMs0_NtNtCscx2lCY9pHX3_9lens_core11adversarial11bloat_suiteNtB5_10BloatSuite19create_ratio_corpus
FNDA:0,_RNvMs0_NtNtCscx2lCY9pHX3_9lens_core11adversarial11bloat_suiteNtB5_10BloatSuite19test_bloat_scenario
FNDA:0,_RNvMs0_NtNtCscx2lCY9pHX3_9lens_core11adversarial11bloat_suiteNtB5_10BloatSuite21create_bloated_corpus
FNDA:0,_RNvMs0_NtNtCscx2lCY9pHX3_9lens_core11adversarial11bloat_suiteNtB5_10BloatSuite21measure_indexing_time
FNDA:0,_RNvMs0_NtNtCscx2lCY9pHX3_9lens_core11adversarial11bloat_suiteNtB5_10BloatSuite22cleanup_test_artifacts
FNDA:0,_RNvMs0_NtNtCscx2lCY9pHX3_9lens_core11adversarial11bloat_suiteNtB5_10BloatSuite23measure_memory_baseline
FNDA:0,_RNvMs0_NtNtCscx2lCY9pHX3_9lens_core11adversarial11bloat_suiteNtB5_10BloatSuite23measure_memory_overhead
FNDA:0,_RNvMs0_NtNtCscx2lCY9pHX3_9lens_core11adversarial11bloat_suiteNtB5_10BloatSuite24calculate_directory_size
FNDA:0,_RNvMs0_NtNtCscx2lCY9pHX3_9lens_core11adversarial11bloat_suiteNtB5_10BloatSuite24measure_search_precision
FNDA:0,_RNvMs0_NtNtCscx2lCY9pHX3_9lens_core11adversarial11bloat_suiteNtB5_10BloatSuite25create_node_modules_bloat
FNDA:0,_RNvMs0_NtNtCscx2lCY9pHX3_9lens_core11adversarial11bloat_suiteNtB5_10BloatSuite26create_binary_assets_bloat
FNDA:0,_RNvMs0_NtNtCscx2lCY9pHX3_9lens_core11adversarial11bloat_suiteNtB5_10BloatSuite26measure_search_performance
FNDA:0,_RNvMs0_NtNtCscx2lCY9pHX3_9lens_core11adversarial11bloat_suiteNtB5_10BloatSuite26test_noise_to_signal_ratio
FNDA:0,_RNvMs0_NtNtCscx2lCY9pHX3_9lens_core11adversarial11bloat_suiteNtB5_10BloatSuite27create_generated_code_bloat
FNDA:0,_RNvMs0_NtNtCscx2lCY9pHX3_9lens_core11adversarial11bloat_suiteNtB5_10BloatSuite27measure_false_positive_rate
FNDA:0,_RNvMs0_NtNtCscx2lCY9pHX3_9lens_core11adversarial11bloat_suiteNtB5_10BloatSuite28calculate_performance_impact
FNDA:0,_RNvMs0_NtNtCscx2lCY9pHX3_9lens_core11adversarial11bloat_suiteNtB5_10BloatSuite28create_build_artifacts_bloat
FNDA:0,_RNvMs0_NtNtCscx2lCY9pHX3_9lens_core11adversarial11bloat_suiteNtB5_10BloatSuite28measure_resource_consumption
FNDA:0,_RNvMs0_NtNtCscx2lCY9pHX3_9lens_core11adversarial11bloat_suiteNtB5_10BloatSuite29create_vendor_libraries_bloat
FNDA:0,_RNvMs0_NtNtCscx2lCY9pHX3_9lens_core11adversarial11bloat_suiteNtB5_10BloatSuite30calculate_relevant_results_pct
FNDA:0,_RNvMs0_NtNtCscx2lCY9pHX3_9lens_core11adversarial11bloat_suiteNtB5_10BloatSuite31analyze_filtering_effectiveness
FNDA:0,_RNvMs0_NtNtCscx2lCY9pHX3_9lens_core11adversarial11bloat_suiteNtB5_10BloatSuite33measure_search_quality_with_noise
FNDA:0,_RNvMs0_NtNtCscx2lCY9pHX3_9lens_core11adversarial11bloat_suiteNtB5_10BloatSuite7execute
FNDA:1,_RNCNvNtNtNtCscx2lCY9pHX3_9lens_core11adversarial11bloat_suite5testss_28test_bloat_config_validation0B9_
FNDA:2,_RNvMs0_NtNtCscx2lCY9pHX3_9lens_core11adversarial11bloat_suiteNtB5_10BloatSuite17get_scenario_name
FNDA:1,_RNvMs0_NtNtCscx2lCY9pHX3_9lens_core11adversarial11bloat_suiteNtB5_10BloatSuite24generate_graphql_content
FNDA:1,_RNvMs0_NtNtCscx2lCY9pHX3_9lens_core11adversarial11bloat_suiteNtB5_10BloatSuite25generate_protobuf_content
FNDA:2,_RNvMs0_NtNtCscx2lCY9pHX3_9lens_core11adversarial11bloat_suiteNtB5_10BloatSuite3new
FNDA:4,_RNvXNtNtCscx2lCY9pHX3_9lens_core11adversarial11bloat_suiteNtB2_15BloatTestConfigNtNtCs66KPHxksi63_4core7default7Default7default
FNDA:3,_RNvXs_NtNtCscx2lCY9pHX3_9lens_core11adversarial11bloat_suiteNtB4_11BloatResultNtNtCs66KPHxksi63_4core7default7Default7default
FNDA:1,_RNvNtNtNtCscx2lCY9pHX3_9lens_core11adversarial11bloat_suite5testss_26test_bloat_scenario_naming
FNDA:1,_RNvNtNtNtCscx2lCY9pHX3_9lens_core11adversarial11bloat_suite5testss_28test_bloat_config_validation
FNDA:1,_RNvNtNtNtCscx2lCY9pHX3_9lens_core11adversarial11bloat_suite5testss_30test_generated_content_quality
FNF:63
FNH:10
DA:42,4
DA:43,4
DA:44,4
DA:45,4
DA:46,4
DA:47,4
DA:48,4
DA:49,4
DA:50,4
DA:51,4
DA:52,4
DA:53,4
DA:54,4
DA:55,4
DA:56,4
DA:57,4
DA:58,4
DA:59,4
DA:60,4
DA:61,4
DA:62,4
DA:63,4
DA:64,4
DA:65,4
DA:66,4
DA:67,4
DA:68,4
DA:69,4
DA:70,4
DA:83,3
DA:84,3
DA:85,3
DA:86,3
DA:87,3
DA:88,3
DA:89,3
DA:90,3
DA:91,3
DA:155,2
DA:156,2
DA:157,2
DA:158,2
DA:159,2
DA:160,2
DA:163,0
DA:164,0
DA:167,0
DA:169,0
DA:170,0
DA:173,0
DA:174,0
DA:175,0
DA:177,0
DA:178,0
DA:179,0
DA:180,0
DA:181,0
DA:182,0
DA:188,0
DA:189,0
DA:190,0
DA:192,0
DA:193,0
DA:194,0
DA:195,0
DA:196,0
DA:197,0
DA:203,0
DA:206,0
DA:209,0
DA:211,0
DA:212,0
DA:213,0
DA:214,0
DA:215,0
DA:216,0
DA:217,0
DA:219,0
DA:221,0
DA:222,0
DA:223,0
DA:225,0
DA:226,0
DA:229,0
DA:230,0
DA:233,0
DA:234,0
DA:235,0
DA:238,0
DA:241,0
DA:243,0
DA:244,0
DA:245,0
DA:246,0
DA:247,0
DA:248,0
DA:249,0
DA:251,0
DA:254,0
DA:255,0
DA:257,0
DA:258,0
DA:259,0
DA:262,0
DA:265,0
DA:266,0
DA:269,0
DA:270,0
DA:271,0
DA:272,0
DA:273,0
DA:275,0
DA:276,0
DA:278,0
DA:283,0
DA:286,0
DA:287,0
DA:288,0
DA:290,0
DA:294,0
DA:296,0
DA:297,0
DA:298,0
DA:299,0
DA:300,0
DA:301,0
DA:302,0
DA:303,0
DA:304,0
DA:305,0
DA:306,0
DA:308,0
DA:309,0
DA:312,0
DA:315,0
DA:316,0
DA:317,0
DA:320,0
DA:323,0
DA:326,0
DA:327,0
DA:328,0
DA:330,0
DA:331,0
DA:332,0
DA:333,0
DA:334,0
DA:335,0
DA:336,0
DA:337,0
DA:339,0
DA:340,0
DA:342,0
DA:343,0
DA:344,0
DA:346,0
DA:347,0
DA:349,0
DA:350,0
DA:352,0
DA:353,0
DA:355,0
DA:356,0
DA:359,0
DA:361,0
DA:362,0
DA:363,0
DA:365,0
DA:366,0
DA:368,0
DA:369,0
DA:370,0
DA:371,0
DA:374,0
DA:375,0
DA:376,0
DA:377,0
DA:378,0
DA:379,0
DA:380,0
DA:382,0
DA:383,0
DA:384,0
DA:385,0
DA:388,0
DA:389,0
DA:390,0
DA:392,0
DA:393,0
DA:394,0
DA:396,0
DA:397,0
DA:401,0
DA:402,0
DA:404,0
DA:405,0
DA:407,0
DA:408,0
DA:409,0
DA:411,0
DA:412,0
DA:413,0
DA:415,0
DA:416,0
DA:417,0
DA:419,0
DA:420,0
DA:421,0
DA:422,0
DA:423,0
DA:426,0
DA:427,0
DA:428,0
DA:429,0
DA:431,0
DA:432,0
DA:434,0
DA:435,0
DA:436,0
DA:440,0
DA:441,0
DA:443,0
DA:444,0
DA:446,0
DA:447,0
DA:448,0
DA:449,0
DA:451,0
DA:452,0
DA:453,0
DA:456,0
DA:457,0
DA:458,0
DA:459,0
DA:460,0
DA:463,0
DA:464,0
DA:465,0
DA:467,0
DA:468,0
DA:469,0
DA:471,0
DA:472,0
DA:473,0
DA:475,0
DA:476,0
DA:478,0
DA:479,0
DA:480,0
DA:481,0
DA:482,0
DA:487,0
DA:488,0
DA:490,0
DA:491,0
DA:493,0
DA:494,0
DA:495,0
DA:497,0
DA:498,0
DA:499,0
DA:501,0
DA:502,0
DA:503,0
DA:505,0
DA:506,0
DA:507,0
DA:508,0
DA:509,0
DA:512,0
DA:513,0
DA:514,0
DA:515,0
DA:518,0
DA:519,0
DA:521,0
DA:522,0
DA:526,0
DA:527,0
DA:529,0
DA:530,0
DA:532,0
DA:533,0
DA:534,0
DA:536,0
DA:537,0
DA:538,0
DA:539,0
DA:541,0
DA:542,0
DA:543,0
DA:545,0
DA:546,0
DA:548,0
DA:549,0
DA:550,0
DA:551,0
DA:552,0
DA:553,0
DA:556,0
DA:557,0
DA:559,0
DA:560,0
DA:561,0
DA:562,0
DA:563,0
DA:567,0
DA:568,0
DA:570,0
DA:571,0
DA:573,1
DA:574,1
DA:575,1
DA:576,1
DA:577,1
DA:578,1
DA:579,1
DA:580,1
DA:581,1
DA:582,1
DA:583,1
DA:584,1
DA:585,1
DA:586,1
DA:587,1
DA:588,1
DA:590,1
DA:591,1
DA:592,1
DA:593,1
DA:594,1
DA:595,1
DA:596,1
DA:597,1
DA:598,1
DA:599,1
DA:600,1
DA:601,1
DA:602,1
DA:603,1
DA:604,1
DA:605,1
DA:606,1
DA:607,1
DA:608,1
DA:609,1
DA:610,1
DA:611,1
DA:612,1
DA:613,1
DA:614,1
DA:615,1
DA:617,0
DA:618,0
DA:619,0
DA:621,0
DA:622,0
DA:623,0
DA:624,0
DA:625,0
DA:626,0
DA:627,0
DA:628,0
DA:631,0
DA:632,0
DA:634,0
DA:635,0
DA:638,0
DA:641,0
DA:642,0
DA:644,0
DA:645,0
DA:647,0
DA:648,0
DA:649,0
DA:650,0
DA:653,0
DA:654,0
DA:656,2
DA:657,2
DA:658,1
DA:659,1
DA:660,0
DA:661,0
DA:662,0
DA:664,2
DA:666,0
DA:667,0
DA:668,0
DA:670,0
DA:671,0
DA:672,0
DA:673,0
DA:676,0
DA:677,0
DA:679,0
DA:680,0
DA:681,0
DA:683,0
DA:684,0
DA:685,0
DA:686,0
DA:689,0
DA:690,0
DA:692,0
DA:694,0
DA:695,0
DA:696,0
DA:698,0
DA:700,0
DA:701,0
DA:702,0
DA:704,0
DA:705,0
DA:706,0
DA:708,0
DA:710,0
DA:711,0
DA:713,0
DA:714,0
DA:715,0
DA:717,0
DA:718,0
DA:719,0
DA:721,0
DA:722,0
DA:723,0
DA:725,0
DA:726,0
DA:727,0
DA:729,0
DA:730,0
DA:731,0
DA:733,0
DA:734,0
DA:735,0
DA:736,0
DA:738,0
DA:739,0
DA:740,0
DA:742,0
DA:743,0
DA:744,0
DA:746,0
DA:747,0
DA:748,0
DA:749,0
DA:750,0
DA:751,0
DA:752,0
DA:753,0
DA:755,0
DA:756,0
DA:758,0
DA:759,0
DA:760,0
DA:762,0
DA:763,0
DA:764,0
DA:766,0
DA:767,0
DA:768,0
DA:770,0
DA:771,0
DA:772,0
DA:773,0
DA:774,0
DA:775,0
DA:776,0
DA:778,0
DA:779,0
DA:780,0
DA:781,0
DA:783,0
DA:784,0
DA:785,0
DA:787,0
DA:788,0
DA:790,0
DA:791,0
DA:792,0
DA:793,0
DA:794,0
DA:795,0
DA:796,0
DA:798,0
DA:799,0
DA:800,0
DA:801,0
DA:802,0
DA:803,0
DA:804,0
DA:812,1
DA:813,1
DA:815,1
DA:816,1
DA:818,1
DA:819,1
DA:820,1
DA:821,1
DA:822,1
DA:823,1
DA:826,1
DA:827,1
DA:829,1
DA:830,1
DA:831,1
DA:833,1
DA:834,1
DA:835,1
DA:836,1
DA:839,1
DA:840,1
DA:841,1
DA:842,1
DA:843,1
DA:844,1
DA:845,1
BRF:0
BRH:0
LF:546
LH:119
end_of_record
SF:/home/nathan/Projects/lens/src/adversarial/clone_suite.rs
FN:379,_RNCNCNvMs0_NtNtCscx2lCY9pHX3_9lens_core11adversarial11clone_suiteNtB9_10CloneSuite22measure_search_latency00Bd_
FN:317,_RNCNvMs0_NtNtCscx2lCY9pHX3_9lens_core11adversarial11clone_suiteNtB7_10CloneSuite18count_corpus_files0Bb_
FN:167,_RNCNvMs0_NtNtCscx2lCY9pHX3_9lens_core11adversarial11clone_suiteNtB7_10CloneSuite18establish_baseline0Bb_
FN:396,_RNCNvMs0_NtNtCscx2lCY9pHX3_9lens_core11adversarial11clone_suiteNtB7_10CloneSuite20measure_memory_usage0Bb_
FN:476,_RNCNvMs0_NtNtCscx2lCY9pHX3_9lens_core11adversarial11clone_suiteNtB7_10CloneSuite22cleanup_test_artifacts0Bb_
FN:356,_RNCNvMs0_NtNtCscx2lCY9pHX3_9lens_core11adversarial11clone_suiteNtB7_10CloneSuite22measure_search_latency0Bb_
FN:199,_RNCNvMs0_NtNtCscx2lCY9pHX3_9lens_core11adversarial11clone_suiteNtB7_10CloneSuite23test_duplication_factor0Bb_
FN:241,_RNCNvMs0_NtNtCscx2lCY9pHX3_9lens_core11adversarial11clone_suiteNtB7_10CloneSuite24create_duplicated_corpus0Bb_
FN:420,_RNCNvMs0_NtNtCscx2lCY9pHX3_9lens_core11adversarial11clone_suiteNtB7_10CloneSuite25calculate_overall_metricss_0Bb_
FN:401,_RNCNvMs0_NtNtCscx2lCY9pHX3_9lens_core11adversarial11clone_suiteNtB7_10CloneSuite25measure_peak_memory_usage0Bb_
FN:330,_RNCNvMs0_NtNtCscx2lCY9pHX3_9lens_core11adversarial11clone_suiteNtB7_10CloneSuite25simulate_indexing_process0Bb_
FN:391,_RNCNvMs0_NtNtCscx2lCY9pHX3_9lens_core11adversarial11clone_suiteNtB7_10CloneSuite25simulate_search_operation0Bb_
FN:386,_RNCNvMs0_NtNtCscx2lCY9pHX3_9lens_core11adversarial11clone_suiteNtB7_10CloneSuite34measure_search_latency_with_corpus0Bb_
FN:120,_RNCNvMs0_NtNtCscx2lCY9pHX3_9lens_core11adversarial11clone_suiteNtB7_10CloneSuite7execute0Bb_
FN:317,_RNvMs0_NtNtCscx2lCY9pHX3_9lens_core11adversarial11clone_suiteNtB5_10CloneSuite18count_corpus_files
FN:167,_RNvMs0_NtNtCscx2lCY9pHX3_9lens_core11adversarial11clone_suiteNtB5_10CloneSuite18establish_baseline
FN:396,_RNvMs0_NtNtCscx2lCY9pHX3_9lens_core11adversarial11clone_suiteNtB5_10CloneSuite20measure_memory_usage
FN:476,_RNvMs0_NtNtCscx2lCY9pHX3_9lens_core11adversarial11clone_suiteNtB5_10CloneSuite22cleanup_test_artifacts
FN:356,_RNvMs0_NtNtCscx2lCY9pHX3_9lens_core11adversarial11clone_suiteNtB5_10CloneSuite22measure_search_latency
FN:199,_RNvMs0_NtNtCscx2lCY9pHX3_9lens_core11adversarial11clone_suiteNtB5_10CloneSuite23test_duplication_factor
FN:454,_RNvMs0_NtNtCscx2lCY9pHX3_9lens_core11adversarial11clone_suiteNtB5_10CloneSuite24assess_memory_efficiency
FN:241,_RNvMs0_NtNtCscx2lCY9pHX3_9lens_core11adversarial11clone_suiteNtB5_10CloneSuite24create_duplicated_corpus
FN:406,_RNvMs0_NtNtCscx2lCY9pHX3_9lens_core11adversarial11clone_suiteNtB5_10CloneSuite25calculate_overall_metrics
FN:401,_RNvMs0_NtNtCscx2lCY9pHX3_9lens_core11adversarial11clone_suiteNtB5_10CloneSuite25measure_peak_memory_usage
FN:330,_RNvMs0_NtNtCscx2lCY9pHX3_9lens_core11adversarial11clone_suiteNtB5_10CloneSuite25simulate_indexing_process
FN:391,_RNvMs0_NtNtCscx2lCY9pHX3_9lens_core11adversarial11clone_suiteNtB5_10CloneSuite25simulate_search_operation
FN:386,_RNvMs0_NtNtCscx2lCY9pHX3_9lens_core11adversarial11clone_suiteNtB5_10CloneSuite34measure_search_latency_with_corpus
FN:120,_RNvMs0_NtNtCscx2lCY9pHX3_9lens_core11adversarial11clone_suiteNtB5_10CloneSuite7execute
FN:502,_RNvNtNtNtCscx2lCY9pHX3_9lens_core11adversarial11clone_suite5testss_23test_fork_modifications
FN:491,_RNvNtNtNtCscx2lCY9pHX3_9lens_core11adversarial11clone_suite5testss_30test_clone_suite_configuration
FN:514,_RNvNtNtNtCscx2lCY9pHX3_9lens_core11adversarial11clone_suite5testss_37test_performance_degradation_analysis
FN:502,_RNCNvNtNtNtCscx2lCY9pHX3_9lens_core11adversarial11clone_suite5testss_23test_fork_modifications0B9_
FN:491,_RNCNvNtNtNtCscx2lCY9pHX3_9lens_core11adversarial11clone_suite5testss_30test_clone_suite_configuration0B9_
FN:514,_RNCNvNtNtNtCscx2lCY9pHX3_9lens_core11adversarial11clone_suite5testss_37test_performance_degradation_analysis0B9_
FN:302,_RNCNvMs0_NtNtCscx2lCY9pHX3_9lens_core11adversarial11clone_suiteNtB7_10CloneSuite24apply_fork_modifications0Bb_
FN:290,_RNvMs0_NtNtCscx2lCY9pHX3_9lens_core11adversarial11clone_suiteNtB5_10CloneSuite24apply_fork_modifications
FN:430,_RNvMs0_NtNtCscx2lCY9pHX3_9lens_core11adversarial11clone_suiteNtB5_10CloneSuite31analyze_performance_degradation
FN:112,_RNvMs0_NtNtCscx2lCY9pHX3_9lens_core11adversarial11clone_suiteNtB5_10CloneSuite3new
FN:32,_RNvXNtNtCscx2lCY9pHX3_9lens_core11adversarial11clone_suiteNtB2_15CloneTestConfigNtNtCs66KPHxksi63_4core7default7Default7default
FN:53,_RNvXs_NtNtCscx2lCY9pHX3_9lens_core11adversarial11clone_suiteNtB4_11CloneResultNtNtCs66KPHxksi63_4core7default7Default7default
FNDA:0,_RNCNCNvMs0_NtNtCscx2lCY9pHX3_9lens_core11adversarial11clone_suiteNtB9_10CloneSuite22measure_search_latency00Bd_
FNDA:0,_RNCNvMs0_NtNtCscx2lCY9pHX3_9lens_core11adversarial11clone_suiteNtB7_10CloneSuite18count_corpus_files0Bb_
FNDA:0,_RNCNvMs0_NtNtCscx2lCY9pHX3_9lens_core11adversarial11clone_suiteNtB7_10CloneSuite18establish_baseline0Bb_
FNDA:0,_RNCNvMs0_NtNtCscx2lCY9pHX3_9lens_core11adversarial11clone_suiteNtB7_10CloneSuite20measure_memory_usage0Bb_
FNDA:0,_RNCNvMs0_NtNtCscx2lCY9pHX3_9lens_core11adversarial11clone_suiteNtB7_10CloneSuite22cleanup_test_artifacts0Bb_
FNDA:0,_RNCNvMs0_NtNtCscx2lCY9pHX3_9lens_core11adversarial11clone_suiteNtB7_10CloneSuite22measure_search_latency0Bb_
FNDA:0,_RNCNvMs0_NtNtCscx2lCY9pHX3_9lens_core11adversarial11clone_suiteNtB7_10CloneSuite23test_duplication_factor0Bb_
FNDA:0,_RNCNvMs0_NtNtCscx2lCY9pHX3_9lens_core11adversarial11clone_suiteNtB7_10CloneSuite24create_duplicated_corpus0Bb_
FNDA:0,_RNCNvMs0_NtNtCscx2lCY9pHX3_9lens_core11adversarial11clone_suiteNtB7_10CloneSuite25calculate_overall_metricss_0Bb_
FNDA:0,_RNCNvMs0_NtNtCscx2lCY9pHX3_9lens_core11adversarial11clone_suiteNtB7_10CloneSuite25measure_peak_memory_usage0Bb_
FNDA:0,_RNCNvMs0_NtNtCscx2lCY9pHX3_9lens_core11adversarial11clone_suiteNtB7_10CloneSuite25simulate_indexing_process0Bb_
FNDA:0,_RNCNvMs0_NtNtCscx2lCY9pHX3_9lens_core11adversarial11clone_suiteNtB7_10CloneSuite25simulate_search_operation0Bb_
FNDA:0,_RNCNvMs0_NtNtCscx2lCY9pHX3_9lens_core11adversarial11clone_suiteNtB7_10CloneSuite34measure_search_latency_with_corpus0Bb_
FNDA:0,_RNCNvMs0_NtNtCscx2lCY9pHX3_9lens_core11adversarial11clone_suiteNtB7_10CloneSuite7execute0Bb_
FNDA:0,_RNvMs0_NtNtCscx2lCY9pHX3_9lens_core11adversarial11clone_suiteNtB5_10CloneSuite18count_corpus_files
FNDA:0,_RNvMs0_NtNtCscx2lCY9pHX3_9lens_core11adversarial11clone_suiteNtB5_10CloneSuite18establish_baseline
FNDA:0,_RNvMs0_NtNtCscx2lCY9pHX3_9lens_core11adversarial11clone_suiteNtB5_10CloneSuite20measure_memory_usage
FNDA:0,_RNvMs0_NtNtCscx2lCY9pHX3_9lens_core11adversarial11clone_suiteNtB5_10CloneSuite22cleanup_test_artifacts
FNDA:0,_RNvMs0_NtNtCscx2lCY9pHX3_9lens_core11adversarial11clone_suiteNtB5_10CloneSuite22measure_search_latency
FNDA:0,_RNvMs0_NtNtCscx2lCY9pHX3_9lens_core11adversarial11clone_suiteNtB5_10CloneSuite23test_duplication_factor
FNDA:0,_RNvMs0_NtNtCscx2lCY9pHX3_9lens_core11adversarial11clone_suiteNtB5_10CloneSuite24assess_memory_efficiency
FNDA:0,_RNvMs0_NtNtCscx2lCY9pHX3_9lens_core11adversarial11clone_suiteNtB5_10CloneSuite24create_duplicated_corpus
FNDA:0,_RNvMs0_NtNtCscx2lCY9pHX3_9lens_core11adversarial11clone_suiteNtB5_10CloneSuite25calculate_overall_metrics
FNDA:0,_RNvMs0_NtNtCscx2lCY9pHX3_9lens_core11adversarial11clone_suiteNtB5_10CloneSuite25measure_peak_memory_usage
FNDA:0,_RNvMs0_NtNtCscx2lCY9pHX3_9lens_core11adversarial11clone_suiteNtB5_10CloneSuite25simulate_indexing_process
FNDA:0,_RNvMs0_NtNtCscx2lCY9pHX3_9lens_core11adversarial11clone_suiteNtB5_10CloneSuite25simulate_search_operation
FNDA:0,_RNvMs0_NtNtCscx2lCY9pHX3_9lens_core11adversarial11clone_suiteNtB5_10CloneSuite34measure_search_latency_with_corpus
FNDA:0,_RNvMs0_NtNtCscx2lCY9pHX3_9lens_core11adversarial11clone_suiteNtB5_10CloneSuite7execute
FNDA:1,_RNvNtNtNtCscx2lCY9pHX3_9lens_core11adversarial11clone_suite5testss_23test_fork_modifications
FNDA:1,_RNvNtNtNtCscx2lCY9pHX3_9lens_core11adversarial11clone_suite5testss_30test_clone_suite_configuration
FNDA:1,_RNvNtNtNtCscx2lCY9pHX3_9lens_core11adversarial11clone_suite5testss_37test_performance_degradation_analysis
FNDA:1,_RNCNvNtNtNtCscx2lCY9pHX3_9lens_core11adversarial11clone_suite5testss_23test_fork_modifications0B9_
FNDA:1,_RNCNvNtNtNtCscx2lCY9pHX3_9lens_core11adversarial11clone_suite5testss_30test_clone_suite_configuration0B9_
FNDA:1,_RNCNvNtNtNtCscx2lCY9pHX3_9lens_core11adversarial11clone_suite5testss_37test_performance_degradation_analysis0B9_
FNDA:1,_RNCNvMs0_NtNtCscx2lCY9pHX3_9lens_core11adversarial11clone_suiteNtB7_10CloneSuite24apply_fork_modifications0Bb_
FNDA:1,_RNvMs0_NtNtCscx2lCY9pHX3_9lens_core11adversarial11clone_suiteNtB5_10CloneSuite24apply_fork_modifications
FNDA:1,_RNvMs0_NtNtCscx2lCY9pHX3_9lens_core11adversarial11clone_suiteNtB5_10CloneSuite31analyze_performance_degradation
FNDA:3,_RNvMs0_NtNtCscx2lCY9pHX3_9lens_core11adversarial11clone_suiteNtB5_10CloneSuite3new
FNDA:3,_RNvXNtNtCscx2lCY9pHX3_9lens_core11adversarial11clone_suiteNtB2_15CloneTestConfigNtNtCs66KPHxksi63_4core7default7Default7default
FNDA:3,_RNvXs_NtNtCscx2lCY9pHX3_9lens_core11adversarial11clone_suiteNtB4_11CloneResultNtNtCs66KPHxksi63_4core7default7Default7default
FNF:40
FNH:12
DA:32,3
DA:33,3
DA:34,3
DA:35,3
DA:36,3
DA:37,3
DA:38,3
DA:39,3
DA:40,3
DA:41,3
DA:53,3
DA:54,3
DA:55,3
DA:56,3
DA:57,3
DA:58,3
DA:59,3
DA:60,3
DA:112,3
DA:113,3
DA:114,3
DA:115,3
DA:116,3
DA:117,3
DA:120,0
DA:121,0
DA:124,0
DA:126,0
DA:127,0
DA:130,0
DA:131,0
DA:133,0
DA:134,0
DA:135,0
DA:136,0
DA:137,0
DA:138,0
DA:139,0
DA:140,0
DA:146,0
DA:149,0
DA:152,0
DA:154,0
DA:155,0
DA:156,0
DA:157,0
DA:158,0
DA:159,0
DA:161,0
DA:163,0
DA:164,0
DA:165,0
DA:167,0
DA:168,0
DA:170,0
DA:173,0
DA:176,0
DA:177,0
DA:178,0
DA:181,0
DA:184,0
DA:186,0
DA:187,0
DA:188,0
DA:189,0
DA:190,0
DA:191,0
DA:193,0
DA:196,0
DA:197,0
DA:199,0
DA:200,0
DA:203,0
DA:206,0
DA:207,0
DA:208,0
DA:209,0
DA:210,0
DA:212,0
DA:213,0
DA:215,0
DA:220,0
DA:223,0
DA:226,0
DA:227,0
DA:228,0
DA:230,0
DA:231,0
DA:232,0
DA:233,0
DA:234,0
DA:235,0
DA:236,0
DA:237,0
DA:238,0
DA:239,0
DA:241,0
DA:242,0
DA:244,0
DA:246,0
DA:247,0
DA:250,0
DA:251,0
DA:253,0
DA:254,0
DA:255,0
DA:256,0
DA:257,0
DA:261,0
DA:262,0
DA:263,0
DA:265,0
DA:266,0
DA:267,0
DA:269,0
DA:272,0
DA:273,0
DA:275,0
DA:277,0
DA:278,0
DA:282,0
DA:284,0
DA:287,0
DA:288,0
DA:290,1
DA:292,1
DA:295,1
DA:296,1
DA:299,1
DA:300,1
DA:301,1
DA:302,1
DA:303,1
DA:305,1
DA:306,1
DA:308,1
DA:311,1
DA:312,0
DA:314,1
DA:315,1
DA:317,0
DA:318,0
DA:319,0
DA:321,0
DA:322,0
DA:323,0
DA:324,0
DA:327,0
DA:328,0
DA:330,0
DA:332,0
DA:333,0
DA:335,0
DA:337,0
DA:338,0
DA:339,0
DA:341,0
DA:342,0
DA:345,0
DA:346,0
DA:349,0
DA:350,0
DA:351,0
DA:353,0
DA:354,0
DA:356,0
DA:358,0
DA:360,0
DA:361,0
DA:362,0
DA:363,0
DA:366,0
DA:368,0
DA:369,0
DA:372,0
DA:374,0
DA:375,0
DA:379,0
DA:380,0
DA:381,0
DA:383,0
DA:384,0
DA:386,0
DA:388,0
DA:389,0
DA:391,0
DA:393,0
DA:394,0
DA:396,0
DA:398,0
DA:399,0
DA:401,0
DA:403,0
DA:404,0
DA:406,0
DA:407,0
DA:408,0
DA:409,0
DA:412,0
DA:413,0
DA:414,0
DA:415,0
DA:418,0
DA:419,0
DA:420,0
DA:421,0
DA:422,0
DA:425,0
DA:426,0
DA:427,0
DA:428,0
DA:430,1
DA:431,1
DA:432,1
DA:434,1
DA:435,1
DA:436,1
DA:437,1
DA:438,1
DA:439,1
DA:440,1
DA:441,1
DA:442,1
DA:443,1
DA:444,1
DA:445,1
DA:446,1
DA:447,1
DA:448,1
DA:449,1
DA:451,1
DA:452,1
DA:454,0
DA:455,0
DA:456,0
DA:458,0
DA:459,0
DA:460,0
DA:461,0
DA:462,0
DA:463,0
DA:464,0
DA:465,0
DA:466,0
DA:467,0
DA:468,0
DA:469,0
DA:470,0
DA:471,0
DA:473,0
DA:474,0
DA:476,0
DA:477,0
DA:478,0
DA:479,0
DA:480,0
DA:481,0
DA:482,0
DA:491,1
DA:492,1
DA:493,1
DA:496,1
DA:497,1
DA:498,1
DA:499,1
DA:502,1
DA:503,1
DA:505,1
DA:506,1
DA:508,1
DA:509,1
DA:510,1
DA:511,1
DA:514,1
DA:515,1
DA:517,1
DA:518,1
DA:519,1
DA:520,1
DA:521,1
DA:522,1
DA:523,1
DA:524,1
DA:525,1
DA:526,1
DA:529,1
DA:530,1
DA:531,1
DA:532,1
DA:533,1
DA:534,1
DA:535,1
DA:536,1
DA:537,1
DA:539,1
DA:541,1
DA:542,1
DA:543,1
BRF:0
BRH:0
LF:319
LH:107
end_of_record
SF:/home/nathan/Projects/lens/src/adversarial/mod.rs
FN:133,_RNvNtCscx2lCY9pHX3_9lens_core11adversarial26calculate_robustness_score
FN:84,_RNvNtCscx2lCY9pHX3_9lens_core11adversarial26validate_adversarial_gates
FN:187,_RNvNtNtCscx2lCY9pHX3_9lens_core11adversarial5testss_31test_failing_span_coverage_gate
FN:153,_RNvNtNtCscx2lCY9pHX3_9lens_core11adversarial5testss_32test_adversarial_gate_validation
FN:221,_RNvNtNtCscx2lCY9pHX3_9lens_core11adversarial5testss_33test_robustness_score_calculation
FNDA:1,_RNvNtCscx2lCY9pHX3_9lens_core11adversarial26calculate_robustness_score
FNDA:2,_RNvNtCscx2lCY9pHX3_9lens_core11adversarial26validate_adversarial_gates
FNDA:1,_RNvNtNtCscx2lCY9pHX3_9lens_core11adversarial5testss_31test_failing_span_coverage_gate
FNDA:1,_RNvNtNtCscx2lCY9pHX3_9lens_core11adversarial5testss_32test_adversarial_gate_validation
FNDA:1,_RNvNtNtCscx2lCY9pHX3_9lens_core11adversarial5testss_33test_robustness_score_calculation
FNF:5
FNH:5
DA:84,2
DA:89,2
DA:90,2
DA:93,2
DA:94,2
DA:95,1
DA:96,1
DA:97,1
DA:98,1
DA:99,1
DA:102,2
DA:103,2
DA:104,0
DA:105,0
DA:106,0
DA:107,0
DA:108,2
DA:111,2
DA:112,2
DA:113,2
DA:114,0
DA:115,0
DA:116,0
DA:117,0
DA:118,2
DA:120,2
DA:122,2
DA:123,1
DA:124,0
DA:125,0
DA:127,1
DA:129,2
DA:130,2
DA:133,1
DA:134,1
DA:137,1
DA:138,1
DA:139,1
DA:140,1
DA:143,1
DA:145,1
DA:146,1
DA:153,1
DA:154,1
DA:155,1
DA:156,1
DA:157,1
DA:158,1
DA:159,1
DA:160,1
DA:161,1
DA:162,1
DA:163,1
DA:164,1
DA:165,1
DA:166,1
DA:167,1
DA:168,1
DA:169,1
DA:170,1
DA:171,1
DA:172,1
DA:173,1
DA:174,1
DA:175,1
DA:176,1
DA:177,1
DA:178,1
DA:179,1
DA:180,1
DA:181,1
DA:183,1
DA:184,1
DA:187,1
DA:188,1
DA:189,1
DA:190,1
DA:191,1
DA:192,1
DA:193,1
DA:194,1
DA:195,1
DA:196,1
DA:197,1
DA:198,1
DA:199,1
DA:200,1
DA:201,1
DA:202,1
DA:203,1
DA:204,1
DA:205,1
DA:206,1
DA:207,1
DA:208,1
DA:209,1
DA:210,1
DA:211,1
DA:212,1
DA:213,1
DA:214,1
DA:215,1
DA:217,1
DA:218,1
DA:221,1
DA:222,1
DA:223,1
DA:224,1
DA:225,1
DA:226,1
DA:227,1
DA:228,1
DA:229,1
DA:230,1
DA:231,1
DA:232,1
DA:233,1
DA:234,1
DA:235,1
DA:236,1
DA:237,1
DA:238,1
DA:239,1
DA:240,1
DA:241,1
DA:242,1
DA:243,1
DA:244,1
DA:245,1
DA:246,1
DA:247,1
DA:248,1
DA:249,1
DA:251,1
DA:252,1
DA:253,1
DA:254,1
BRF:0
BRH:0
LF:137
LH:127
end_of_record
SF:/home/nathan/Projects/lens/src/adversarial/noise_suite.rs
FN:576,_RNCNCNvMs0_NtNtCscx2lCY9pHX3_9lens_core11adversarial11noise_suiteNtB9_10NoiseSuite24create_binary_data_files00Bd_
FN:674,_RNCNvMs0_NtNtCscx2lCY9pHX3_9lens_core11adversarial11noise_suiteNtB7_10NoiseSuite16copy_clean_files0Bb_
FN:691,_RNCNvMs0_NtNtCscx2lCY9pHX3_9lens_core11adversarial11noise_suiteNtB7_10NoiseSuite17count_clean_files0Bb_
FN:717,_RNCNvMs0_NtNtCscx2lCY9pHX3_9lens_core11adversarial11noise_suiteNtB7_10NoiseSuite17simulate_indexing0Bb_
FN:238,_RNCNvMs0_NtNtCscx2lCY9pHX3_9lens_core11adversarial11noise_suiteNtB7_10NoiseSuite18establish_baseline0Bb_
FN:318,_RNCNvMs0_NtNtCscx2lCY9pHX3_9lens_core11adversarial11noise_suiteNtB7_10NoiseSuite19create_noisy_corpus0Bb_
FN:746,_RNCNvMs0_NtNtCscx2lCY9pHX3_9lens_core11adversarial11noise_suiteNtB7_10NoiseSuite19measure_memory_peak0Bb_
FN:267,_RNCNvMs0_NtNtCscx2lCY9pHX3_9lens_core11adversarial11noise_suiteNtB7_10NoiseSuite19test_noise_scenario0Bb_
FN:722,_RNCNvMs0_NtNtCscx2lCY9pHX3_9lens_core11adversarial11noise_suiteNtB7_10NoiseSuite20measure_memory_usage0Bb_
FN:741,_RNCNvMs0_NtNtCscx2lCY9pHX3_9lens_core11adversarial11noise_suiteNtB7_10NoiseSuite21measure_search_impact0Bb_
FN:834,_RNCNvMs0_NtNtCscx2lCY9pHX3_9lens_core11adversarial11noise_suiteNtB7_10NoiseSuite22cleanup_test_artifacts0Bb_
FN:398,_RNCNvMs0_NtNtCscx2lCY9pHX3_9lens_core11adversarial11noise_suiteNtB7_10NoiseSuite22create_large_csv_files0Bb_
FN:726,_RNCNvMs0_NtNtCscx2lCY9pHX3_9lens_core11adversarial11noise_suiteNtB7_10NoiseSuite22measure_search_quality0Bb_
FN:804,_RNCNvMs0_NtNtCscx2lCY9pHX3_9lens_core11adversarial11noise_suiteNtB7_10NoiseSuite24assess_memory_management0Bb_
FN:704,_RNCNvMs0_NtNtCscx2lCY9pHX3_9lens_core11adversarial11noise_suiteNtB7_10NoiseSuite24calculate_directory_size0Bb_
FN:565,_RNCNvMs0_NtNtCscx2lCY9pHX3_9lens_core11adversarial11noise_suiteNtB7_10NoiseSuite24create_binary_data_files0Bb_
FN:593,_RNCNvMs0_NtNtCscx2lCY9pHX3_9lens_core11adversarial11noise_suiteNtB7_10NoiseSuite24create_deep_nested_files0Bb_
FN:444,_RNCNvMs0_NtNtCscx2lCY9pHX3_9lens_core11adversarial11noise_suiteNtB7_10NoiseSuite24create_verbose_log_files0Bb_
FN:730,_RNCNvMs0_NtNtCscx2lCY9pHX3_9lens_core11adversarial11noise_suiteNtB7_10NoiseSuite24test_parsing_performance0Bb_
FN:343,_RNCNvMs0_NtNtCscx2lCY9pHX3_9lens_core11adversarial11noise_suiteNtB7_10NoiseSuite25create_massive_json_files0Bb_
FN:497,_RNCNvMs0_NtNtCscx2lCY9pHX3_9lens_core11adversarial11noise_suiteNtB7_10NoiseSuite26create_database_dump_files0Bb_
FN:761,_RNCNvMs0_NtNtCscx2lCY9pHX3_9lens_core11adversarial11noise_suiteNtB7_10NoiseSuite27analyze_parsing_performance0Bb_
FN:765,_RNCNvMs0_NtNtCscx2lCY9pHX3_9lens_core11adversarial11noise_suiteNtB7_10NoiseSuite27analyze_parsing_performances_0Bb_
FN:750,_RNCNvMs0_NtNtCscx2lCY9pHX3_9lens_core11adversarial11noise_suiteNtB7_10NoiseSuite28test_filtering_effectiveness0Bb_
FN:189,_RNCNvMs0_NtNtCscx2lCY9pHX3_9lens_core11adversarial11noise_suiteNtB7_10NoiseSuite7execute0Bb_
FN:674,_RNvMs0_NtNtCscx2lCY9pHX3_9lens_core11adversarial11noise_suiteNtB5_10NoiseSuite16copy_clean_files
FN:691,_RNvMs0_NtNtCscx2lCY9pHX3_9lens_core11adversarial11noise_suiteNtB5_10NoiseSuite17count_clean_files
FN:717,_RNvMs0_NtNtCscx2lCY9pHX3_9lens_core11adversarial11noise_suiteNtB5_10NoiseSuite17simulate_indexing
FN:238,_RNvMs0_NtNtCscx2lCY9pHX3_9lens_core11adversarial11noise_suiteNtB5_10NoiseSuite18establish_baseline
FN:318,_RNvMs0_NtNtCscx2lCY9pHX3_9lens_core11adversarial11noise_suiteNtB5_10NoiseSuite19create_noisy_corpus
FN:746,_RNvMs0_NtNtCscx2lCY9pHX3_9lens_core11adversarial11noise_suiteNtB5_10NoiseSuite19measure_memory_peak
FN:267,_RNvMs0_NtNtCscx2lCY9pHX3_9lens_core11adversarial11noise_suiteNtB5_10NoiseSuite19test_noise_scenario
FN:722,_RNvMs0_NtNtCscx2lCY9pHX3_9lens_core11adversarial11noise_suiteNtB5_10NoiseSuite20measure_memory_usage
FN:741,_RNvMs0_NtNtCscx2lCY9pHX3_9lens_core11adversarial11noise_suiteNtB5_10NoiseSuite21measure_search_impact
FN:834,_RNvMs0_NtNtCscx2lCY9pHX3_9lens_core11adversarial11noise_suiteNtB5_10NoiseSuite22cleanup_test_artifacts
FN:398,_RNvMs0_NtNtCscx2lCY9pHX3_9lens_core11adversarial11noise_suiteNtB5_10NoiseSuite22create_large_csv_files
FN:726,_RNvMs0_NtNtCscx2lCY9pHX3_9lens_core11adversarial11noise_suiteNtB5_10NoiseSuite22measure_search_quality
FN:800,_RNvMs0_NtNtCscx2lCY9pHX3_9lens_core11adversarial11noise_suiteNtB5_10NoiseSuite24assess_memory_management
FN:704,_RNvMs0_NtNtCscx2lCY9pHX3_9lens_core11adversarial11noise_suiteNtB5_10NoiseSuite24calculate_directory_size
FN:565,_RNvMs0_NtNtCscx2lCY9pHX3_9lens_core11adversarial11noise_suiteNtB5_10NoiseSuite24create_binary_data_files
FN:593,_RNvMs0_NtNtCscx2lCY9pHX3_9lens_core11adversarial11noise_suiteNtB5_10NoiseSuite24create_deep_nested_files
FN:444,_RNvMs0_NtNtCscx2lCY9pHX3_9lens_core11adversarial11noise_suiteNtB5_10NoiseSuite24create_verbose_log_files
FN:730,_RNvMs0_NtNtCscx2lCY9pHX3_9lens_core11adversarial11noise_suiteNtB5_10NoiseSuite24test_parsing_performance
FN:343,_RNvMs0_NtNtCscx2lCY9pHX3_9lens_core11adversarial11noise_suiteNtB5_10NoiseSuite25create_massive_json_files
FN:497,_RNvMs0_NtNtCscx2lCY9pHX3_9lens_core11adversarial11noise_suiteNtB5_10NoiseSuite26create_database_dump_files
FN:785,_RNvMs0_NtNtCscx2lCY9pHX3_9lens_core11adversarial11noise_suiteNtB5_10NoiseSuite26evaluate_content_filtering
FN:755,_RNvMs0_NtNtCscx2lCY9pHX3_9lens_core11adversarial11noise_suiteNtB5_10NoiseSuite27analyze_parsing_performance
FN:816,_RNvMs0_NtNtCscx2lCY9pHX3_9lens_core11adversarial11noise_suiteNtB5_10NoiseSuite28calculate_robustness_metrics
FN:750,_RNvMs0_NtNtCscx2lCY9pHX3_9lens_core11adversarial11noise_suiteNtB5_10NoiseSuite28test_filtering_effectiveness
FN:189,_RNvMs0_NtNtCscx2lCY9pHX3_9lens_core11adversarial11noise_suiteNtB5_10NoiseSuite7execute
FN:848,_RNvNtNtNtCscx2lCY9pHX3_9lens_core11adversarial11noise_suite5testss_26test_noise_scenario_naming
FN:870,_RNvNtNtNtCscx2lCY9pHX3_9lens_core11adversarial11noise_suite5testss_28test_noise_config_validation
FN:859,_RNvNtNtNtCscx2lCY9pHX3_9lens_core11adversarial11noise_suite5testss_32test_deep_nested_json_generation
FN:870,_RNCNvNtNtNtCscx2lCY9pHX3_9lens_core11adversarial11noise_suite5testss_28test_noise_config_validation0B9_
FN:663,_RNvMs0_NtNtCscx2lCY9pHX3_9lens_core11adversarial11noise_suiteNtB5_10NoiseSuite17get_scenario_name
FN:616,_RNvMs0_NtNtCscx2lCY9pHX3_9lens_core11adversarial11noise_suiteNtB5_10NoiseSuite27generate_deeply_nested_json
FN:181,_RNvMs0_NtNtCscx2lCY9pHX3_9lens_core11adversarial11noise_suiteNtB5_10NoiseSuite3new
FN:617,_RNvNvMs0_NtNtCscx2lCY9pHX3_9lens_core11adversarial11noise_suiteNtB7_10NoiseSuite27generate_deeply_nested_json14generate_level
FN:64,_RNvXNtNtCscx2lCY9pHX3_9lens_core11adversarial11noise_suiteNtB2_15NoiseTestConfigNtNtCs66KPHxksi63_4core7default7Default7default
FN:105,_RNvXs_NtNtCscx2lCY9pHX3_9lens_core11adversarial11noise_suiteNtB4_11NoiseResultNtNtCs66KPHxksi63_4core7default7Default7default
FNDA:0,_RNCNCNvMs0_NtNtCscx2lCY9pHX3_9lens_core11adversarial11noise_suiteNtB9_10NoiseSuite24create_binary_data_files00Bd_
FNDA:0,_RNCNvMs0_NtNtCscx2lCY9pHX3_9lens_core11adversarial11noise_suiteNtB7_10NoiseSuite16copy_clean_files0Bb_
FNDA:0,_RNCNvMs0_NtNtCscx2lCY9pHX3_9lens_core11adversarial11noise_suiteNtB7_10NoiseSuite17count_clean_files0Bb_
FNDA:0,_RNCNvMs0_NtNtCscx2lCY9pHX3_9lens_core11adversarial11noise_suiteNtB7_10NoiseSuite17simulate_indexing0Bb_
FNDA:0,_RNCNvMs0_NtNtCscx2lCY9pHX3_9lens_core11adversarial11noise_suiteNtB7_10NoiseSuite18establish_baseline0Bb_
FNDA:0,_RNCNvMs0_NtNtCscx2lCY9pHX3_9lens_core11adversarial11noise_suiteNtB7_10NoiseSuite19create_noisy_corpus0Bb_
FNDA:0,_RNCNvMs0_NtNtCscx2lCY9pHX3_9lens_core11adversarial11noise_suiteNtB7_10NoiseSuite19measure_memory_peak0Bb_
FNDA:0,_RNCNvMs0_NtNtCscx2lCY9pHX3_9lens_core11adversarial11noise_suiteNtB7_10NoiseSuite19test_noise_scenario0Bb_
FNDA:0,_RNCNvMs0_NtNtCscx2lCY9pHX3_9lens_core11adversarial11noise_suiteNtB7_10NoiseSuite20measure_memory_usage0Bb_
FNDA:0,_RNCNvMs0_NtNtCscx2lCY9pHX3_9lens_core11adversarial11noise_suiteNtB7_10NoiseSuite21measure_search_impact0Bb_
FNDA:0,_RNCNvMs0_NtNtCscx2lCY9pHX3_9lens_core11adversarial11noise_suiteNtB7_10NoiseSuite22cleanup_test_artifacts0Bb_
FNDA:0,_RNCNvMs0_NtNtCscx2lCY9pHX3_9lens_core11adversarial11noise_suiteNtB7_10NoiseSuite22create_large_csv_files0Bb_
FNDA:0,_RNCNvMs0_NtNtCscx2lCY9pHX3_9lens_core11adversarial11noise_suiteNtB7_10NoiseSuite22measure_search_quality0Bb_
FNDA:0,_RNCNvMs0_NtNtCscx2lCY9pHX3_9lens_core11adversarial11noise_suiteNtB7_10NoiseSuite24assess_memory_management0Bb_
FNDA:0,_RNCNvMs0_NtNtCscx2lCY9pHX3_9lens_core11adversarial11noise_suiteNtB7_10NoiseSuite24calculate_directory_size0Bb_
FNDA:0,_RNCNvMs0_NtNtCscx2lCY9pHX3_9lens_core11adversarial11noise_suiteNtB7_10NoiseSuite24create_binary_data_files0Bb_
FNDA:0,_RNCNvMs0_NtNtCscx2lCY9pHX3_9lens_core11adversarial11noise_suiteNtB7_10NoiseSuite24create_deep_nested_files0Bb_
FNDA:0,_RNCNvMs0_NtNtCscx2lCY9pHX3_9lens_core11adversarial11noise_suiteNtB7_10NoiseSuite24create_verbose_log_files0Bb_
FNDA:0,_RNCNvMs0_NtNtCscx2lCY9pHX3_9lens_core11adversarial11noise_suiteNtB7_10NoiseSuite24test_parsing_performance0Bb_
FNDA:0,_RNCNvMs0_NtNtCscx2lCY9pHX3_9lens_core11adversarial11noise_suiteNtB7_10NoiseSuite25create_massive_json_files0Bb_
FNDA:0,_RNCNvMs0_NtNtCscx2lCY9pHX3_9lens_core11adversarial11noise_suiteNtB7_10NoiseSuite26create_database_dump_files0Bb_
FNDA:0,_RNCNvMs0_NtNtCscx2lCY9pHX3_9lens_core11adversarial11noise_suiteNtB7_10NoiseSuite27analyze_parsing_performance0Bb_
FNDA:0,_RNCNvMs0_NtNtCscx2lCY9pHX3_9lens_core11adversarial11noise_suiteNtB7_10NoiseSuite27analyze_parsing_performances_0Bb_
FNDA:0,_RNCNvMs0_NtNtCscx2lCY9pHX3_9lens_core11adversarial11noise_suiteNtB7_10NoiseSuite28test_filtering_effectiveness0Bb_
FNDA:0,_RNCNvMs0_NtNtCscx2lCY9pHX3_9lens_core11adversarial11noise_suiteNtB7_10NoiseSuite7execute0Bb_
FNDA:0,_RNvMs0_NtNtCscx2lCY9pHX3_9lens_core11adversarial11noise_suiteNtB5_10NoiseSuite16copy_clean_files
FNDA:0,_RNvMs0_NtNtCscx2lCY9pHX3_9lens_core11adversarial11noise_suiteNtB5_10NoiseSuite17count_clean_files
FNDA:0,_RNvMs0_NtNtCscx2lCY9pHX3_9lens_core11adversarial11noise_suiteNtB5_10NoiseSuite17simulate_indexing
FNDA:0,_RNvMs0_NtNtCscx2lCY9pHX3_9lens_core11adversarial11noise_suiteNtB5_10NoiseSuite18establish_baseline
FNDA:0,_RNvMs0_NtNtCscx2lCY9pHX3_9lens_core11adversarial11noise_suiteNtB5_10NoiseSuite19create_noisy_corpus
FNDA:0,_RNvMs0_NtNtCscx2lCY9pHX3_9lens_core11adversarial11noise_suiteNtB5_10NoiseSuite19measure_memory_peak
FNDA:0,_RNvMs0_NtNtCscx2lCY9pHX3_9lens_core11adversarial11noise_suiteNtB5_10NoiseSuite19test_noise_scenario
FNDA:0,_RNvMs0_NtNtCscx2lCY9pHX3_9lens_core11adversarial11noise_suiteNtB5_10NoiseSuite20measure_memory_usage
FNDA:0,_RNvMs0_NtNtCscx2lCY9pHX3_9lens_core11adversarial11noise_suiteNtB5_10NoiseSuite21measure_search_impact
FNDA:0,_RNvMs0_NtNtCscx2lCY9pHX3_9lens_core11adversarial11noise_suiteNtB5_10NoiseSuite22cleanup_test_artifacts
FNDA:0,_RNvMs0_NtNtCscx2lCY9pHX3_9lens_core11adversarial11noise_suiteNtB5_10NoiseSuite22create_large_csv_files
FNDA:0,_RNvMs0_NtNtCscx2lCY9pHX3_9lens_core11adversarial11noise_suiteNtB5_10NoiseSuite22measure_search_quality
FNDA:0,_RNvMs0_NtNtCscx2lCY9pHX3_9lens_core11adversarial11noise_suiteNtB5_10NoiseSuite24assess_memory_management
FNDA:0,_RNvMs0_NtNtCscx2lCY9pHX3_9lens_core11adversarial11noise_suiteNtB5_10NoiseSuite24calculate_directory_size
FNDA:0,_RNvMs0_NtNtCscx2lCY9pHX3_9lens_core11adversarial11noise_suiteNtB5_10NoiseSuite24create_binary_data_files
FNDA:0,_RNvMs0_NtNtCscx2lCY9pHX3_9lens_core11adversarial11noise_suiteNtB5_10NoiseSuite24create_deep_nested_files
FNDA:0,_RNvMs0_NtNtCscx2lCY9pHX3_9lens_core11adversarial11noise_suiteNtB5_10NoiseSuite24create_verbose_log_files
FNDA:0,_RNvMs0_NtNtCscx2lCY9pHX3_9lens_core11adversarial11noise_suiteNtB5_10NoiseSuite24test_parsing_performance
FNDA:0,_RNvMs0_NtNtCscx2lCY9pHX3_9lens_core11adversarial11noise_suiteNtB5_10NoiseSuite25create_massive_json_files
FNDA:0,_RNvMs0_NtNtCscx2lCY9pHX3_9lens_core11adversarial11noise_suiteNtB5_10NoiseSuite26create_database_dump_files
FNDA:0,_RNvMs0_NtNtCscx2lCY9pHX3_9lens_core11adversarial11noise_suiteNtB5_10NoiseSuite26evaluate_content_filtering
FNDA:0,_RNvMs0_NtNtCscx2lCY9pHX3_9lens_core11adversarial11noise_suiteNtB5_10NoiseSuite27analyze_parsing_performance
FNDA:0,_RNvMs0_NtNtCscx2lCY9pHX3_9lens_core11adversarial11noise_suiteNtB5_10NoiseSuite28calculate_robustness_metrics
FNDA:0,_RNvMs0_NtNtCscx2lCY9pHX3_9lens_core11adversarial11noise_suiteNtB5_10NoiseSuite28test_filtering_effectiveness
FNDA:0,_RNvMs0_NtNtCscx2lCY9pHX3_9lens_core11adversarial11noise_suiteNtB5_10NoiseSuite7execute
FNDA:1,_RNvNtNtNtCscx2lCY9pHX3_9lens_core11adversarial11noise_suite5testss_26test_noise_scenario_naming
FNDA:1,_RNvNtNtNtCscx2lCY9pHX3_9lens_core11adversarial11noise_suite5testss_28test_noise_config_validation
FNDA:1,_RNvNtNtNtCscx2lCY9pHX3_9lens_core11adversarial11noise_suite5testss_32test_deep_nested_json_generation
FNDA:1,_RNCNvNtNtNtCscx2lCY9pHX3_9lens_core11adversarial11noise_suite5testss_28test_noise_config_validation0B9_
FNDA:2,_RNvMs0_NtNtCscx2lCY9pHX3_9lens_core11adversarial11noise_suiteNtB5_10NoiseSuite17get_scenario_name
FNDA:1,_RNvMs0_NtNtCscx2lCY9pHX3_9lens_core11adversarial11noise_suiteNtB5_10NoiseSuite27generate_deeply_nested_json
FNDA:2,_RNvMs0_NtNtCscx2lCY9pHX3_9lens_core11adversarial11noise_suiteNtB5_10NoiseSuite3new
FNDA:85,_RNvNvMs0_NtNtCscx2lCY9pHX3_9lens_core11adversarial11noise_suiteNtB7_10NoiseSuite27generate_deeply_nested_json14generate_level
FNDA:4,_RNvXNtNtCscx2lCY9pHX3_9lens_core11adversarial11noise_suiteNtB2_15NoiseTestConfigNtNtCs66KPHxksi63_4core7default7Default7default
FNDA:3,_RNvXs_NtNtCscx2lCY9pHX3_9lens_core11adversarial11noise_suiteNtB4_11NoiseResultNtNtCs66KPHxksi63_4core7default7Default7default
FNF:60
FNH:10
DA:64,4
DA:65,4
DA:66,4
DA:67,4
DA:68,4
DA:69,4
DA:70,4
DA:71,4
DA:72,4
DA:73,4
DA:74,4
DA:75,4
DA:76,4
DA:77,4
DA:78,4
DA:79,4
DA:80,4
DA:81,4
DA:82,4
DA:83,4
DA:84,4
DA:85,4
DA:86,4
DA:87,4
DA:88,4
DA:89,4
DA:90,4
DA:91,4
DA:92,4
DA:105,3
DA:106,3
DA:107,3
DA:108,3
DA:109,3
DA:110,3
DA:111,3
DA:112,3
DA:113,3
DA:181,2
DA:182,2
DA:183,2
DA:184,2
DA:185,2
DA:186,2
DA:189,0
DA:190,0
DA:193,0
DA:195,0
DA:198,0
DA:199,0
DA:200,0
DA:202,0
DA:203,0
DA:204,0
DA:205,0
DA:206,0
DA:207,0
DA:213,0
DA:216,0
DA:219,0
DA:222,0
DA:224,0
DA:225,0
DA:226,0
DA:227,0
DA:228,0
DA:229,0
DA:230,0
DA:232,0
DA:234,0
DA:235,0
DA:236,0
DA:238,0
DA:239,0
DA:241,0
DA:242,0
DA:245,0
DA:246,0
DA:247,0
DA:250,0
DA:251,0
DA:253,0
DA:254,0
DA:255,0
DA:256,0
DA:257,0
DA:258,0
DA:259,0
DA:261,0
DA:264,0
DA:265,0
DA:267,0
DA:268,0
DA:269,0
DA:272,0
DA:275,0
DA:278,0
DA:279,0
DA:280,0
DA:281,0
DA:282,0
DA:284,0
DA:285,0
DA:287,0
DA:288,0
DA:291,0
DA:292,0
DA:297,0
DA:300,0
DA:303,0
DA:305,0
DA:306,0
DA:307,0
DA:308,0
DA:309,0
DA:310,0
DA:311,0
DA:312,0
DA:313,0
DA:314,0
DA:315,0
DA:316,0
DA:318,0
DA:319,0
DA:321,0
DA:322,0
DA:323,0
DA:325,0
DA:326,0
DA:328,0
DA:329,0
DA:331,0
DA:332,0
DA:334,0
DA:335,0
DA:337,0
DA:338,0
DA:341,0
DA:343,0
DA:344,0
DA:345,0
DA:347,0
DA:348,0
DA:349,0
DA:351,0
DA:352,0
DA:353,0
DA:354,0
DA:355,0
DA:358,0
DA:359,0
DA:361,0
DA:362,0
DA:363,0
DA:364,0
DA:365,0
DA:366,0
DA:367,0
DA:368,0
DA:369,0
DA:370,0
DA:371,0
DA:372,0
DA:373,0
DA:374,0
DA:375,0
DA:376,0
DA:379,0
DA:380,0
DA:381,0
DA:382,0
DA:384,0
DA:385,0
DA:387,0
DA:388,0
DA:389,0
DA:392,0
DA:393,0
DA:395,0
DA:396,0
DA:398,0
DA:399,0
DA:400,0
DA:402,0
DA:403,0
DA:405,0
DA:406,0
DA:409,0
DA:412,0
DA:413,0
DA:414,0
DA:415,0
DA:416,0
DA:417,0
DA:418,0
DA:419,0
DA:420,0
DA:421,0
DA:422,0
DA:423,0
DA:424,0
DA:425,0
DA:426,0
DA:427,0
DA:428,0
DA:430,0
DA:431,0
DA:433,0
DA:434,0
DA:435,0
DA:438,0
DA:439,0
DA:441,0
DA:442,0
DA:444,0
DA:445,0
DA:446,0
DA:448,0
DA:449,0
DA:450,0
DA:452,0
DA:453,0
DA:454,0
DA:455,0
DA:457,0
DA:458,0
DA:459,0
DA:460,0
DA:461,0
DA:462,0
DA:463,0
DA:464,0
DA:465,0
DA:466,0
DA:467,0
DA:468,0
DA:469,0
DA:470,0
DA:471,0
DA:472,0
DA:473,0
DA:474,0
DA:475,0
DA:476,0
DA:477,0
DA:478,0
DA:479,0
DA:480,0
DA:481,0
DA:483,0
DA:484,0
DA:486,0
DA:487,0
DA:488,0
DA:491,0
DA:492,0
DA:494,0
DA:495,0
DA:497,0
DA:498,0
DA:499,0
DA:501,0
DA:502,0
DA:503,0
DA:505,0
DA:506,0
DA:509,0
DA:510,0
DA:511,0
DA:512,0
DA:514,0
DA:515,0
DA:517,0
DA:519,0
DA:520,0
DA:521,0
DA:524,0
DA:527,0
DA:529,0
DA:530,0
DA:531,0
DA:532,0
DA:533,0
DA:534,0
DA:535,0
DA:538,0
DA:539,0
DA:540,0
DA:541,0
DA:542,0
DA:545,0
DA:546,0
DA:549,0
DA:551,0
DA:552,0
DA:554,0
DA:555,0
DA:556,0
DA:559,0
DA:560,0
DA:562,0
DA:563,0
DA:565,0
DA:566,0
DA:567,0
DA:569,0
DA:570,0
DA:571,0
DA:573,0
DA:575,0
DA:576,0
DA:577,0
DA:579,0
DA:580,0
DA:582,0
DA:583,0
DA:584,0
DA:587,0
DA:588,0
DA:590,0
DA:591,0
DA:593,0
DA:594,0
DA:595,0
DA:597,0
DA:598,0
DA:601,0
DA:603,0
DA:604,0
DA:606,0
DA:607,0
DA:608,0
DA:610,0
DA:611,0
DA:613,0
DA:614,0
DA:616,1
DA:617,85
DA:618,85
DA:619,64
DA:620,21
DA:622,21
DA:623,21
DA:625,42
DA:626,42
DA:627,42
DA:629,42
DA:630,21
DA:631,21
DA:632,21
DA:634,21
DA:635,84
DA:636,63
DA:637,63
DA:638,63
DA:639,63
DA:640,42
DA:641,42
DA:642,63
DA:644,21
DA:645,21
DA:648,42
DA:649,21
DA:650,21
DA:651,42
DA:654,21
DA:655,21
DA:657,21
DA:658,85
DA:660,1
DA:661,1
DA:663,2
DA:664,2
DA:665,1
DA:666,1
DA:667,0
DA:668,0
DA:669,0
DA:670,0
DA:672,2
DA:674,0
DA:675,0
DA:676,0
DA:678,0
DA:679,0
DA:680,0
DA:681,0
DA:682,0
DA:683,0
DA:684,0
DA:685,0
DA:688,0
DA:689,0
DA:691,0
DA:692,0
DA:693,0
DA:695,0
DA:696,0
DA:697,0
DA:698,0
DA:701,0
DA:702,0
DA:704,0
DA:705,0
DA:706,0
DA:708,0
DA:709,0
DA:710,0
DA:711,0
DA:714,0
DA:715,0
DA:717,0
DA:718,0
DA:719,0
DA:720,0
DA:722,0
DA:723,0
DA:724,0
DA:726,0
DA:727,0
DA:728,0
DA:730,0
DA:732,0
DA:733,0
DA:734,0
DA:736,0
DA:738,0
DA:739,0
DA:741,0
DA:743,0
DA:744,0
DA:746,0
DA:747,0
DA:748,0
DA:750,0
DA:752,0
DA:753,0
DA:755,0
DA:756,0
DA:757,0
DA:758,0
DA:760,0
DA:761,0
DA:762,0
DA:764,0
DA:765,0
DA:766,0
DA:768,0
DA:769,0
DA:770,0
DA:772,0
DA:773,0
DA:774,0
DA:776,0
DA:777,0
DA:778,0
DA:779,0
DA:780,0
DA:781,0
DA:782,0
DA:783,0
DA:785,0
DA:786,0
DA:787,0
DA:788,0
DA:790,0
DA:791,0
DA:792,0
DA:793,0
DA:794,0
DA:795,0
DA:796,0
DA:797,0
DA:798,0
DA:800,0
DA:801,0
DA:803,0
DA:804,0
DA:805,0
DA:808,0
DA:809,0
DA:810,0
DA:811,0
DA:812,0
DA:814,0
DA:816,0
DA:817,0
DA:818,0
DA:819,0
DA:821,0
DA:822,0
DA:823,0
DA:825,0
DA:826,0
DA:827,0
DA:828,0
DA:829,0
DA:830,0
DA:831,0
DA:832,0
DA:834,0
DA:835,0
DA:836,0
DA:837,0
DA:838,0
DA:839,0
DA:840,0
DA:848,1
DA:849,1
DA:851,1
DA:852,1
DA:854,1
DA:855,1
DA:856,1
DA:859,1
DA:860,1
DA:861,1
DA:863,1
DA:864,1
DA:865,1
DA:866,1
DA:867,1
DA:870,1
DA:871,1
DA:872,1
DA:873,1
DA:874,1
DA:875,1
DA:876,1
DA:877,1
BRF:0
BRH:0
LF:557
LH:109
end_of_record
SF:/home/nathan/Projects/lens/src/adversarial/stress_harness.rs
FN:410,_RNCNCNvMs_NtNtCscx2lCY9pHX3_9lens_core11adversarial14stress_harnessNtB8_13StressHarness14test_io_stress00Bc_
FN:441,_RNCNCNvMs_NtNtCscx2lCY9pHX3_9lens_core11adversarial14stress_harnessNtB8_13StressHarness14test_io_stress0s_0Bc_
FN:327,_RNCNCNvMs_NtNtCscx2lCY9pHX3_9lens_core11adversarial14stress_harnessNtB8_13StressHarness15test_cpu_stress00Bc_
FN:372,_RNCNCNvMs_NtNtCscx2lCY9pHX3_9lens_core11adversarial14stress_harnessNtB8_13StressHarness15test_cpu_stress0s0_0Bc_
FN:353,_RNCNCNvMs_NtNtCscx2lCY9pHX3_9lens_core11adversarial14stress_harnessNtB8_13StressHarness15test_cpu_stress0s_0Bc_
FN:206,_RNCNCNvMs_NtNtCscx2lCY9pHX3_9lens_core11adversarial14stress_harnessNtB8_13StressHarness27test_concurrent_performance00Bc_
FN:249,_RNCNCNvMs_NtNtCscx2lCY9pHX3_9lens_core11adversarial14stress_harnessNtB8_13StressHarness27test_concurrent_performance0s0_0Bc_
FN:222,_RNCNCNvMs_NtNtCscx2lCY9pHX3_9lens_core11adversarial14stress_harnessNtB8_13StressHarness27test_concurrent_performance0s_0Bc_
FN:394,_RNCNvMs_NtNtCscx2lCY9pHX3_9lens_core11adversarial14stress_harnessNtB6_13StressHarness14test_io_stress0Ba_
FN:317,_RNCNvMs_NtNtCscx2lCY9pHX3_9lens_core11adversarial14stress_harnessNtB6_13StressHarness15test_cpu_stress0Ba_
FN:616,_RNCNvMs_NtNtCscx2lCY9pHX3_9lens_core11adversarial14stress_harnessNtB6_13StressHarness17wait_for_recovery0Ba_
FN:177,_RNCNvMs_NtNtCscx2lCY9pHX3_9lens_core11adversarial14stress_harnessNtB6_13StressHarness18establish_baseline0Ba_
FN:266,_RNCNvMs_NtNtCscx2lCY9pHX3_9lens_core11adversarial14stress_harnessNtB6_13StressHarness18test_memory_stress0Ba_
FN:131,_RNCNvMs_NtNtCscx2lCY9pHX3_9lens_core11adversarial14stress_harnessNtB6_13StressHarness19execute_stress_test0Ba_
FN:553,_RNCNvMs_NtNtCscx2lCY9pHX3_9lens_core11adversarial14stress_harnessNtB6_13StressHarness20measure_baseline_cpu0Ba_
FN:575,_RNCNvMs_NtNtCscx2lCY9pHX3_9lens_core11adversarial14stress_harnessNtB6_13StressHarness22measure_current_memory0Ba_
FN:549,_RNCNvMs_NtNtCscx2lCY9pHX3_9lens_core11adversarial14stress_harnessNtB6_13StressHarness23measure_baseline_memory0Ba_
FN:586,_RNCNvMs_NtNtCscx2lCY9pHX3_9lens_core11adversarial14stress_harnessNtB6_13StressHarness23measure_cpu_utilization0Ba_
FN:596,_RNCNvMs_NtNtCscx2lCY9pHX3_9lens_core11adversarial14stress_harnessNtB6_13StressHarness23simulate_cpu_exhaustion0Ba_
FN:611,_RNCNvMs_NtNtCscx2lCY9pHX3_9lens_core11adversarial14stress_harnessNtB6_13StressHarness24induce_controlled_stress0Ba_
FN:562,_RNCNvMs_NtNtCscx2lCY9pHX3_9lens_core11adversarial14stress_harnessNtB6_13StressHarness24simulate_query_execution0Ba_
FN:468,_RNCNvMs_NtNtCscx2lCY9pHX3_9lens_core11adversarial14stress_harnessNtB6_13StressHarness24test_resource_exhaustion0Ba_
FN:606,_RNCNvMs_NtNtCscx2lCY9pHX3_9lens_core11adversarial14stress_harnessNtB6_13StressHarness25test_resource_reclamation0Ba_
FN:591,_RNCNvMs_NtNtCscx2lCY9pHX3_9lens_core11adversarial14stress_harnessNtB6_13StressHarness26simulate_memory_exhaustion0Ba_
FN:501,_RNCNvMs_NtNtCscx2lCY9pHX3_9lens_core11adversarial14stress_harnessNtB6_13StressHarness26test_recovery_capabilities0Ba_
FN:601,_RNCNvMs_NtNtCscx2lCY9pHX3_9lens_core11adversarial14stress_harnessNtB6_13StressHarness27test_backpressure_mechanism0Ba_
FN:192,_RNCNvMs_NtNtCscx2lCY9pHX3_9lens_core11adversarial14stress_harnessNtB6_13StressHarness27test_concurrent_performance0Ba_
FN:621,_RNCNvMs_NtNtCscx2lCY9pHX3_9lens_core11adversarial14stress_harnessNtB6_13StressHarness30verify_performance_restoration0Ba_
FN:580,_RNCNvMs_NtNtCscx2lCY9pHX3_9lens_core11adversarial14stress_harnessNtB6_13StressHarness37test_memory_operations_under_pressure0Ba_
FN:394,_RNvMs_NtNtCscx2lCY9pHX3_9lens_core11adversarial14stress_harnessNtB4_13StressHarness14test_io_stress
FN:317,_RNvMs_NtNtCscx2lCY9pHX3_9lens_core11adversarial14stress_harnessNtB4_13StressHarness15test_cpu_stress
FN:616,_RNvMs_NtNtCscx2lCY9pHX3_9lens_core11adversarial14stress_harnessNtB4_13StressHarness17wait_for_recovery
FN:177,_RNvMs_NtNtCscx2lCY9pHX3_9lens_core11adversarial14stress_harnessNtB4_13StressHarness18establish_baseline
FN:266,_RNvMs_NtNtCscx2lCY9pHX3_9lens_core11adversarial14stress_harnessNtB4_13StressHarness18test_memory_stress
FN:131,_RNvMs_NtNtCscx2lCY9pHX3_9lens_core11adversarial14stress_harnessNtB4_13StressHarness19execute_stress_test
FN:553,_RNvMs_NtNtCscx2lCY9pHX3_9lens_core11adversarial14stress_harnessNtB4_13StressHarness20measure_baseline_cpu
FN:575,_RNvMs_NtNtCscx2lCY9pHX3_9lens_core11adversarial14stress_harnessNtB4_13StressHarness22measure_current_memory
FN:549,_RNvMs_NtNtCscx2lCY9pHX3_9lens_core11adversarial14stress_harnessNtB4_13StressHarness23measure_baseline_memory
FN:586,_RNvMs_NtNtCscx2lCY9pHX3_9lens_core11adversarial14stress_harnessNtB4_13StressHarness23measure_cpu_utilization
FN:596,_RNvMs_NtNtCscx2lCY9pHX3_9lens_core11adversarial14stress_harnessNtB4_13StressHarness23simulate_cpu_exhaustion
FN:611,_RNvMs_NtNtCscx2lCY9pHX3_9lens_core11adversarial14stress_harnessNtB4_13StressHarness24induce_controlled_stress
FN:562,_RNvMs_NtNtCscx2lCY9pHX3_9lens_core11adversarial14stress_harnessNtB4_13StressHarness24simulate_query_execution
FN:468,_RNvMs_NtNtCscx2lCY9pHX3_9lens_core11adversarial14stress_harnessNtB4_13StressHarness24test_resource_exhaustion
FN:606,_RNvMs_NtNtCscx2lCY9pHX3_9lens_core11adversarial14stress_harnessNtB4_13StressHarness25test_resource_reclamation
FN:591,_RNvMs_NtNtCscx2lCY9pHX3_9lens_core11adversarial14stress_harnessNtB4_13StressHarness26simulate_memory_exhaustion
FN:501,_RNvMs_NtNtCscx2lCY9pHX3_9lens_core11adversarial14stress_harnessNtB4_13StressHarness26test_recovery_capabilities
FN:601,_RNvMs_NtNtCscx2lCY9pHX3_9lens_core11adversarial14stress_harnessNtB4_13StressHarness27test_backpressure_mechanism
FN:192,_RNvMs_NtNtCscx2lCY9pHX3_9lens_core11adversarial14stress_harnessNtB4_13StressHarness27test_concurrent_performance
FN:621,_RNvMs_NtNtCscx2lCY9pHX3_9lens_core11adversarial14stress_harnessNtB4_13StressHarness30verify_performance_restoration
FN:580,_RNvMs_NtNtCscx2lCY9pHX3_9lens_core11adversarial14stress_harnessNtB4_13StressHarness37test_memory_operations_under_pressure
FN:557,_RNCNvMs_NtNtCscx2lCY9pHX3_9lens_core11adversarial14stress_harnessNtB6_13StressHarness21simulate_single_query0Ba_
FN:536,_RNCNvMs_NtNtCscx2lCY9pHX3_9lens_core11adversarial14stress_harnessNtB6_13StressHarness24measure_baseline_latency0Ba_
FN:125,_RNvMs_NtNtCscx2lCY9pHX3_9lens_core11adversarial14stress_harnessNtB4_13StressHarness11with_config
FN:557,_RNvMs_NtNtCscx2lCY9pHX3_9lens_core11adversarial14stress_harnessNtB4_13StressHarness21simulate_single_query
FN:536,_RNvMs_NtNtCscx2lCY9pHX3_9lens_core11adversarial14stress_harnessNtB4_13StressHarness24measure_baseline_latency
FN:117,_RNvMs_NtNtCscx2lCY9pHX3_9lens_core11adversarial14stress_harnessNtB4_13StressHarness3new
FN:33,_RNvXNtNtCscx2lCY9pHX3_9lens_core11adversarial14stress_harnessNtB2_12StressConfigNtNtCs66KPHxksi63_4core7default7Default7default
FN:679,_RNCNCNvNtNtNtCscx2lCY9pHX3_9lens_core11adversarial14stress_harness5testss_33test_baseline_latency_measurement00Bb_
FN:674,_RNCNvNtNtNtCscx2lCY9pHX3_9lens_core11adversarial14stress_harness5testss_33test_baseline_latency_measurement0B9_
FN:640,_RNvNtNtNtCscx2lCY9pHX3_9lens_core11adversarial14stress_harness5testss_27test_stress_config_creation
FN:656,_RNvNtNtNtCscx2lCY9pHX3_9lens_core11adversarial14stress_harness5testss_31test_stress_harness_with_config
FN:674,_RNvNtNtNtCscx2lCY9pHX3_9lens_core11adversarial14stress_harness5testss_33test_baseline_latency_measurement
FN:649,_RNvNtNtNtCscx2lCY9pHX3_9lens_core11adversarial14stress_harness5testss_34test_stress_harness_initialization
FNDA:0,_RNCNCNvMs_NtNtCscx2lCY9pHX3_9lens_core11adversarial14stress_harnessNtB8_13StressHarness14test_io_stress00Bc_
FNDA:0,_RNCNCNvMs_NtNtCscx2lCY9pHX3_9lens_core11adversarial14stress_harnessNtB8_13StressHarness14test_io_stress0s_0Bc_
FNDA:0,_RNCNCNvMs_NtNtCscx2lCY9pHX3_9lens_core11adversarial14stress_harnessNtB8_13StressHarness15test_cpu_stress00Bc_
FNDA:0,_RNCNCNvMs_NtNtCscx2lCY9pHX3_9lens_core11adversarial14stress_harnessNtB8_13StressHarness15test_cpu_stress0s0_0Bc_
FNDA:0,_RNCNCNvMs_NtNtCscx2lCY9pHX3_9lens_core11adversarial14stress_harnessNtB8_13StressHarness15test_cpu_stress0s_0Bc_
FNDA:0,_RNCNCNvMs_NtNtCscx2lCY9pHX3_9lens_core11adversarial14stress_harnessNtB8_13StressHarness27test_concurrent_performance00Bc_
FNDA:0,_RNCNCNvMs_NtNtCscx2lCY9pHX3_9lens_core11adversarial14stress_harnessNtB8_13StressHarness27test_concurrent_performance0s0_0Bc_
FNDA:0,_RNCNCNvMs_NtNtCscx2lCY9pHX3_9lens_core11adversarial14stress_harnessNtB8_13StressHarness27test_concurrent_performance0s_0Bc_
FNDA:0,_RNCNvMs_NtNtCscx2lCY9pHX3_9lens_core11adversarial14stress_harnessNtB6_13StressHarness14test_io_stress0Ba_
FNDA:0,_RNCNvMs_NtNtCscx2lCY9pHX3_9lens_core11adversarial14stress_harnessNtB6_13StressHarness15test_cpu_stress0Ba_
FNDA:0,_RNCNvMs_NtNtCscx2lCY9pHX3_9lens_core11adversarial14stress_harnessNtB6_13StressHarness17wait_for_recovery0Ba_
FNDA:0,_RNCNvMs_NtNtCscx2lCY9pHX3_9lens_core11adversarial14stress_harnessNtB6_13StressHarness18establish_baseline0Ba_
FNDA:0,_RNCNvMs_NtNtCscx2lCY9pHX3_9lens_core11adversarial14stress_harnessNtB6_13StressHarness18test_memory_stress0Ba_
FNDA:0,_RNCNvMs_NtNtCscx2lCY9pHX3_9lens_core11adversarial14stress_harnessNtB6_13StressHarness19execute_stress_test0Ba_
FNDA:0,_RNCNvMs_NtNtCscx2lCY9pHX3_9lens_core11adversarial14stress_harnessNtB6_13StressHarness20measure_baseline_cpu0Ba_
FNDA:0,_RNCNvMs_NtNtCscx2lCY9pHX3_9lens_core11adversarial14stress_harnessNtB6_13StressHarness22measure_current_memory0Ba_
FNDA:0,_RNCNvMs_NtNtCscx2lCY9pHX3_9lens_core11adversarial14stress_harnessNtB6_13StressHarness23measure_baseline_memory0Ba_
FNDA:0,_RNCNvMs_NtNtCscx2lCY9pHX3_9lens_core11adversarial14stress_harnessNtB6_13StressHarness23measure_cpu_utilization0Ba_
FNDA:0,_RNCNvMs_NtNtCscx2lCY9pHX3_9lens_core11adversarial14stress_harnessNtB6_13StressHarness23simulate_cpu_exhaustion0Ba_
FNDA:0,_RNCNvMs_NtNtCscx2lCY9pHX3_9lens_core11adversarial14stress_harnessNtB6_13StressHarness24induce_controlled_stress0Ba_
FNDA:0,_RNCNvMs_NtNtCscx2lCY9pHX3_9lens_core11adversarial14stress_harnessNtB6_13StressHarness24simulate_query_execution0Ba_
FNDA:0,_RNCNvMs_NtNtCscx2lCY9pHX3_9lens_core11adversarial14stress_harnessNtB6_13StressHarness24test_resource_exhaustion0Ba_
FNDA:0,_RNCNvMs_NtNtCscx2lCY9pHX3_9lens_core11adversarial14stress_harnessNtB6_13StressHarness25test_resource_reclamation0Ba_
FNDA:0,_RNCNvMs_NtNtCscx2lCY9pHX3_9lens_core11adversarial14stress_harnessNtB6_13StressHarness26simulate_memory_exhaustion0Ba_
FNDA:0,_RNCNvMs_NtNtCscx2lCY9pHX3_9lens_core11adversarial14stress_harnessNtB6_13StressHarness26test_recovery_capabilities0Ba_
FNDA:0,_RNCNvMs_NtNtCscx2lCY9pHX3_9lens_core11adversarial14stress_harnessNtB6_13StressHarness27test_backpressure_mechanism0Ba_
FNDA:0,_RNCNvMs_NtNtCscx2lCY9pHX3_9lens_core11adversarial14stress_harnessNtB6_13StressHarness27test_concurrent_performance0Ba_
FNDA:0,_RNCNvMs_NtNtCscx2lCY9pHX3_9lens_core11adversarial14stress_harnessNtB6_13StressHarness30verify_performance_restoration0Ba_
FNDA:0,_RNCNvMs_NtNtCscx2lCY9pHX3_9lens_core11adversarial14stress_harnessNtB6_13StressHarness37test_memory_operations_under_pressure0Ba_
FNDA:0,_RNvMs_NtNtCscx2lCY9pHX3_9lens_core11adversarial14stress_harnessNtB4_13StressHarness14test_io_stress
FNDA:0,_RNvMs_NtNtCscx2lCY9pHX3_9lens_core11adversarial14stress_harnessNtB4_13StressHarness15test_cpu_stress
FNDA:0,_RNvMs_NtNtCscx2lCY9pHX3_9lens_core11adversarial14stress_harnessNtB4_13StressHarness17wait_for_recovery
FNDA:0,_RNvMs_NtNtCscx2lCY9pHX3_9lens_core11adversarial14stress_harnessNtB4_13StressHarness18establish_baseline
FNDA:0,_RNvMs_NtNtCscx2lCY9pHX3_9lens_core11adversarial14stress_harnessNtB4_13StressHarness18test_memory_stress
FNDA:0,_RNvMs_NtNtCscx2lCY9pHX3_9lens_core11adversarial14stress_harnessNtB4_13StressHarness19execute_stress_test
FNDA:0,_RNvMs_NtNtCscx2lCY9pHX3_9lens_core11adversarial14stress_harnessNtB4_13StressHarness20measure_baseline_cpu
FNDA:0,_RNvMs_NtNtCscx2lCY9pHX3_9lens_core11adversarial14stress_harnessNtB4_13StressHarness22measure_current_memory
FNDA:0,_RNvMs_NtNtCscx2lCY9pHX3_9lens_core11adversarial14stress_harnessNtB4_13StressHarness23measure_baseline_memory
FNDA:0,_RNvMs_NtNtCscx2lCY9pHX3_9lens_core11adversarial14stress_harnessNtB4_13StressHarness23measure_cpu_utilization
FNDA:0,_RNvMs_NtNtCscx2lCY9pHX3_9lens_core11adversarial14stress_harnessNtB4_13StressHarness23simulate_cpu_exhaustion
FNDA:0,_RNvMs_NtNtCscx2lCY9pHX3_9lens_core11adversarial14stress_harnessNtB4_13StressHarness24induce_controlled_stress
FNDA:0,_RNvMs_NtNtCscx2lCY9pHX3_9lens_core11adversarial14stress_harnessNtB4_13StressHarness24simulate_query_execution
FNDA:0,_RNvMs_NtNtCscx2lCY9pHX3_9lens_core11adversarial14stress_harnessNtB4_13StressHarness24test_resource_exhaustion
FNDA:0,_RNvMs_NtNtCscx2lCY9pHX3_9lens_core11adversarial14stress_harnessNtB4_13StressHarness25test_resource_reclamation
FNDA:0,_RNvMs_NtNtCscx2lCY9pHX3_9lens_core11adversarial14stress_harnessNtB4_13StressHarness26simulate_memory_exhaustion
FNDA:0,_RNvMs_NtNtCscx2lCY9pHX3_9lens_core11adversarial14stress_harnessNtB4_13StressHarness26test_recovery_capabilities
FNDA:0,_RNvMs_NtNtCscx2lCY9pHX3_9lens_core11adversarial14stress_harnessNtB4_13StressHarness27test_backpressure_mechanism
FNDA:0,_RNvMs_NtNtCscx2lCY9pHX3_9lens_core11adversarial14stress_harnessNtB4_13StressHarness27test_concurrent_performance
FNDA:0,_RNvMs_NtNtCscx2lCY9pHX3_9lens_core11adversarial14stress_harnessNtB4_13StressHarness30verify_performance_restoration
FNDA:0,_RNvMs_NtNtCscx2lCY9pHX3_9lens_core11adversarial14stress_harnessNtB4_13StressHarness37test_memory_operations_under_pressure
FNDA:20,_RNCNvMs_NtNtCscx2lCY9pHX3_9lens_core11adversarial14stress_harnessNtB6_13StressHarness21simulate_single_query0Ba_
FNDA:1,_RNCNvMs_NtNtCscx2lCY9pHX3_9lens_core11adversarial14stress_harnessNtB6_13StressHarness24measure_baseline_latency0Ba_
FNDA:1,_RNvMs_NtNtCscx2lCY9pHX3_9lens_core11adversarial14stress_harnessNtB4_13StressHarness11with_config
FNDA:20,_RNvMs_NtNtCscx2lCY9pHX3_9lens_core11adversarial14stress_harnessNtB4_13StressHarness21simulate_single_query
FNDA:1,_RNvMs_NtNtCscx2lCY9pHX3_9lens_core11adversarial14stress_harnessNtB4_13StressHarness24measure_baseline_latency
FNDA:3,_RNvMs_NtNtCscx2lCY9pHX3_9lens_core11adversarial14stress_harnessNtB4_13StressHarness3new
FNDA:4,_RNvXNtNtCscx2lCY9pHX3_9lens_core11adversarial14stress_harnessNtB2_12StressConfigNtNtCs66KPHxksi63_4core7default7Default7default
FNDA:20,_RNCNCNvNtNtNtCscx2lCY9pHX3_9lens_core11adversarial14stress_harness5testss_33test_baseline_latency_measurement00Bb_
FNDA:1,_RNCNvNtNtNtCscx2lCY9pHX3_9lens_core11adversarial14stress_harness5testss_33test_baseline_latency_measurement0B9_
FNDA:1,_RNvNtNtNtCscx2lCY9pHX3_9lens_core11adversarial14stress_harness5testss_27test_stress_config_creation
FNDA:1,_RNvNtNtNtCscx2lCY9pHX3_9lens_core11adversarial14stress_harness5testss_31test_stress_harness_with_config
FNDA:1,_RNvNtNtNtCscx2lCY9pHX3_9lens_core11adversarial14stress_harness5testss_33test_baseline_latency_measurement
FNDA:1,_RNvNtNtNtCscx2lCY9pHX3_9lens_core11adversarial14stress_harness5testss_34test_stress_harness_initialization
FNF:63
FNH:13
DA:33,4
DA:34,4
DA:35,4
DA:36,4
DA:37,4
DA:38,4
DA:39,4
DA:40,4
DA:41,4
DA:42,4
DA:117,3
DA:118,3
DA:119,3
DA:120,3
DA:121,3
DA:122,3
DA:123,3
DA:125,1
DA:126,1
DA:127,1
DA:128,1
DA:131,0
DA:132,0
DA:134,0
DA:137,0
DA:138,0
DA:141,0
DA:142,0
DA:145,0
DA:146,0
DA:149,0
DA:150,0
DA:153,0
DA:154,0
DA:157,0
DA:158,0
DA:161,0
DA:162,0
DA:164,0
DA:165,0
DA:167,0
DA:168,0
DA:169,0
DA:170,0
DA:171,0
DA:172,0
DA:173,0
DA:174,0
DA:175,0
DA:177,0
DA:179,0
DA:180,0
DA:181,0
DA:183,0
DA:185,0
DA:186,0
DA:187,0
DA:188,0
DA:189,0
DA:190,0
DA:192,0
DA:193,0
DA:194,0
DA:195,0
DA:196,0
DA:197,0
DA:198,0
DA:199,0
DA:202,0
DA:203,0
DA:204,0
DA:206,0
DA:207,0
DA:208,0
DA:211,0
DA:212,0
DA:214,0
DA:215,0
DA:217,0
DA:221,0
DA:222,0
DA:223,0
DA:224,0
DA:225,0
DA:228,0
DA:229,0
DA:230,0
DA:231,0
DA:232,0
DA:233,0
DA:234,0
DA:235,0
DA:236,0
DA:237,0
DA:238,0
DA:239,0
DA:243,0
DA:244,0
DA:245,0
DA:246,0
DA:249,0
DA:250,0
DA:251,0
DA:254,0
DA:256,0
DA:257,0
DA:258,0
DA:259,0
DA:260,0
DA:261,0
DA:262,0
DA:263,0
DA:264,0
DA:266,0
DA:267,0
DA:270,0
DA:271,0
DA:272,0
DA:274,0
DA:277,0
DA:278,0
DA:279,0
DA:282,0
DA:283,0
DA:284,0
DA:287,0
DA:290,0
DA:293,0
DA:294,0
DA:296,0
DA:299,0
DA:300,0
DA:301,0
DA:303,0
DA:305,0
DA:306,0
DA:308,0
DA:309,0
DA:310,0
DA:311,0
DA:312,0
DA:313,0
DA:314,0
DA:315,0
DA:317,0
DA:318,0
DA:320,0
DA:321,0
DA:323,0
DA:326,0
DA:327,0
DA:328,0
DA:329,0
DA:330,0
DA:332,0
DA:334,0
DA:335,0
DA:336,0
DA:337,0
DA:340,0
DA:341,0
DA:342,0
DA:345,0
DA:346,0
DA:348,0
DA:352,0
DA:353,0
DA:354,0
DA:355,0
DA:357,0
DA:358,0
DA:359,0
DA:360,0
DA:363,0
DA:364,0
DA:367,0
DA:368,0
DA:371,0
DA:372,0
DA:373,0
DA:374,0
DA:376,0
DA:377,0
DA:378,0
DA:381,0
DA:382,0
DA:383,0
DA:385,0
DA:386,0
DA:387,0
DA:388,0
DA:389,0
DA:390,0
DA:391,0
DA:392,0
DA:394,0
DA:395,0
DA:397,0
DA:398,0
DA:400,0
DA:401,0
DA:402,0
DA:404,0
DA:405,0
DA:408,0
DA:409,0
DA:410,0
DA:411,0
DA:414,0
DA:415,0
DA:416,0
DA:419,0
DA:420,0
DA:421,0
DA:424,0
DA:426,0
DA:427,0
DA:429,0
DA:433,0
DA:435,0
DA:436,0
DA:437,0
DA:440,0
DA:441,0
DA:442,0
DA:443,0
DA:444,0
DA:445,0
DA:447,0
DA:448,0
DA:449,0
DA:452,0
DA:453,0
DA:454,0
DA:457,0
DA:459,0
DA:460,0
DA:461,0
DA:462,0
DA:463,0
DA:464,0
DA:465,0
DA:466,0
DA:468,0
DA:469,0
DA:472,0
DA:475,0
DA:478,0
DA:481,0
DA:484,0
DA:487,0
DA:489,0
DA:490,0
DA:492,0
DA:493,0
DA:494,0
DA:495,0
DA:496,0
DA:497,0
DA:498,0
DA:499,0
DA:501,0
DA:502,0
DA:505,0
DA:508,0
DA:511,0
DA:512,0
DA:513,0
DA:516,0
DA:517,0
DA:518,0
DA:521,0
DA:522,0
DA:523,0
DA:526,0
DA:527,0
DA:529,0
DA:530,0
DA:532,0
DA:536,1
DA:537,1
DA:539,21
DA:540,20
DA:541,20
DA:542,20
DA:543,20
DA:546,1
DA:547,1
DA:549,0
DA:550,0
DA:551,0
DA:553,0
DA:554,0
DA:555,0
DA:557,20
DA:558,20
DA:559,20
DA:560,20
DA:562,0
DA:564,0
DA:565,0
DA:568,0
DA:569,0
DA:570,0
DA:572,0
DA:573,0
DA:575,0
DA:577,0
DA:578,0
DA:580,0
DA:582,0
DA:583,0
DA:584,0
DA:586,0
DA:588,0
DA:589,0
DA:591,0
DA:592,0
DA:593,0
DA:594,0
DA:596,0
DA:597,0
DA:598,0
DA:599,0
DA:601,0
DA:602,0
DA:603,0
DA:604,0
DA:606,0
DA:607,0
DA:608,0
DA:609,0
DA:611,0
DA:612,0
DA:613,0
DA:614,0
DA:616,0
DA:617,0
DA:618,0
DA:619,0
DA:621,0
DA:622,0
DA:623,0
DA:624,0
DA:640,1
DA:641,1
DA:642,1
DA:643,1
DA:644,1
DA:645,1
DA:646,1
DA:649,1
DA:650,1
DA:651,1
DA:652,1
DA:653,1
DA:656,1
DA:657,1
DA:658,1
DA:659,1
DA:660,1
DA:661,1
DA:662,1
DA:663,1
DA:664,1
DA:666,1
DA:667,1
DA:669,1
DA:670,1
DA:671,1
DA:674,1
DA:675,1
DA:676,1
DA:678,1
DA:679,20
DA:680,1
BRF:0
BRH:0
LF:411
LH:71
end_of_record
SF:/home/nathan/Projects/lens/src/attestation.rs
FN:9,_RNCNvNtCscx2lCY9pHX3_9lens_core11attestation16verify_real_mode0B5_
FN:245,_RNvNtNtCscx2lCY9pHX3_9lens_core11attestation5testss_19test_get_build_info
FN:356,_RNvNtNtCscx2lCY9pHX3_9lens_core11attestation5testss_22test_handshake_enabled
FN:254,_RNvNtNtCscx2lCY9pHX3_9lens_core11attestation5testss_22test_perform_handshake
FN:369,_RNvNtNtCscx2lCY9pHX3_9lens_core11attestation5testss_23test_handshake_disabled
FN:385,_RNvNtNtCscx2lCY9pHX3_9lens_core11attestation5testss_27test_verify_build_integrity
FN:391,_RNvNtNtCscx2lCY9pHX3_9lens_core11attestation5testss_29test_verify_environment_clean
FN:200,_RNvNtNtCscx2lCY9pHX3_9lens_core11attestation5testss_29test_verify_real_mode_default
FN:209,_RNvNtNtCscx2lCY9pHX3_9lens_core11attestation5testss_30test_verify_real_mode_explicit
FN:420,_RNvNtNtCscx2lCY9pHX3_9lens_core11attestation5testss_32test_attestation_report_validity
FN:275,_RNvNtNtCscx2lCY9pHX3_9lens_core11attestation5testss_32test_check_banned_patterns_clean
FN:298,_RNvNtNtCscx2lCY9pHX3_9lens_core11attestation5testss_33test_attestation_manager_creation
FN:309,_RNvNtNtCscx2lCY9pHX3_9lens_core11attestation5testss_33test_attestation_manager_disabled
FN:445,_RNvNtNtCscx2lCY9pHX3_9lens_core11attestation5testss_33test_handshake_response_structure
FN:405,_RNvNtNtCscx2lCY9pHX3_9lens_core11attestation5testss_34test_verify_environment_suspicious
FN:219,_RNvNtNtCscx2lCY9pHX3_9lens_core11attestation5testss_34test_verify_real_mode_rejects_mock
FN:377,_RNvNtNtCscx2lCY9pHX3_9lens_core11attestation5testss_35test_compute_build_hash_consistency
FN:282,_RNvNtNtCscx2lCY9pHX3_9lens_core11attestation5testss_37test_check_banned_patterns_violations
FN:337,_RNvNtNtCscx2lCY9pHX3_9lens_core11attestation5testss_37test_verify_integrity_with_violations
FN:232,_RNvNtNtCscx2lCY9pHX3_9lens_core11attestation5testss_37test_verify_real_mode_rejects_invalid
FN:268,_RNvNtNtCscx2lCY9pHX3_9lens_core11attestation5testss_39test_perform_handshake_different_nonces
FN:315,_RNvNtNtCscx2lCY9pHX3_9lens_core11attestation5testss_39test_verify_integrity_clean_environment
FN:292,_RNvNtNtCscx2lCY9pHX3_9lens_core11attestation5testss_43test_check_banned_patterns_case_insensitive
FN:76,_RNvMNtCscx2lCY9pHX3_9lens_core11attestationNtB2_18AttestationManager16verify_integrity
FN:131,_RNvMNtCscx2lCY9pHX3_9lens_core11attestationNtB2_18AttestationManager18compute_build_hash
FN:153,_RNvMNtCscx2lCY9pHX3_9lens_core11attestationNtB2_18AttestationManager18verify_environment
FN:145,_RNvMNtCscx2lCY9pHX3_9lens_core11attestationNtB2_18AttestationManager22verify_build_integrity
FN:65,_RNvMNtCscx2lCY9pHX3_9lens_core11attestationNtB2_18AttestationManager3new
FN:116,_RNvMNtCscx2lCY9pHX3_9lens_core11attestationNtB2_18AttestationManager9handshake
FN:177,_RNvMs_NtCscx2lCY9pHX3_9lens_core11attestationNtB4_17AttestationReport8is_valid
FN:19,_RNvNtCscx2lCY9pHX3_9lens_core11attestation14get_build_info
FN:8,_RNvNtCscx2lCY9pHX3_9lens_core11attestation16verify_real_mode
FN:29,_RNvNtCscx2lCY9pHX3_9lens_core11attestation17perform_handshake
FN:41,_RNvNtCscx2lCY9pHX3_9lens_core11attestation21check_banned_patterns
FNDA:4,_RNCNvNtCscx2lCY9pHX3_9lens_core11attestation16verify_real_mode0B5_
FNDA:1,_RNvNtNtCscx2lCY9pHX3_9lens_core11attestation5testss_19test_get_build_info
FNDA:1,_RNvNtNtCscx2lCY9pHX3_9lens_core11attestation5testss_22test_handshake_enabled
FNDA:1,_RNvNtNtCscx2lCY9pHX3_9lens_core11attestation5testss_22test_perform_handshake
FNDA:1,_RNvNtNtCscx2lCY9pHX3_9lens_core11attestation5testss_23test_handshake_disabled
FNDA:1,_RNvNtNtCscx2lCY9pHX3_9lens_core11attestation5testss_27test_verify_build_integrity
FNDA:1,_RNvNtNtCscx2lCY9pHX3_9lens_core11attestation5testss_29test_verify_environment_clean
FNDA:1,_RNvNtNtCscx2lCY9pHX3_9lens_core11attestation5testss_29test_verify_real_mode_default
FNDA:1,_RNvNtNtCscx2lCY9pHX3_9lens_core11attestation5testss_30test_verify_real_mode_explicit
FNDA:1,_RNvNtNtCscx2lCY9pHX3_9lens_core11attestation5testss_32test_attestation_report_validity
FNDA:1,_RNvNtNtCscx2lCY9pHX3_9lens_core11attestation5testss_32test_check_banned_patterns_clean
FNDA:1,_RNvNtNtCscx2lCY9pHX3_9lens_core11attestation5testss_33test_attestation_manager_creation
FNDA:1,_RNvNtNtCscx2lCY9pHX3_9lens_core11attestation5testss_33test_attestation_manager_disabled
FNDA:1,_RNvNtNtCscx2lCY9pHX3_9lens_core11attestation5testss_33test_handshake_response_structure
FNDA:1,_RNvNtNtCscx2lCY9pHX3_9lens_core11attestation5testss_34test_verify_environment_suspicious
FNDA:1,_RNvNtNtCscx2lCY9pHX3_9lens_core11attestation5testss_34test_verify_real_mode_rejects_mock
FNDA:1,_RNvNtNtCscx2lCY9pHX3_9lens_core11attestation5testss_35test_compute_build_hash_consistency
FNDA:1,_RNvNtNtCscx2lCY9pHX3_9lens_core11attestation5testss_37test_check_banned_patterns_violations
FNDA:1,_RNvNtNtCscx2lCY9pHX3_9lens_core11attestation5testss_37test_verify_integrity_with_violations
FNDA:1,_RNvNtNtCscx2lCY9pHX3_9lens_core11attestation5testss_37test_verify_real_mode_rejects_invalid
FNDA:1,_RNvNtNtCscx2lCY9pHX3_9lens_core11attestation5testss_39test_perform_handshake_different_nonces
FNDA:1,_RNvNtNtCscx2lCY9pHX3_9lens_core11attestation5testss_39test_verify_integrity_clean_environment
FNDA:1,_RNvNtNtCscx2lCY9pHX3_9lens_core11attestation5testss_43test_check_banned_patterns_case_insensitive
FNDA:2,_RNvMNtCscx2lCY9pHX3_9lens_core11attestationNtB2_18AttestationManager16verify_integrity
FNDA:47,_RNvMNtCscx2lCY9pHX3_9lens_core11attestationNtB2_18AttestationManager18compute_build_hash
FNDA:4,_RNvMNtCscx2lCY9pHX3_9lens_core11attestationNtB2_18AttestationManager18verify_environment
FNDA:3,_RNvMNtCscx2lCY9pHX3_9lens_core11attestationNtB2_18AttestationManager22verify_build_integrity
FNDA:42,_RNvMNtCscx2lCY9pHX3_9lens_core11attestationNtB2_18AttestationManager3new
FNDA:3,_RNvMNtCscx2lCY9pHX3_9lens_core11attestationNtB2_18AttestationManager9handshake
FNDA:4,_RNvMs_NtCscx2lCY9pHX3_9lens_core11attestationNtB4_17AttestationReport8is_valid
FNDA:12,_RNvNtCscx2lCY9pHX3_9lens_core11attestation14get_build_info
FNDA:7,_RNvNtCscx2lCY9pHX3_9lens_core11attestation16verify_real_mode
FNDA:13,_RNvNtCscx2lCY9pHX3_9lens_core11attestation17perform_handshake
FNDA:4,_RNvNtCscx2lCY9pHX3_9lens_core11attestation21check_banned_patterns
FNF:34
FNH:34
DA:8,7
DA:9,7
DA:11,7
DA:12,2
DA:13,5
DA:15,5
DA:16,7
DA:19,12
DA:20,12
DA:21,12
DA:22,12
DA:23,12
DA:24,12
DA:25,12
DA:26,12
DA:29,13
DA:30,13
DA:31,13
DA:33,13
DA:34,13
DA:35,13
DA:37,13
DA:38,13
DA:41,4
DA:42,4
DA:43,4
DA:44,4
DA:46,4
DA:47,24
DA:48,20
DA:49,5
DA:50,15
DA:53,4
DA:54,4
DA:65,42
DA:66,42
DA:68,42
DA:69,42
DA:70,42
DA:71,42
DA:72,42
DA:73,42
DA:76,2
DA:77,2
DA:78,2
DA:79,2
DA:82,2
DA:83,2
DA:84,0
DA:85,2
DA:86,2
DA:87,2
DA:90,2
DA:91,2
DA:92,0
DA:93,2
DA:94,2
DA:95,2
DA:98,2
DA:99,2
DA:100,1
DA:101,1
DA:102,1
DA:103,1
DA:105,2
DA:106,2
DA:107,2
DA:108,2
DA:109,2
DA:110,2
DA:111,2
DA:112,2
DA:113,2
DA:116,3
DA:117,3
DA:118,1
DA:119,2
DA:121,2
DA:122,2
DA:124,2
DA:125,2
DA:126,2
DA:127,2
DA:128,2
DA:129,3
DA:131,47
DA:132,47
DA:133,47
DA:134,47
DA:136,47
DA:137,47
DA:140,47
DA:141,47
DA:142,47
DA:143,47
DA:145,3
DA:146,3
DA:147,3
DA:148,0
DA:149,3
DA:150,3
DA:151,3
DA:153,4
DA:155,4
DA:156,10
DA:157,8
DA:158,2
DA:159,6
DA:161,2
DA:162,4
DA:177,4
DA:178,4
DA:179,4
DA:200,1
DA:201,1
DA:204,1
DA:205,1
DA:206,1
DA:209,1
DA:210,1
DA:212,1
DA:213,1
DA:215,1
DA:216,1
DA:219,1
DA:220,1
DA:222,1
DA:223,1
DA:224,1
DA:225,1
DA:228,1
DA:229,1
DA:232,1
DA:233,1
DA:235,1
DA:236,1
DA:237,1
DA:238,1
DA:241,1
DA:242,1
DA:245,1
DA:246,1
DA:247,1
DA:248,1
DA:249,1
DA:250,1
DA:251,1
DA:254,1
DA:255,1
DA:256,1
DA:257,1
DA:259,1
DA:260,1
DA:263,1
DA:264,1
DA:265,1
DA:268,1
DA:269,1
DA:270,1
DA:271,1
DA:272,1
DA:275,1
DA:276,1
DA:277,1
DA:278,1
DA:279,1
DA:282,1
DA:283,1
DA:284,1
DA:285,1
DA:287,1
DA:288,1
DA:289,1
DA:292,1
DA:293,1
DA:294,1
DA:295,1
DA:298,1
DA:299,1
DA:300,1
DA:302,1
DA:303,1
DA:304,1
DA:305,1
DA:306,1
DA:309,1
DA:310,1
DA:311,1
DA:312,1
DA:315,1
DA:316,1
DA:319,1
DA:320,5
DA:321,4
DA:322,4
DA:324,1
DA:325,1
DA:326,1
DA:328,1
DA:329,1
DA:330,1
DA:331,1
DA:332,1
DA:333,1
DA:334,1
DA:337,1
DA:338,1
DA:341,1
DA:343,1
DA:344,1
DA:346,1
DA:347,1
DA:348,1
DA:349,1
DA:352,1
DA:353,1
DA:356,1
DA:357,1
DA:358,1
DA:359,1
DA:361,1
DA:362,1
DA:363,1
DA:364,1
DA:365,1
DA:366,1
DA:369,1
DA:370,1
DA:371,1
DA:372,1
DA:373,1
DA:374,1
DA:377,1
DA:378,1
DA:379,1
DA:380,1
DA:381,1
DA:382,1
DA:385,1
DA:386,1
DA:387,1
DA:388,1
DA:391,1
DA:392,1
DA:395,1
DA:396,4
DA:397,3
DA:398,3
DA:400,1
DA:401,1
DA:402,1
DA:405,1
DA:406,1
DA:408,1
DA:410,1
DA:411,1
DA:412,1
DA:413,1
DA:416,1
DA:417,1
DA:420,1
DA:423,1
DA:424,1
DA:425,1
DA:426,1
DA:427,1
DA:428,1
DA:429,1
DA:430,1
DA:431,1
DA:433,1
DA:434,1
DA:435,1
DA:436,1
DA:437,1
DA:438,1
DA:439,1
DA:440,1
DA:441,1
DA:442,1
DA:445,1
DA:446,1
DA:447,1
DA:450,1
DA:451,1
DA:452,1
DA:453,1
DA:454,1
DA:455,1
BRF:0
BRH:0
LF:290
LH:287
end_of_record
SF:/home/nathan/Projects/lens/src/baseline/baseline_orchestrator.rs
FN:52,_RNCNvMs_NtNtCscx2lCY9pHX3_9lens_core8baseline21baseline_orchestratorNtB6_20BaselineOrchestrator14add_competitor0Ba_
FN:87,_RNCNvMs_NtNtCscx2lCY9pHX3_9lens_core8baseline21baseline_orchestratorNtB6_20BaselineOrchestrator17load_test_queries0Ba_
FN:155,_RNCNvMs_NtNtCscx2lCY9pHX3_9lens_core8baseline21baseline_orchestratorNtB6_20BaselineOrchestrator20simulate_lens_search0Ba_
FN:108,_RNCNvMs_NtNtCscx2lCY9pHX3_9lens_core8baseline21baseline_orchestratorNtB6_20BaselineOrchestrator25run_competitor_comparison0Ba_
FN:59,_RNCNvMs_NtNtCscx2lCY9pHX3_9lens_core8baseline21baseline_orchestratorNtB6_20BaselineOrchestrator28run_comprehensive_comparison0Ba_
FN:52,_RNvMs_NtNtCscx2lCY9pHX3_9lens_core8baseline21baseline_orchestratorNtB4_20BaselineOrchestrator14add_competitor
FN:87,_RNvMs_NtNtCscx2lCY9pHX3_9lens_core8baseline21baseline_orchestratorNtB4_20BaselineOrchestrator17load_test_queries
FN:155,_RNvMs_NtNtCscx2lCY9pHX3_9lens_core8baseline21baseline_orchestratorNtB4_20BaselineOrchestrator20simulate_lens_search
FN:104,_RNvMs_NtNtCscx2lCY9pHX3_9lens_core8baseline21baseline_orchestratorNtB4_20BaselineOrchestrator25run_competitor_comparison
FN:187,_RNvMs_NtNtCscx2lCY9pHX3_9lens_core8baseline21baseline_orchestratorNtB4_20BaselineOrchestrator28calculate_comparison_metrics
FN:59,_RNvMs_NtNtCscx2lCY9pHX3_9lens_core8baseline21baseline_orchestratorNtB4_20BaselineOrchestrator28run_comprehensive_comparison
FN:241,_RNCNvNtNtNtCscx2lCY9pHX3_9lens_core8baseline21baseline_orchestrator5testss_32test_orchestrator_initialization0B9_
FN:45,_RNvMs_NtNtCscx2lCY9pHX3_9lens_core8baseline21baseline_orchestratorNtB4_20BaselineOrchestrator3new
FN:26,_RNvXNtNtCscx2lCY9pHX3_9lens_core8baseline21baseline_orchestratorNtB2_14BaselineConfigNtNtCs66KPHxksi63_4core7default7Default7default
FN:232,_RNvNtNtNtCscx2lCY9pHX3_9lens_core8baseline21baseline_orchestrator5testss_29test_baseline_config_creation
FN:241,_RNvNtNtNtCscx2lCY9pHX3_9lens_core8baseline21baseline_orchestrator5testss_32test_orchestrator_initialization
FNDA:0,_RNCNvMs_NtNtCscx2lCY9pHX3_9lens_core8baseline21baseline_orchestratorNtB6_20BaselineOrchestrator14add_competitor0Ba_
FNDA:0,_RNCNvMs_NtNtCscx2lCY9pHX3_9lens_core8baseline21baseline_orchestratorNtB6_20BaselineOrchestrator17load_test_queries0Ba_
FNDA:0,_RNCNvMs_NtNtCscx2lCY9pHX3_9lens_core8baseline21baseline_orchestratorNtB6_20BaselineOrchestrator20simulate_lens_search0Ba_
FNDA:0,_RNCNvMs_NtNtCscx2lCY9pHX3_9lens_core8baseline21baseline_orchestratorNtB6_20BaselineOrchestrator25run_competitor_comparison0Ba_
FNDA:0,_RNCNvMs_NtNtCscx2lCY9pHX3_9lens_core8baseline21baseline_orchestratorNtB6_20BaselineOrchestrator28run_comprehensive_comparison0Ba_
FNDA:0,_RNvMs_NtNtCscx2lCY9pHX3_9lens_core8baseline21baseline_orchestratorNtB4_20BaselineOrchestrator14add_competitor
FNDA:0,_RNvMs_NtNtCscx2lCY9pHX3_9lens_core8baseline21baseline_orchestratorNtB4_20BaselineOrchestrator17load_test_queries
FNDA:0,_RNvMs_NtNtCscx2lCY9pHX3_9lens_core8baseline21baseline_orchestratorNtB4_20BaselineOrchestrator20simulate_lens_search
FNDA:0,_RNvMs_NtNtCscx2lCY9pHX3_9lens_core8baseline21baseline_orchestratorNtB4_20BaselineOrchestrator25run_competitor_comparison
FNDA:0,_RNvMs_NtNtCscx2lCY9pHX3_9lens_core8baseline21baseline_orchestratorNtB4_20BaselineOrchestrator28calculate_comparison_metrics
FNDA:0,_RNvMs_NtNtCscx2lCY9pHX3_9lens_core8baseline21baseline_orchestratorNtB4_20BaselineOrchestrator28run_comprehensive_comparison
FNDA:1,_RNCNvNtNtNtCscx2lCY9pHX3_9lens_core8baseline21baseline_orchestrator5testss_32test_orchestrator_initialization0B9_
FNDA:1,_RNvMs_NtNtCscx2lCY9pHX3_9lens_core8baseline21baseline_orchestratorNtB4_20BaselineOrchestrator3new
FNDA:2,_RNvXNtNtCscx2lCY9pHX3_9lens_core8baseline21baseline_orchestratorNtB2_14BaselineConfigNtNtCs66KPHxksi63_4core7default7Default7default
FNDA:1,_RNvNtNtNtCscx2lCY9pHX3_9lens_core8baseline21baseline_orchestrator5testss_29test_baseline_config_creation
FNDA:1,_RNvNtNtNtCscx2lCY9pHX3_9lens_core8baseline21baseline_orchestrator5testss_32test_orchestrator_initialization
FNF:16
FNH:5
DA:26,2
DA:27,2
DA:28,2
DA:29,2
DA:30,2
DA:31,2
DA:32,2
DA:33,2
DA:34,2
DA:35,2
DA:36,2
DA:45,1
DA:46,1
DA:47,1
DA:48,1
DA:49,1
DA:50,1
DA:52,0
DA:53,0
DA:54,0
DA:55,0
DA:56,0
DA:57,0
DA:59,0
DA:60,0
DA:62,0
DA:65,0
DA:66,0
DA:69,0
DA:70,0
DA:73,0
DA:74,0
DA:75,0
DA:77,0
DA:80,0
DA:83,0
DA:84,0
DA:85,0
DA:87,0
DA:89,0
DA:91,0
DA:92,0
DA:93,0
DA:94,0
DA:95,0
DA:96,0
DA:97,0
DA:98,0
DA:99,0
DA:101,0
DA:102,0
DA:104,0
DA:105,0
DA:106,0
DA:107,0
DA:108,0
DA:109,0
DA:111,0
DA:112,0
DA:115,0
DA:116,0
DA:117,0
DA:118,0
DA:119,0
DA:120,0
DA:121,0
DA:122,0
DA:126,0
DA:127,0
DA:128,0
DA:132,0
DA:134,0
DA:135,0
DA:136,0
DA:137,0
DA:138,0
DA:139,0
DA:140,0
DA:141,0
DA:142,0
DA:143,0
DA:144,0
DA:145,0
DA:146,0
DA:147,0
DA:148,0
DA:149,0
DA:150,0
DA:151,0
DA:152,0
DA:153,0
DA:155,0
DA:157,0
DA:159,0
DA:160,0
DA:161,0
DA:162,0
DA:163,0
DA:164,0
DA:165,0
DA:166,0
DA:167,0
DA:168,0
DA:169,0
DA:170,0
DA:171,0
DA:172,0
DA:173,0
DA:174,0
DA:175,0
DA:176,0
DA:177,0
DA:178,0
DA:179,0
DA:180,0
DA:181,0
DA:182,0
DA:184,0
DA:185,0
DA:187,0
DA:188,0
DA:189,0
DA:190,0
DA:191,0
DA:192,0
DA:195,0
DA:196,0
DA:197,0
DA:198,0
DA:199,0
DA:200,0
DA:201,0
DA:202,0
DA:205,0
DA:206,0
DA:207,0
DA:208,0
DA:209,0
DA:210,0
DA:211,0
DA:212,0
DA:214,0
DA:215,0
DA:232,1
DA:233,1
DA:234,1
DA:235,1
DA:236,1
DA:237,1
DA:238,1
DA:241,1
DA:242,1
DA:243,1
DA:245,1
DA:246,1
BRF:0
BRH:0
LF:162
LH:31
end_of_record
SF:/home/nathan/Projects/lens/src/baseline/bm25_proximity.rs
FN:440,_RNCNCNvMs_NtNtCscx2lCY9pHX3_9lens_core8baseline14bm25_proximityNtB8_21BM25ProximitySearcher14execute_search00Bc_
FN:360,_RNCNCNvMs_NtNtCscx2lCY9pHX3_9lens_core8baseline14bm25_proximityNtB8_21BM25ProximitySearcher21add_document_to_index00Bc_
FN:404,_RNCNvMs_NtNtCscx2lCY9pHX3_9lens_core8baseline14bm25_proximityNtB6_21BM25ProximitySearcher14execute_search0Ba_
FN:200,_RNCNvMs_NtNtCscx2lCY9pHX3_9lens_core8baseline14bm25_proximityNtB6_21BM25ProximitySearcher15index_documents0Ba_
FN:348,_RNCNvMs_NtNtCscx2lCY9pHX3_9lens_core8baseline14bm25_proximityNtB6_21BM25ProximitySearcher21add_document_to_index0Ba_
FN:586,_RNCNvMs_NtNtCscx2lCY9pHX3_9lens_core8baseline14bm25_proximityNtB6_21BM25ProximitySearcher22find_matched_positions0Ba_
FN:463,_RNCNvMs_NtNtCscx2lCY9pHX3_9lens_core8baseline14bm25_proximityNtB6_21BM25ProximitySearcher24find_candidate_documents0Ba_
FN:78,_RNvMNtNtCscx2lCY9pHX3_9lens_core8baseline14bm25_proximityNtB2_15ProximityConfig14high_precision
FN:404,_RNvMs_NtNtCscx2lCY9pHX3_9lens_core8baseline14bm25_proximityNtB4_21BM25ProximitySearcher14execute_search
FN:200,_RNvMs_NtNtCscx2lCY9pHX3_9lens_core8baseline14bm25_proximityNtB4_21BM25ProximitySearcher15index_documents
FN:561,_RNvMs_NtNtCscx2lCY9pHX3_9lens_core8baseline14bm25_proximityNtB4_21BM25ProximitySearcher16generate_snippet
FN:480,_RNvMs_NtNtCscx2lCY9pHX3_9lens_core8baseline14bm25_proximityNtB4_21BM25ProximitySearcher20calculate_bm25_score
FN:348,_RNvMs_NtNtCscx2lCY9pHX3_9lens_core8baseline14bm25_proximityNtB4_21BM25ProximitySearcher21add_document_to_index
FN:583,_RNvMs_NtNtCscx2lCY9pHX3_9lens_core8baseline14bm25_proximityNtB4_21BM25ProximitySearcher22find_matched_positions
FN:459,_RNvMs_NtNtCscx2lCY9pHX3_9lens_core8baseline14bm25_proximityNtB4_21BM25ProximitySearcher24find_candidate_documents
FN:509,_RNvMs_NtNtCscx2lCY9pHX3_9lens_core8baseline14bm25_proximityNtB4_21BM25ProximitySearcher25calculate_proximity_score
FN:666,_RNvXsc_NtNtCscx2lCY9pHX3_9lens_core8baseline14bm25_proximityNtB5_21BM25ProximitySearcherNtB7_16BaselineSearcher10get_config
FN:696,_RNvXsc_NtNtCscx2lCY9pHX3_9lens_core8baseline14bm25_proximityNtB5_21BM25ProximitySearcherNtB7_16BaselineSearcher14get_statistics
FN:603,_RNvXsc_NtNtCscx2lCY9pHX3_9lens_core8baseline14bm25_proximityNtB5_21BM25ProximitySearcherNtB7_16BaselineSearcher6search
FN:450,_RNCNCNvMs_NtNtCscx2lCY9pHX3_9lens_core8baseline14bm25_proximityNtB8_21BM25ProximitySearcher11parse_query00Bc_
FN:452,_RNCNCNvMs_NtNtCscx2lCY9pHX3_9lens_core8baseline14bm25_proximityNtB8_21BM25ProximitySearcher11parse_query0s0_0Bc_
FN:451,_RNCNCNvMs_NtNtCscx2lCY9pHX3_9lens_core8baseline14bm25_proximityNtB8_21BM25ProximitySearcher11parse_query0s_0Bc_
FN:290,_RNCNvMs_NtNtCscx2lCY9pHX3_9lens_core8baseline14bm25_proximityNtB6_21BM25ProximitySearcher11clean_token0Ba_
FN:447,_RNCNvMs_NtNtCscx2lCY9pHX3_9lens_core8baseline14bm25_proximityNtB6_21BM25ProximitySearcher11parse_query0Ba_
FN:306,_RNCNvMs_NtNtCscx2lCY9pHX3_9lens_core8baseline14bm25_proximityNtB6_21BM25ProximitySearcher14classify_token0Ba_
FN:223,_RNCNvMs_NtNtCscx2lCY9pHX3_9lens_core8baseline14bm25_proximityNtB6_21BM25ProximitySearcher16process_document0Ba_
FN:254,_RNCNvMs_NtNtCscx2lCY9pHX3_9lens_core8baseline14bm25_proximityNtB6_21BM25ProximitySearcher16tokenize_content0Ba_
FN:166,_RNCNvMs_NtNtCscx2lCY9pHX3_9lens_core8baseline14bm25_proximityNtB6_21BM25ProximitySearcher3new0Ba_
FN:46,_RNvMNtNtCscx2lCY9pHX3_9lens_core8baseline14bm25_proximityNtB2_15ProximityConfig18optimized_for_code
FN:288,_RNvMs_NtNtCscx2lCY9pHX3_9lens_core8baseline14bm25_proximityNtB4_21BM25ProximitySearcher11clean_token
FN:447,_RNvMs_NtNtCscx2lCY9pHX3_9lens_core8baseline14bm25_proximityNtB4_21BM25ProximitySearcher11parse_query
FN:295,_RNvMs_NtNtCscx2lCY9pHX3_9lens_core8baseline14bm25_proximityNtB4_21BM25ProximitySearcher14classify_token
FN:332,_RNvMs_NtNtCscx2lCY9pHX3_9lens_core8baseline14bm25_proximityNtB4_21BM25ProximitySearcher15extract_classes
FN:223,_RNvMs_NtNtCscx2lCY9pHX3_9lens_core8baseline14bm25_proximityNtB4_21BM25ProximitySearcher16process_document
FN:254,_RNvMs_NtNtCscx2lCY9pHX3_9lens_core8baseline14bm25_proximityNtB4_21BM25ProximitySearcher16tokenize_content
FN:316,_RNvMs_NtNtCscx2lCY9pHX3_9lens_core8baseline14bm25_proximityNtB4_21BM25ProximitySearcher17extract_functions
FN:387,_RNvMs_NtNtCscx2lCY9pHX3_9lens_core8baseline14bm25_proximityNtB4_21BM25ProximitySearcher21calculate_score_boost
FN:166,_RNvMs_NtNtCscx2lCY9pHX3_9lens_core8baseline14bm25_proximityNtB4_21BM25ProximitySearcher3new
FN:599,_RNvXsc_NtNtCscx2lCY9pHX3_9lens_core8baseline14bm25_proximityNtB5_21BM25ProximitySearcherNtB7_16BaselineSearcher11system_name
FN:733,_RNCNCNvNtNtNtCscx2lCY9pHX3_9lens_core8baseline14bm25_proximity5testss_17test_tokenization00Bb_
FN:735,_RNCNCNvNtNtNtCscx2lCY9pHX3_9lens_core8baseline14bm25_proximity5testss_17test_tokenization0s0_0Bb_
FN:734,_RNCNCNvNtNtNtCscx2lCY9pHX3_9lens_core8baseline14bm25_proximity5testss_17test_tokenization0s_0Bb_
FN:725,_RNCNvNtNtNtCscx2lCY9pHX3_9lens_core8baseline14bm25_proximity5testss_17test_tokenization0B9_
FN:760,_RNCNvNtNtNtCscx2lCY9pHX3_9lens_core8baseline14bm25_proximity5testss_18test_query_parsing0B9_
FN:739,_RNCNvNtNtNtCscx2lCY9pHX3_9lens_core8baseline14bm25_proximity5testss_24test_document_processing0B9_
FN:715,_RNCNvNtNtNtCscx2lCY9pHX3_9lens_core8baseline14bm25_proximity5testss_37test_bm25_proximity_searcher_creation0B9_
FN:725,_RNvNtNtNtCscx2lCY9pHX3_9lens_core8baseline14bm25_proximity5testss_17test_tokenization
FN:760,_RNvNtNtNtCscx2lCY9pHX3_9lens_core8baseline14bm25_proximity5testss_18test_query_parsing
FN:739,_RNvNtNtNtCscx2lCY9pHX3_9lens_core8baseline14bm25_proximity5testss_24test_document_processing
FN:774,_RNvNtNtNtCscx2lCY9pHX3_9lens_core8baseline14bm25_proximity5testss_28test_score_boost_calculation
FN:715,_RNvNtNtNtCscx2lCY9pHX3_9lens_core8baseline14bm25_proximity5testss_37test_bm25_proximity_searcher_creation
FNDA:0,_RNCNCNvMs_NtNtCscx2lCY9pHX3_9lens_core8baseline14bm25_proximityNtB8_21BM25ProximitySearcher14execute_search00Bc_
FNDA:0,_RNCNCNvMs_NtNtCscx2lCY9pHX3_9lens_core8baseline14bm25_proximityNtB8_21BM25ProximitySearcher21add_document_to_index00Bc_
FNDA:0,_RNCNvMs_NtNtCscx2lCY9pHX3_9lens_core8baseline14bm25_proximityNtB6_21BM25ProximitySearcher14execute_search0Ba_
FNDA:0,_RNCNvMs_NtNtCscx2lCY9pHX3_9lens_core8baseline14bm25_proximityNtB6_21BM25ProximitySearcher15index_documents0Ba_
FNDA:0,_RNCNvMs_NtNtCscx2lCY9pHX3_9lens_core8baseline14bm25_proximityNtB6_21BM25ProximitySearcher21add_document_to_index0Ba_
FNDA:0,_RNCNvMs_NtNtCscx2lCY9pHX3_9lens_core8baseline14bm25_proximityNtB6_21BM25ProximitySearcher22find_matched_positions0Ba_
FNDA:0,_RNCNvMs_NtNtCscx2lCY9pHX3_9lens_core8baseline14bm25_proximityNtB6_21BM25ProximitySearcher24find_candidate_documents0Ba_
FNDA:0,_RNvMNtNtCscx2lCY9pHX3_9lens_core8baseline14bm25_proximityNtB2_15ProximityConfig14high_precision
FNDA:0,_RNvMs_NtNtCscx2lCY9pHX3_9lens_core8baseline14bm25_proximityNtB4_21BM25ProximitySearcher14execute_search
FNDA:0,_RNvMs_NtNtCscx2lCY9pHX3_9lens_core8baseline14bm25_proximityNtB4_21BM25ProximitySearcher15index_documents
FNDA:0,_RNvMs_NtNtCscx2lCY9pHX3_9lens_core8baseline14bm25_proximityNtB4_21BM25ProximitySearcher16generate_snippet
FNDA:0,_RNvMs_NtNtCscx2lCY9pHX3_9lens_core8baseline14bm25_proximityNtB4_21BM25ProximitySearcher20calculate_bm25_score
FNDA:0,_RNvMs_NtNtCscx2lCY9pHX3_9lens_core8baseline14bm25_proximityNtB4_21BM25ProximitySearcher21add_document_to_index
FNDA:0,_RNvMs_NtNtCscx2lCY9pHX3_9lens_core8baseline14bm25_proximityNtB4_21BM25ProximitySearcher22find_matched_positions
FNDA:0,_RNvMs_NtNtCscx2lCY9pHX3_9lens_core8baseline14bm25_proximityNtB4_21BM25ProximitySearcher24find_candidate_documents
FNDA:0,_RNvMs_NtNtCscx2lCY9pHX3_9lens_core8baseline14bm25_proximityNtB4_21BM25ProximitySearcher25calculate_proximity_score
FNDA:0,_RNvXsc_NtNtCscx2lCY9pHX3_9lens_core8baseline14bm25_proximityNtB5_21BM25ProximitySearcherNtB7_16BaselineSearcher10get_config
FNDA:0,_RNvXsc_NtNtCscx2lCY9pHX3_9lens_core8baseline14bm25_proximityNtB5_21BM25ProximitySearcherNtB7_16BaselineSearcher14get_statistics
FNDA:0,_RNvXsc_NtNtCscx2lCY9pHX3_9lens_core8baseline14bm25_proximityNtB5_21BM25ProximitySearcherNtB7_16BaselineSearcher6search
FNDA:3,_RNCNCNvMs_NtNtCscx2lCY9pHX3_9lens_core8baseline14bm25_proximityNtB8_21BM25ProximitySearcher11parse_query00Bc_
FNDA:3,_RNCNCNvMs_NtNtCscx2lCY9pHX3_9lens_core8baseline14bm25_proximityNtB8_21BM25ProximitySearcher11parse_query0s0_0Bc_
FNDA:3,_RNCNCNvMs_NtNtCscx2lCY9pHX3_9lens_core8baseline14bm25_proximityNtB8_21BM25ProximitySearcher11parse_query0s_0Bc_
FNDA:114,_RNCNvMs_NtNtCscx2lCY9pHX3_9lens_core8baseline14bm25_proximityNtB6_21BM25ProximitySearcher11clean_token0Ba_
FNDA:1,_RNCNvMs_NtNtCscx2lCY9pHX3_9lens_core8baseline14bm25_proximityNtB6_21BM25ProximitySearcher11parse_query0Ba_
FNDA:7,_RNCNvMs_NtNtCscx2lCY9pHX3_9lens_core8baseline14bm25_proximityNtB6_21BM25ProximitySearcher14classify_token0Ba_
FNDA:1,_RNCNvMs_NtNtCscx2lCY9pHX3_9lens_core8baseline14bm25_proximityNtB6_21BM25ProximitySearcher16process_document0Ba_
FNDA:2,_RNCNvMs_NtNtCscx2lCY9pHX3_9lens_core8baseline14bm25_proximityNtB6_21BM25ProximitySearcher16tokenize_content0Ba_
FNDA:4,_RNCNvMs_NtNtCscx2lCY9pHX3_9lens_core8baseline14bm25_proximityNtB6_21BM25ProximitySearcher3new0Ba_
FNDA:5,_RNvMNtNtCscx2lCY9pHX3_9lens_core8baseline14bm25_proximityNtB2_15ProximityConfig18optimized_for_code
FNDA:15,_RNvMs_NtNtCscx2lCY9pHX3_9lens_core8baseline14bm25_proximityNtB4_21BM25ProximitySearcher11clean_token
FNDA:1,_RNvMs_NtNtCscx2lCY9pHX3_9lens_core8baseline14bm25_proximityNtB4_21BM25ProximitySearcher11parse_query
FNDA:12,_RNvMs_NtNtCscx2lCY9pHX3_9lens_core8baseline14bm25_proximityNtB4_21BM25ProximitySearcher14classify_token
FNDA:1,_RNvMs_NtNtCscx2lCY9pHX3_9lens_core8baseline14bm25_proximityNtB4_21BM25ProximitySearcher15extract_classes
FNDA:1,_RNvMs_NtNtCscx2lCY9pHX3_9lens_core8baseline14bm25_proximityNtB4_21BM25ProximitySearcher16process_document
FNDA:2,_RNvMs_NtNtCscx2lCY9pHX3_9lens_core8baseline14bm25_proximityNtB4_21BM25ProximitySearcher16tokenize_content
FNDA:1,_RNvMs_NtNtCscx2lCY9pHX3_9lens_core8baseline14bm25_proximityNtB4_21BM25ProximitySearcher17extract_functions
FNDA:3,_RNvMs_NtNtCscx2lCY9pHX3_9lens_core8baseline14bm25_proximityNtB4_21BM25ProximitySearcher21calculate_score_boost
FNDA:4,_RNvMs_NtNtCscx2lCY9pHX3_9lens_core8baseline14bm25_proximityNtB4_21BM25ProximitySearcher3new
FNDA:1,_RNvXsc_NtNtCscx2lCY9pHX3_9lens_core8baseline14bm25_proximityNtB5_21BM25ProximitySearcherNtB7_16BaselineSearcher11system_name
FNDA:1,_RNCNCNvNtNtNtCscx2lCY9pHX3_9lens_core8baseline14bm25_proximity5testss_17test_tokenization00Bb_
FNDA:3,_RNCNCNvNtNtNtCscx2lCY9pHX3_9lens_core8baseline14bm25_proximity5testss_17test_tokenization0s0_0Bb_
FNDA:2,_RNCNCNvNtNtNtCscx2lCY9pHX3_9lens_core8baseline14bm25_proximity5testss_17test_tokenization0s_0Bb_
FNDA:1,_RNCNvNtNtNtCscx2lCY9pHX3_9lens_core8baseline14bm25_proximity5testss_17test_tokenization0B9_
FNDA:1,_RNCNvNtNtNtCscx2lCY9pHX3_9lens_core8baseline14bm25_proximity5testss_18test_query_parsing0B9_
FNDA:1,_RNCNvNtNtNtCscx2lCY9pHX3_9lens_core8baseline14bm25_proximity5testss_24test_document_processing0B9_
FNDA:1,_RNCNvNtNtNtCscx2lCY9pHX3_9lens_core8baseline14bm25_proximity5testss_37test_bm25_proximity_searcher_creation0B9_
FNDA:1,_RNvNtNtNtCscx2lCY9pHX3_9lens_core8baseline14bm25_proximity5testss_17test_tokenization
FNDA:1,_RNvNtNtNtCscx2lCY9pHX3_9lens_core8baseline14bm25_proximity5testss_18test_query_parsing
FNDA:1,_RNvNtNtNtCscx2lCY9pHX3_9lens_core8baseline14bm25_proximity5testss_24test_document_processing
FNDA:1,_RNvNtNtNtCscx2lCY9pHX3_9lens_core8baseline14bm25_proximity5testss_28test_score_boost_calculation
FNDA:1,_RNvNtNtNtCscx2lCY9pHX3_9lens_core8baseline14bm25_proximity5testss_37test_bm25_proximity_searcher_creation
FNF:51
FNH:32
DA:46,5
DA:47,5
DA:48,5
DA:49,5
DA:50,5
DA:51,5
DA:52,5
DA:53,5
DA:55,5
DA:56,5
DA:57,5
DA:58,5
DA:59,5
DA:60,5
DA:61,5
DA:62,5
DA:64,5
DA:65,5
DA:66,5
DA:67,5
DA:68,5
DA:69,5
DA:70,5
DA:71,5
DA:72,5
DA:73,5
DA:74,5
DA:75,5
DA:78,0
DA:79,0
DA:80,0
DA:81,0
DA:82,0
DA:83,0
DA:84,0
DA:85,0
DA:166,4
DA:167,4
DA:169,4
DA:170,4
DA:173,4
DA:174,4
DA:175,4
DA:176,4
DA:177,4
DA:178,4
DA:179,4
DA:181,4
DA:182,4
DA:183,4
DA:184,4
DA:185,4
DA:186,4
DA:187,4
DA:188,4
DA:189,4
DA:191,4
DA:192,4
DA:193,4
DA:194,4
DA:195,4
DA:196,4
DA:197,4
DA:200,0
DA:201,0
DA:202,0
DA:204,0
DA:205,0
DA:206,0
DA:210,0
DA:211,0
DA:212,0
DA:213,0
DA:214,0
DA:215,0
DA:217,0
DA:218,0
DA:219,0
DA:220,0
DA:223,1
DA:225,1
DA:228,1
DA:229,7
DA:230,6
DA:231,6
DA:234,1
DA:235,1
DA:236,1
DA:237,1
DA:238,1
DA:239,1
DA:240,1
DA:242,1
DA:243,1
DA:244,1
DA:245,1
DA:246,1
DA:247,1
DA:248,1
DA:249,1
DA:250,1
DA:251,1
DA:254,2
DA:255,2
DA:256,2
DA:259,2
DA:261,8
DA:262,8
DA:264,26
DA:265,18
DA:266,12
DA:267,12
DA:268,12
DA:269,12
DA:270,12
DA:271,12
DA:272,12
DA:273,12
DA:274,12
DA:275,12
DA:276,12
DA:277,12
DA:278,12
DA:279,6
DA:280,18
DA:284,2
DA:285,2
DA:288,15
DA:289,15
DA:290,114
DA:291,15
DA:292,15
DA:295,12
DA:297,12
DA:298,12
DA:299,12
DA:300,0
DA:301,0
DA:304,12
DA:305,5
DA:306,7
DA:307,0
DA:308,7
DA:309,0
DA:311,7
DA:313,12
DA:316,1
DA:317,1
DA:319,5
DA:320,5
DA:321,2
DA:322,0
DA:323,0
DA:324,0
DA:325,5
DA:328,1
DA:329,1
DA:332,1
DA:333,1
DA:335,5
DA:336,5
DA:337,2
DA:338,1
DA:339,1
DA:340,1
DA:341,4
DA:344,1
DA:345,1
DA:348,0
DA:349,0
DA:352,0
DA:353,0
DA:356,0
DA:358,0
DA:359,0
DA:360,0
DA:361,0
DA:362,0
DA:364,0
DA:366,0
DA:367,0
DA:370,0
DA:372,0
DA:373,0
DA:374,0
DA:375,0
DA:376,0
DA:377,0
DA:379,0
DA:380,0
DA:383,0
DA:384,0
DA:387,3
DA:388,3
DA:391,3
DA:392,1
DA:393,2
DA:396,3
DA:397,1
DA:398,2
DA:400,3
DA:401,3
DA:404,0
DA:405,0
DA:408,0
DA:409,0
DA:411,0
DA:412,0
DA:413,0
DA:416,0
DA:419,0
DA:421,0
DA:422,0
DA:423,0
DA:424,0
DA:425,0
DA:426,0
DA:427,0
DA:428,0
DA:429,0
DA:430,0
DA:431,0
DA:432,0
DA:433,0
DA:434,0
DA:435,0
DA:436,0
DA:437,0
DA:440,0
DA:441,0
DA:443,0
DA:444,0
DA:447,1
DA:448,1
DA:449,1
DA:450,3
DA:451,3
DA:452,3
DA:453,1
DA:455,1
DA:456,1
DA:459,0
DA:460,0
DA:461,0
DA:462,0
DA:463,0
DA:464,0
DA:466,0
DA:467,0
DA:468,0
DA:469,0
DA:470,0
DA:471,0
DA:473,0
DA:476,0
DA:477,0
DA:480,0
DA:481,0
DA:483,0
DA:484,0
DA:485,0
DA:486,0
DA:487,0
DA:488,0
DA:489,0
DA:490,0
DA:491,0
DA:492,0
DA:493,0
DA:494,0
DA:495,0
DA:496,0
DA:497,0
DA:498,0
DA:499,0
DA:500,0
DA:501,0
DA:502,0
DA:505,0
DA:506,0
DA:509,0
DA:510,0
DA:511,0
DA:512,0
DA:514,0
DA:515,0
DA:518,0
DA:519,0
DA:520,0
DA:521,0
DA:522,0
DA:526,0
DA:527,0
DA:528,0
DA:529,0
DA:531,0
DA:532,0
DA:533,0
DA:534,0
DA:536,0
DA:538,0
DA:539,0
DA:542,0
DA:543,0
DA:544,0
DA:545,0
DA:548,0
DA:553,0
DA:554,0
DA:555,0
DA:557,0
DA:558,0
DA:561,0
DA:562,0
DA:565,0
DA:566,0
DA:567,0
DA:568,0
DA:570,0
DA:571,0
DA:573,0
DA:574,0
DA:575,0
DA:579,0
DA:580,0
DA:583,0
DA:584,0
DA:585,0
DA:586,0
DA:587,0
DA:588,0
DA:590,0
DA:592,0
DA:593,0
DA:594,0
DA:599,1
DA:600,1
DA:601,1
DA:603,0
DA:664,0
DA:666,0
DA:667,0
DA:668,0
DA:669,0
DA:670,0
DA:671,0
DA:673,0
DA:674,0
DA:675,0
DA:676,0
DA:677,0
DA:678,0
DA:679,0
DA:680,0
DA:681,0
DA:682,0
DA:683,0
DA:684,0
DA:685,0
DA:686,0
DA:687,0
DA:688,0
DA:689,0
DA:690,0
DA:691,0
DA:692,0
DA:693,0
DA:694,0
DA:696,0
DA:698,0
DA:715,1
DA:716,1
DA:717,1
DA:719,1
DA:720,1
DA:721,1
DA:722,1
DA:725,1
DA:726,1
DA:727,1
DA:729,1
DA:730,1
DA:732,1
DA:733,1
DA:734,2
DA:735,3
DA:736,1
DA:739,1
DA:740,1
DA:741,1
DA:743,1
DA:744,1
DA:745,1
DA:746,1
DA:747,1
DA:748,1
DA:750,1
DA:752,1
DA:753,1
DA:754,1
DA:755,1
DA:756,1
DA:757,1
DA:760,1
DA:761,1
DA:762,1
DA:764,1
DA:765,1
DA:767,1
DA:768,1
DA:769,1
DA:770,1
DA:771,1
DA:774,1
DA:775,1
DA:776,1
DA:777,1
DA:778,1
DA:779,1
DA:780,1
DA:781,1
DA:782,1
DA:783,1
DA:784,1
DA:785,1
DA:786,1
DA:787,1
DA:788,1
DA:789,1
DA:790,1
DA:791,1
DA:792,1
DA:793,1
DA:794,1
DA:795,1
DA:798,1
DA:799,1
DA:802,1
DA:803,1
DA:806,1
DA:807,1
DA:808,1
BRF:0
BRH:0
LF:469
LH:251
end_of_record
SF:/home/nathan/Projects/lens/src/baseline/competitive_benchmarking.rs
FN:105,_RNCNCNvMNtNtCscx2lCY9pHX3_9lens_core8baseline24competitive_benchmarkingNtB6_26CompetitiveBenchmarkRunner25run_competitive_benchmark00Ba_
FN:142,_RNCNvMNtNtCscx2lCY9pHX3_9lens_core8baseline24competitive_benchmarkingNtB4_26CompetitiveBenchmarkRunner16run_warmup_phase0B8_
FN:353,_RNCNvMNtNtCscx2lCY9pHX3_9lens_core8baseline24competitive_benchmarkingNtB4_26CompetitiveBenchmarkRunner17measure_cpu_usage0B8_
FN:349,_RNCNvMNtNtCscx2lCY9pHX3_9lens_core8baseline24competitive_benchmarkingNtB4_26CompetitiveBenchmarkRunner20measure_memory_usage0B8_
FN:162,_RNCNvMNtNtCscx2lCY9pHX3_9lens_core8baseline24competitive_benchmarkingNtB4_26CompetitiveBenchmarkRunner21run_measurement_phase0B8_
FN:99,_RNCNvMNtNtCscx2lCY9pHX3_9lens_core8baseline24competitive_benchmarkingNtB4_26CompetitiveBenchmarkRunner25run_competitive_benchmark0B8_
FN:238,_RNCNvMNtNtCscx2lCY9pHX3_9lens_core8baseline24competitive_benchmarkingNtB4_26CompetitiveBenchmarkRunner29calculate_performance_metrics0B8_
FN:138,_RNvMNtNtCscx2lCY9pHX3_9lens_core8baseline24competitive_benchmarkingNtB2_26CompetitiveBenchmarkRunner16run_warmup_phase
FN:353,_RNvMNtNtCscx2lCY9pHX3_9lens_core8baseline24competitive_benchmarkingNtB2_26CompetitiveBenchmarkRunner17measure_cpu_usage
FN:349,_RNvMNtNtCscx2lCY9pHX3_9lens_core8baseline24competitive_benchmarkingNtB2_26CompetitiveBenchmarkRunner20measure_memory_usage
FN:158,_RNvMNtNtCscx2lCY9pHX3_9lens_core8baseline24competitive_benchmarkingNtB2_26CompetitiveBenchmarkRunner21run_measurement_phase
FN:259,_RNvMNtNtCscx2lCY9pHX3_9lens_core8baseline24competitive_benchmarkingNtB2_26CompetitiveBenchmarkRunner23calculate_quality_score
FN:314,_RNvMNtNtCscx2lCY9pHX3_9lens_core8baseline24competitive_benchmarkingNtB2_26CompetitiveBenchmarkRunner23evaluate_sla_compliance
FN:95,_RNvMNtNtCscx2lCY9pHX3_9lens_core8baseline24competitive_benchmarkingNtB2_26CompetitiveBenchmarkRunner25run_competitive_benchmark
FN:298,_RNvMNtNtCscx2lCY9pHX3_9lens_core8baseline24competitive_benchmarkingNtB2_26CompetitiveBenchmarkRunner26calculate_resource_metrics
FN:327,_RNvMNtNtCscx2lCY9pHX3_9lens_core8baseline24competitive_benchmarkingNtB2_26CompetitiveBenchmarkRunner28perform_statistical_analysis
FN:221,_RNvMNtNtCscx2lCY9pHX3_9lens_core8baseline24competitive_benchmarkingNtB2_26CompetitiveBenchmarkRunner29calculate_performance_metrics
FN:276,_RNvMNtNtCscx2lCY9pHX3_9lens_core8baseline24competitive_benchmarkingNtB2_26CompetitiveBenchmarkRunner35calculate_aggregate_quality_metrics
FN:385,_RNvNtNtNtCscx2lCY9pHX3_9lens_core8baseline24competitive_benchmarking5testss_30test_benchmark_config_creation
FN:393,_RNvNtNtNtCscx2lCY9pHX3_9lens_core8baseline24competitive_benchmarking5testss_33test_competitive_benchmark_runner
FN:91,_RNvMNtNtCscx2lCY9pHX3_9lens_core8baseline24competitive_benchmarkingNtB2_26CompetitiveBenchmarkRunner3new
FN:368,_RNvXs_NtNtCscx2lCY9pHX3_9lens_core8baseline24competitive_benchmarkingNtB4_15BenchmarkConfigNtNtCs66KPHxksi63_4core7default7Default7default
FNDA:0,_RNCNCNvMNtNtCscx2lCY9pHX3_9lens_core8baseline24competitive_benchmarkingNtB6_26CompetitiveBenchmarkRunner25run_competitive_benchmark00Ba_
FNDA:0,_RNCNvMNtNtCscx2lCY9pHX3_9lens_core8baseline24competitive_benchmarkingNtB4_26CompetitiveBenchmarkRunner16run_warmup_phase0B8_
FNDA:0,_RNCNvMNtNtCscx2lCY9pHX3_9lens_core8baseline24competitive_benchmarkingNtB4_26CompetitiveBenchmarkRunner17measure_cpu_usage0B8_
FNDA:0,_RNCNvMNtNtCscx2lCY9pHX3_9lens_core8baseline24competitive_benchmarkingNtB4_26CompetitiveBenchmarkRunner20measure_memory_usage0B8_
FNDA:0,_RNCNvMNtNtCscx2lCY9pHX3_9lens_core8baseline24competitive_benchmarkingNtB4_26CompetitiveBenchmarkRunner21run_measurement_phase0B8_
FNDA:0,_RNCNvMNtNtCscx2lCY9pHX3_9lens_core8baseline24competitive_benchmarkingNtB4_26CompetitiveBenchmarkRunner25run_competitive_benchmark0B8_
FNDA:0,_RNCNvMNtNtCscx2lCY9pHX3_9lens_core8baseline24competitive_benchmarkingNtB4_26CompetitiveBenchmarkRunner29calculate_performance_metrics0B8_
FNDA:0,_RNvMNtNtCscx2lCY9pHX3_9lens_core8baseline24competitive_benchmarkingNtB2_26CompetitiveBenchmarkRunner16run_warmup_phase
FNDA:0,_RNvMNtNtCscx2lCY9pHX3_9lens_core8baseline24competitive_benchmarkingNtB2_26CompetitiveBenchmarkRunner17measure_cpu_usage
FNDA:0,_RNvMNtNtCscx2lCY9pHX3_9lens_core8baseline24competitive_benchmarkingNtB2_26CompetitiveBenchmarkRunner20measure_memory_usage
FNDA:0,_RNvMNtNtCscx2lCY9pHX3_9lens_core8baseline24competitive_benchmarkingNtB2_26CompetitiveBenchmarkRunner21run_measurement_phase
FNDA:0,_RNvMNtNtCscx2lCY9pHX3_9lens_core8baseline24competitive_benchmarkingNtB2_26CompetitiveBenchmarkRunner23calculate_quality_score
FNDA:0,_RNvMNtNtCscx2lCY9pHX3_9lens_core8baseline24competitive_benchmarkingNtB2_26CompetitiveBenchmarkRunner23evaluate_sla_compliance
FNDA:0,_RNvMNtNtCscx2lCY9pHX3_9lens_core8baseline24competitive_benchmarkingNtB2_26CompetitiveBenchmarkRunner25run_competitive_benchmark
FNDA:0,_RNvMNtNtCscx2lCY9pHX3_9lens_core8baseline24competitive_benchmarkingNtB2_26CompetitiveBenchmarkRunner26calculate_resource_metrics
FNDA:0,_RNvMNtNtCscx2lCY9pHX3_9lens_core8baseline24competitive_benchmarkingNtB2_26CompetitiveBenchmarkRunner28perform_statistical_analysis
FNDA:0,_RNvMNtNtCscx2lCY9pHX3_9lens_core8baseline24competitive_benchmarkingNtB2_26CompetitiveBenchmarkRunner29calculate_performance_metrics
FNDA:0,_RNvMNtNtCscx2lCY9pHX3_9lens_core8baseline24competitive_benchmarkingNtB2_26CompetitiveBenchmarkRunner35calculate_aggregate_quality_metrics
FNDA:1,_RNvNtNtNtCscx2lCY9pHX3_9lens_core8baseline24competitive_benchmarking5testss_30test_benchmark_config_creation
FNDA:1,_RNvNtNtNtCscx2lCY9pHX3_9lens_core8baseline24competitive_benchmarking5testss_33test_competitive_benchmark_runner
FNDA:1,_RNvMNtNtCscx2lCY9pHX3_9lens_core8baseline24competitive_benchmarkingNtB2_26CompetitiveBenchmarkRunner3new
FNDA:2,_RNvXs_NtNtCscx2lCY9pHX3_9lens_core8baseline24competitive_benchmarkingNtB4_15BenchmarkConfigNtNtCs66KPHxksi63_4core7default7Default7default
FNF:22
FNH:4
DA:91,1
DA:92,1
DA:93,1
DA:95,0
DA:96,0
DA:97,0
DA:98,0
DA:99,0
DA:100,0
DA:102,0
DA:103,0
DA:104,0
DA:105,0
DA:106,0
DA:109,0
DA:110,0
DA:113,0
DA:116,0
DA:117,0
DA:121,0
DA:123,0
DA:124,0
DA:125,0
DA:126,0
DA:127,0
DA:128,0
DA:129,0
DA:130,0
DA:132,0
DA:133,0
DA:135,0
DA:136,0
DA:138,0
DA:139,0
DA:140,0
DA:141,0
DA:142,0
DA:143,0
DA:145,0
DA:147,0
DA:148,0
DA:152,0
DA:154,0
DA:155,0
DA:156,0
DA:158,0
DA:159,0
DA:160,0
DA:161,0
DA:162,0
DA:163,0
DA:165,0
DA:166,0
DA:167,0
DA:169,0
DA:170,0
DA:173,0
DA:174,0
DA:176,0
DA:177,0
DA:179,0
DA:180,0
DA:181,0
DA:182,0
DA:183,0
DA:184,0
DA:185,0
DA:186,0
DA:187,0
DA:188,0
DA:189,0
DA:190,0
DA:191,0
DA:192,0
DA:193,0
DA:196,0
DA:197,0
DA:202,0
DA:203,0
DA:204,0
DA:207,0
DA:208,0
DA:209,0
DA:210,0
DA:212,0
DA:213,0
DA:214,0
DA:215,0
DA:216,0
DA:217,0
DA:218,0
DA:219,0
DA:221,0
DA:222,0
DA:223,0
DA:224,0
DA:225,0
DA:226,0
DA:227,0
DA:228,0
DA:229,0
DA:230,0
DA:231,0
DA:232,0
DA:233,0
DA:234,0
DA:235,0
DA:237,0
DA:238,0
DA:240,0
DA:241,0
DA:242,0
DA:244,0
DA:245,0
DA:247,0
DA:248,0
DA:250,0
DA:251,0
DA:252,0
DA:253,0
DA:254,0
DA:255,0
DA:256,0
DA:257,0
DA:259,0
DA:261,0
DA:262,0
DA:264,0
DA:267,0
DA:268,0
DA:269,0
DA:270,0
DA:271,0
DA:272,0
DA:273,0
DA:274,0
DA:276,0
DA:277,0
DA:278,0
DA:279,0
DA:280,0
DA:281,0
DA:282,0
DA:283,0
DA:284,0
DA:285,0
DA:287,0
DA:290,0
DA:291,0
DA:292,0
DA:293,0
DA:294,0
DA:296,0
DA:298,0
DA:299,0
DA:300,0
DA:301,0
DA:302,0
DA:303,0
DA:304,0
DA:305,0
DA:306,0
DA:307,0
DA:308,0
DA:309,0
DA:310,0
DA:311,0
DA:312,0
DA:314,0
DA:315,0
DA:316,0
DA:317,0
DA:320,0
DA:321,0
DA:322,0
DA:323,0
DA:325,0
DA:327,0
DA:328,0
DA:329,0
DA:330,0
DA:331,0
DA:334,0
DA:335,0
DA:336,0
DA:337,0
DA:338,0
DA:339,0
DA:341,0
DA:342,0
DA:343,0
DA:344,0
DA:345,0
DA:346,0
DA:347,0
DA:349,0
DA:350,0
DA:351,0
DA:353,0
DA:354,0
DA:355,0
DA:368,2
DA:369,2
DA:370,2
DA:371,2
DA:372,2
DA:373,2
DA:374,2
DA:375,2
DA:376,2
DA:377,2
DA:385,1
DA:386,1
DA:387,1
DA:388,1
DA:389,1
DA:390,1
DA:393,1
DA:394,1
DA:395,1
DA:396,1
DA:397,1
BRF:0
BRH:0
LF:229
LH:24
end_of_record
SF:/home/nathan/Projects/lens/src/baseline/hybrid_lexical_dense.rs
FN:658,_RNCNCNCNvMs0_NtNtCscx2lCY9pHX3_9lens_core8baseline20hybrid_lexical_denseNtBb_14HybridSearcher16tokenize_content0s_00Bf_
FN:645,_RNCNCNvMs0_NtNtCscx2lCY9pHX3_9lens_core8baseline20hybrid_lexical_denseNtB9_14HybridSearcher12fuse_results00Bd_
FN:655,_RNCNCNvMs0_NtNtCscx2lCY9pHX3_9lens_core8baseline20hybrid_lexical_denseNtB9_14HybridSearcher16tokenize_content00Bd_
FN:661,_RNCNCNvMs0_NtNtCscx2lCY9pHX3_9lens_core8baseline20hybrid_lexical_denseNtB9_14HybridSearcher16tokenize_content0s0_0Bd_
FN:656,_RNCNCNvMs0_NtNtCscx2lCY9pHX3_9lens_core8baseline20hybrid_lexical_denseNtB9_14HybridSearcher16tokenize_content0s_0Bd_
FN:532,_RNCNCNvMs0_NtNtCscx2lCY9pHX3_9lens_core8baseline20hybrid_lexical_denseNtB9_14HybridSearcher19get_lexical_results00Bd_
FN:564,_RNCNCNvMs0_NtNtCscx2lCY9pHX3_9lens_core8baseline20hybrid_lexical_denseNtB9_14HybridSearcher20get_semantic_results00Bd_
FN:577,_RNCNCNvMs0_NtNtCscx2lCY9pHX3_9lens_core8baseline20hybrid_lexical_denseNtB9_14HybridSearcher20get_semantic_results0s_0Bd_
FN:584,_RNCNvMs0_NtNtCscx2lCY9pHX3_9lens_core8baseline20hybrid_lexical_denseNtB7_14HybridSearcher12fuse_results0Bb_
FN:315,_RNCNvMs0_NtNtCscx2lCY9pHX3_9lens_core8baseline20hybrid_lexical_denseNtB7_14HybridSearcher15index_documents0Bb_
FN:768,_RNCNvMs0_NtNtCscx2lCY9pHX3_9lens_core8baseline20hybrid_lexical_denseNtB7_14HybridSearcher16generate_snippet0Bb_
FN:652,_RNCNvMs0_NtNtCscx2lCY9pHX3_9lens_core8baseline20hybrid_lexical_denseNtB7_14HybridSearcher16tokenize_content0Bb_
FN:402,_RNCNvMs0_NtNtCscx2lCY9pHX3_9lens_core8baseline20hybrid_lexical_denseNtB7_14HybridSearcher19add_to_hybrid_index0Bb_
FN:678,_RNCNvMs0_NtNtCscx2lCY9pHX3_9lens_core8baseline20hybrid_lexical_denseNtB7_14HybridSearcher19find_term_positions0Bb_
FN:488,_RNCNvMs0_NtNtCscx2lCY9pHX3_9lens_core8baseline20hybrid_lexical_denseNtB7_14HybridSearcher19get_lexical_results0Bb_
FN:539,_RNCNvMs0_NtNtCscx2lCY9pHX3_9lens_core8baseline20hybrid_lexical_denseNtB7_14HybridSearcher20get_semantic_results0Bb_
FN:434,_RNCNvMs0_NtNtCscx2lCY9pHX3_9lens_core8baseline20hybrid_lexical_denseNtB7_14HybridSearcher21execute_hybrid_search0Bb_
FN:342,_RNCNvMs0_NtNtCscx2lCY9pHX3_9lens_core8baseline20hybrid_lexical_denseNtB7_14HybridSearcher22create_hybrid_document0Bb_
FN:792,_RNCNvMs0_NtNtCscx2lCY9pHX3_9lens_core8baseline20hybrid_lexical_denseNtB7_14HybridSearcher22find_matched_functions0Bb_
FN:228,_RNCNvMs_NtNtCscx2lCY9pHX3_9lens_core8baseline20hybrid_lexical_denseNtB6_16EmbeddingService14embed_function0Ba_
FN:584,_RNvMs0_NtNtCscx2lCY9pHX3_9lens_core8baseline20hybrid_lexical_denseNtB5_14HybridSearcher12fuse_results
FN:706,_RNvMs0_NtNtCscx2lCY9pHX3_9lens_core8baseline20hybrid_lexical_denseNtB5_14HybridSearcher15extract_classes
FN:315,_RNvMs0_NtNtCscx2lCY9pHX3_9lens_core8baseline20hybrid_lexical_denseNtB5_14HybridSearcher15index_documents
FN:762,_RNvMs0_NtNtCscx2lCY9pHX3_9lens_core8baseline20hybrid_lexical_denseNtB5_14HybridSearcher16generate_snippet
FN:652,_RNvMs0_NtNtCscx2lCY9pHX3_9lens_core8baseline20hybrid_lexical_denseNtB5_14HybridSearcher16tokenize_content
FN:734,_RNvMs0_NtNtCscx2lCY9pHX3_9lens_core8baseline20hybrid_lexical_denseNtB5_14HybridSearcher18extract_class_body
FN:779,_RNvMs0_NtNtCscx2lCY9pHX3_9lens_core8baseline20hybrid_lexical_denseNtB5_14HybridSearcher18find_matched_terms
FN:402,_RNvMs0_NtNtCscx2lCY9pHX3_9lens_core8baseline20hybrid_lexical_denseNtB5_14HybridSearcher19add_to_hybrid_index
FN:675,_RNvMs0_NtNtCscx2lCY9pHX3_9lens_core8baseline20hybrid_lexical_denseNtB5_14HybridSearcher19find_term_positions
FN:488,_RNvMs0_NtNtCscx2lCY9pHX3_9lens_core8baseline20hybrid_lexical_denseNtB5_14HybridSearcher19get_lexical_results
FN:539,_RNvMs0_NtNtCscx2lCY9pHX3_9lens_core8baseline20hybrid_lexical_denseNtB5_14HybridSearcher20get_semantic_results
FN:434,_RNvMs0_NtNtCscx2lCY9pHX3_9lens_core8baseline20hybrid_lexical_denseNtB5_14HybridSearcher21execute_hybrid_search
FN:729,_RNvMs0_NtNtCscx2lCY9pHX3_9lens_core8baseline20hybrid_lexical_denseNtB5_14HybridSearcher21extract_function_body
FN:342,_RNvMs0_NtNtCscx2lCY9pHX3_9lens_core8baseline20hybrid_lexical_denseNtB5_14HybridSearcher22create_hybrid_document
FN:789,_RNvMs0_NtNtCscx2lCY9pHX3_9lens_core8baseline20hybrid_lexical_denseNtB5_14HybridSearcher22find_matched_functions
FN:739,_RNvMs0_NtNtCscx2lCY9pHX3_9lens_core8baseline20hybrid_lexical_denseNtB5_14HybridSearcher26calculate_complexity_score
FN:667,_RNvMs0_NtNtCscx2lCY9pHX3_9lens_core8baseline20hybrid_lexical_denseNtB5_14HybridSearcher26calculate_term_frequencies
FN:228,_RNvMs_NtNtCscx2lCY9pHX3_9lens_core8baseline20hybrid_lexical_denseNtB4_16EmbeddingService14embed_function
FN:889,_RNvXsi_NtNtCscx2lCY9pHX3_9lens_core8baseline20hybrid_lexical_denseNtB5_14HybridSearcherNtB7_16BaselineSearcher10get_config
FN:919,_RNvXsi_NtNtCscx2lCY9pHX3_9lens_core8baseline20hybrid_lexical_denseNtB5_14HybridSearcherNtB7_16BaselineSearcher14get_statistics
FN:828,_RNvXsi_NtNtCscx2lCY9pHX3_9lens_core8baseline20hybrid_lexical_denseNtB5_14HybridSearcherNtB7_16BaselineSearcher6search
FN:471,_RNCNCNvMs0_NtNtCscx2lCY9pHX3_9lens_core8baseline20hybrid_lexical_denseNtB9_14HybridSearcher13process_query00Bd_
FN:472,_RNCNCNvMs0_NtNtCscx2lCY9pHX3_9lens_core8baseline20hybrid_lexical_denseNtB9_14HybridSearcher13process_query0s_0Bd_
FN:217,_RNCNCNvMs_NtNtCscx2lCY9pHX3_9lens_core8baseline20hybrid_lexical_denseNtB8_16EmbeddingService10embed_text00Bc_
FN:460,_RNCNvMs0_NtNtCscx2lCY9pHX3_9lens_core8baseline20hybrid_lexical_denseNtB7_14HybridSearcher13process_query0Bb_
FN:745,_RNCNvMs0_NtNtCscx2lCY9pHX3_9lens_core8baseline20hybrid_lexical_denseNtB7_14HybridSearcher18expand_query_terms0Bb_
FN:266,_RNCNvMs0_NtNtCscx2lCY9pHX3_9lens_core8baseline20hybrid_lexical_denseNtB7_14HybridSearcher3new0Bb_
FN:206,_RNCNvMs_NtNtCscx2lCY9pHX3_9lens_core8baseline20hybrid_lexical_denseNtB6_16EmbeddingService10embed_text0Ba_
FN:251,_RNCNvMs_NtNtCscx2lCY9pHX3_9lens_core8baseline20hybrid_lexical_denseNtB6_16EmbeddingService11simple_hash0Ba_
FN:239,_RNCNvMs_NtNtCscx2lCY9pHX3_9lens_core8baseline20hybrid_lexical_denseNtB6_16EmbeddingService17cosine_similarity0Ba_
FN:241,_RNCNvMs_NtNtCscx2lCY9pHX3_9lens_core8baseline20hybrid_lexical_denseNtB6_16EmbeddingService17cosine_similaritys0_0Ba_
FN:240,_RNCNvMs_NtNtCscx2lCY9pHX3_9lens_core8baseline20hybrid_lexical_denseNtB6_16EmbeddingService17cosine_similaritys_0Ba_
FN:110,_RNvMNtNtCscx2lCY9pHX3_9lens_core8baseline20hybrid_lexical_denseNtB2_12HybridConfig11high_recall
FN:98,_RNvMNtNtCscx2lCY9pHX3_9lens_core8baseline20hybrid_lexical_denseNtB2_12HybridConfig14code_optimized
FN:63,_RNvMNtNtCscx2lCY9pHX3_9lens_core8baseline20hybrid_lexical_denseNtB2_12HybridConfig15balanced_hybrid
FN:460,_RNvMs0_NtNtCscx2lCY9pHX3_9lens_core8baseline20hybrid_lexical_denseNtB5_14HybridSearcher13process_query
FN:682,_RNvMs0_NtNtCscx2lCY9pHX3_9lens_core8baseline20hybrid_lexical_denseNtB5_14HybridSearcher17extract_functions
FN:745,_RNvMs0_NtNtCscx2lCY9pHX3_9lens_core8baseline20hybrid_lexical_denseNtB5_14HybridSearcher18expand_query_terms
FN:266,_RNvMs0_NtNtCscx2lCY9pHX3_9lens_core8baseline20hybrid_lexical_denseNtB5_14HybridSearcher3new
FN:206,_RNvMs_NtNtCscx2lCY9pHX3_9lens_core8baseline20hybrid_lexical_denseNtB4_16EmbeddingService10embed_text
FN:250,_RNvMs_NtNtCscx2lCY9pHX3_9lens_core8baseline20hybrid_lexical_denseNtB4_16EmbeddingService11simple_hash
FN:234,_RNvMs_NtNtCscx2lCY9pHX3_9lens_core8baseline20hybrid_lexical_denseNtB4_16EmbeddingService17cosine_similarity
FN:198,_RNvMs_NtNtCscx2lCY9pHX3_9lens_core8baseline20hybrid_lexical_denseNtB4_16EmbeddingService3new
FN:824,_RNvXsi_NtNtCscx2lCY9pHX3_9lens_core8baseline20hybrid_lexical_denseNtB5_14HybridSearcherNtB7_16BaselineSearcher11system_name
FN:992,_RNvNtNtNtCscx2lCY9pHX3_9lens_core8baseline20hybrid_lexical_dense5testss_20test_config_variants
FN:964,_RNvNtNtNtCscx2lCY9pHX3_9lens_core8baseline20hybrid_lexical_dense5testss_21test_query_processing
FN:948,_RNvNtNtNtCscx2lCY9pHX3_9lens_core8baseline20hybrid_lexical_dense5testss_22test_embedding_service
FN:980,_RNvNtNtNtCscx2lCY9pHX3_9lens_core8baseline20hybrid_lexical_dense5testss_24test_function_extraction
FN:938,_RNvNtNtNtCscx2lCY9pHX3_9lens_core8baseline20hybrid_lexical_dense5testss_29test_hybrid_searcher_creation
FN:964,_RNCNvNtNtNtCscx2lCY9pHX3_9lens_core8baseline20hybrid_lexical_dense5testss_21test_query_processing0B9_
FN:948,_RNCNvNtNtNtCscx2lCY9pHX3_9lens_core8baseline20hybrid_lexical_dense5testss_22test_embedding_service0B9_
FN:980,_RNCNvNtNtNtCscx2lCY9pHX3_9lens_core8baseline20hybrid_lexical_dense5testss_24test_function_extraction0B9_
FN:938,_RNCNvNtNtNtCscx2lCY9pHX3_9lens_core8baseline20hybrid_lexical_dense5testss_29test_hybrid_searcher_creation0B9_
FNDA:0,_RNCNCNCNvMs0_NtNtCscx2lCY9pHX3_9lens_core8baseline20hybrid_lexical_denseNtBb_14HybridSearcher16tokenize_content0s_00Bf_
FNDA:0,_RNCNCNvMs0_NtNtCscx2lCY9pHX3_9lens_core8baseline20hybrid_lexical_denseNtB9_14HybridSearcher12fuse_results00Bd_
FNDA:0,_RNCNCNvMs0_NtNtCscx2lCY9pHX3_9lens_core8baseline20hybrid_lexical_denseNtB9_14HybridSearcher16tokenize_content00Bd_
FNDA:0,_RNCNCNvMs0_NtNtCscx2lCY9pHX3_9lens_core8baseline20hybrid_lexical_denseNtB9_14HybridSearcher16tokenize_content0s0_0Bd_
FNDA:0,_RNCNCNvMs0_NtNtCscx2lCY9pHX3_9lens_core8baseline20hybrid_lexical_denseNtB9_14HybridSearcher16tokenize_content0s_0Bd_
FNDA:0,_RNCNCNvMs0_NtNtCscx2lCY9pHX3_9lens_core8baseline20hybrid_lexical_denseNtB9_14HybridSearcher19get_lexical_results00Bd_
FNDA:0,_RNCNCNvMs0_NtNtCscx2lCY9pHX3_9lens_core8baseline20hybrid_lexical_denseNtB9_14HybridSearcher20get_semantic_results00Bd_
FNDA:0,_RNCNCNvMs0_NtNtCscx2lCY9pHX3_9lens_core8baseline20hybrid_lexical_denseNtB9_14HybridSearcher20get_semantic_results0s_0Bd_
FNDA:0,_RNCNvMs0_NtNtCscx2lCY9pHX3_9lens_core8baseline20hybrid_lexical_denseNtB7_14HybridSearcher12fuse_results0Bb_
FNDA:0,_RNCNvMs0_NtNtCscx2lCY9pHX3_9lens_core8baseline20hybrid_lexical_denseNtB7_14HybridSearcher15index_documents0Bb_
FNDA:0,_RNCNvMs0_NtNtCscx2lCY9pHX3_9lens_core8baseline20hybrid_lexical_denseNtB7_14HybridSearcher16generate_snippet0Bb_
FNDA:0,_RNCNvMs0_NtNtCscx2lCY9pHX3_9lens_core8baseline20hybrid_lexical_denseNtB7_14HybridSearcher16tokenize_content0Bb_
FNDA:0,_RNCNvMs0_NtNtCscx2lCY9pHX3_9lens_core8baseline20hybrid_lexical_denseNtB7_14HybridSearcher19add_to_hybrid_index0Bb_
FNDA:0,_RNCNvMs0_NtNtCscx2lCY9pHX3_9lens_core8baseline20hybrid_lexical_denseNtB7_14HybridSearcher19find_term_positions0Bb_
FNDA:0,_RNCNvMs0_NtNtCscx2lCY9pHX3_9lens_core8baseline20hybrid_lexical_denseNtB7_14HybridSearcher19get_lexical_results0Bb_
FNDA:0,_RNCNvMs0_NtNtCscx2lCY9pHX3_9lens_core8baseline20hybrid_lexical_denseNtB7_14HybridSearcher20get_semantic_results0Bb_
FNDA:0,_RNCNvMs0_NtNtCscx2lCY9pHX3_9lens_core8baseline20hybrid_lexical_denseNtB7_14HybridSearcher21execute_hybrid_search0Bb_
FNDA:0,_RNCNvMs0_NtNtCscx2lCY9pHX3_9lens_core8baseline20hybrid_lexical_denseNtB7_14HybridSearcher22create_hybrid_document0Bb_
FNDA:0,_RNCNvMs0_NtNtCscx2lCY9pHX3_9lens_core8baseline20hybrid_lexical_denseNtB7_14HybridSearcher22find_matched_functions0Bb_
FNDA:0,_RNCNvMs_NtNtCscx2lCY9pHX3_9lens_core8baseline20hybrid_lexical_denseNtB6_16EmbeddingService14embed_function0Ba_
FNDA:0,_RNvMs0_NtNtCscx2lCY9pHX3_9lens_core8baseline20hybrid_lexical_denseNtB5_14HybridSearcher12fuse_results
FNDA:0,_RNvMs0_NtNtCscx2lCY9pHX3_9lens_core8baseline20hybrid_lexical_denseNtB5_14HybridSearcher15extract_classes
FNDA:0,_RNvMs0_NtNtCscx2lCY9pHX3_9lens_core8baseline20hybrid_lexical_denseNtB5_14HybridSearcher15index_documents
FNDA:0,_RNvMs0_NtNtCscx2lCY9pHX3_9lens_core8baseline20hybrid_lexical_denseNtB5_14HybridSearcher16generate_snippet
FNDA:0,_RNvMs0_NtNtCscx2lCY9pHX3_9lens_core8baseline20hybrid_lexical_denseNtB5_14HybridSearcher16tokenize_content
FNDA:0,_RNvMs0_NtNtCscx2lCY9pHX3_9lens_core8baseline20hybrid_lexical_denseNtB5_14HybridSearcher18extract_class_body
FNDA:0,_RNvMs0_NtNtCscx2lCY9pHX3_9lens_core8baseline20hybrid_lexical_denseNtB5_14HybridSearcher18find_matched_terms
FNDA:0,_RNvMs0_NtNtCscx2lCY9pHX3_9lens_core8baseline20hybrid_lexical_denseNtB5_14HybridSearcher19add_to_hybrid_index
FNDA:0,_RNvMs0_NtNtCscx2lCY9pHX3_9lens_core8baseline20hybrid_lexical_denseNtB5_14HybridSearcher19find_term_positions
FNDA:0,_RNvMs0_NtNtCscx2lCY9pHX3_9lens_core8baseline20hybrid_lexical_denseNtB5_14HybridSearcher19get_lexical_results
FNDA:0,_RNvMs0_NtNtCscx2lCY9pHX3_9lens_core8baseline20hybrid_lexical_denseNtB5_14HybridSearcher20get_semantic_results
FNDA:0,_RNvMs0_NtNtCscx2lCY9pHX3_9lens_core8baseline20hybrid_lexical_denseNtB5_14HybridSearcher21execute_hybrid_search
FNDA:0,_RNvMs0_NtNtCscx2lCY9pHX3_9lens_core8baseline20hybrid_lexical_denseNtB5_14HybridSearcher21extract_function_body
FNDA:0,_RNvMs0_NtNtCscx2lCY9pHX3_9lens_core8baseline20hybrid_lexical_denseNtB5_14HybridSearcher22create_hybrid_document
FNDA:0,_RNvMs0_NtNtCscx2lCY9pHX3_9lens_core8baseline20hybrid_lexical_denseNtB5_14HybridSearcher22find_matched_functions
FNDA:0,_RNvMs0_NtNtCscx2lCY9pHX3_9lens_core8baseline20hybrid_lexical_denseNtB5_14HybridSearcher26calculate_complexity_score
FNDA:0,_RNvMs0_NtNtCscx2lCY9pHX3_9lens_core8baseline20hybrid_lexical_denseNtB5_14HybridSearcher26calculate_term_frequencies
FNDA:0,_RNvMs_NtNtCscx2lCY9pHX3_9lens_core8baseline20hybrid_lexical_denseNtB4_16EmbeddingService14embed_function
FNDA:0,_RNvXsi_NtNtCscx2lCY9pHX3_9lens_core8baseline20hybrid_lexical_denseNtB5_14HybridSearcherNtB7_16BaselineSearcher10get_config
FNDA:0,_RNvXsi_NtNtCscx2lCY9pHX3_9lens_core8baseline20hybrid_lexical_denseNtB5_14HybridSearcherNtB7_16BaselineSearcher14get_statistics
FNDA:0,_RNvXsi_NtNtCscx2lCY9pHX3_9lens_core8baseline20hybrid_lexical_denseNtB5_14HybridSearcherNtB7_16BaselineSearcher6search
FNDA:3,_RNCNCNvMs0_NtNtCscx2lCY9pHX3_9lens_core8baseline20hybrid_lexical_denseNtB9_14HybridSearcher13process_query00Bd_
FNDA:3,_RNCNCNvMs0_NtNtCscx2lCY9pHX3_9lens_core8baseline20hybrid_lexical_denseNtB9_14HybridSearcher13process_query0s_0Bd_
FNDA:1152,_RNCNCNvMs_NtNtCscx2lCY9pHX3_9lens_core8baseline20hybrid_lexical_denseNtB8_16EmbeddingService10embed_text00Bc_
FNDA:1,_RNCNvMs0_NtNtCscx2lCY9pHX3_9lens_core8baseline20hybrid_lexical_denseNtB7_14HybridSearcher13process_query0Bb_
FNDA:1,_RNCNvMs0_NtNtCscx2lCY9pHX3_9lens_core8baseline20hybrid_lexical_denseNtB7_14HybridSearcher18expand_query_terms0Bb_
FNDA:3,_RNCNvMs0_NtNtCscx2lCY9pHX3_9lens_core8baseline20hybrid_lexical_denseNtB7_14HybridSearcher3new0Bb_
FNDA:4,_RNCNvMs_NtNtCscx2lCY9pHX3_9lens_core8baseline20hybrid_lexical_denseNtB6_16EmbeddingService10embed_text0Ba_
FNDA:80,_RNCNvMs_NtNtCscx2lCY9pHX3_9lens_core8baseline20hybrid_lexical_denseNtB6_16EmbeddingService11simple_hash0Ba_
FNDA:128,_RNCNvMs_NtNtCscx2lCY9pHX3_9lens_core8baseline20hybrid_lexical_denseNtB6_16EmbeddingService17cosine_similarity0Ba_
FNDA:128,_RNCNvMs_NtNtCscx2lCY9pHX3_9lens_core8baseline20hybrid_lexical_denseNtB6_16EmbeddingService17cosine_similaritys0_0Ba_
FNDA:128,_RNCNvMs_NtNtCscx2lCY9pHX3_9lens_core8baseline20hybrid_lexical_denseNtB6_16EmbeddingService17cosine_similaritys_0Ba_
FNDA:1,_RNvMNtNtCscx2lCY9pHX3_9lens_core8baseline20hybrid_lexical_denseNtB2_12HybridConfig11high_recall
FNDA:1,_RNvMNtNtCscx2lCY9pHX3_9lens_core8baseline20hybrid_lexical_denseNtB2_12HybridConfig14code_optimized
FNDA:6,_RNvMNtNtCscx2lCY9pHX3_9lens_core8baseline20hybrid_lexical_denseNtB2_12HybridConfig15balanced_hybrid
FNDA:1,_RNvMs0_NtNtCscx2lCY9pHX3_9lens_core8baseline20hybrid_lexical_denseNtB5_14HybridSearcher13process_query
FNDA:1,_RNvMs0_NtNtCscx2lCY9pHX3_9lens_core8baseline20hybrid_lexical_denseNtB5_14HybridSearcher17extract_functions
FNDA:1,_RNvMs0_NtNtCscx2lCY9pHX3_9lens_core8baseline20hybrid_lexical_denseNtB5_14HybridSearcher18expand_query_terms
FNDA:3,_RNvMs0_NtNtCscx2lCY9pHX3_9lens_core8baseline20hybrid_lexical_denseNtB5_14HybridSearcher3new
FNDA:4,_RNvMs_NtNtCscx2lCY9pHX3_9lens_core8baseline20hybrid_lexical_denseNtB4_16EmbeddingService10embed_text
FNDA:4,_RNvMs_NtNtCscx2lCY9pHX3_9lens_core8baseline20hybrid_lexical_denseNtB4_16EmbeddingService11simple_hash
FNDA:1,_RNvMs_NtNtCscx2lCY9pHX3_9lens_core8baseline20hybrid_lexical_denseNtB4_16EmbeddingService17cosine_similarity
FNDA:4,_RNvMs_NtNtCscx2lCY9pHX3_9lens_core8baseline20hybrid_lexical_denseNtB4_16EmbeddingService3new
FNDA:1,_RNvXsi_NtNtCscx2lCY9pHX3_9lens_core8baseline20hybrid_lexical_denseNtB5_14HybridSearcherNtB7_16BaselineSearcher11system_name
FNDA:1,_RNvNtNtNtCscx2lCY9pHX3_9lens_core8baseline20hybrid_lexical_dense5testss_20test_config_variants
FNDA:1,_RNvNtNtNtCscx2lCY9pHX3_9lens_core8baseline20hybrid_lexical_dense5testss_21test_query_processing
FNDA:1,_RNvNtNtNtCscx2lCY9pHX3_9lens_core8baseline20hybrid_lexical_dense5testss_22test_embedding_service
FNDA:1,_RNvNtNtNtCscx2lCY9pHX3_9lens_core8baseline20hybrid_lexical_dense5testss_24test_function_extraction
FNDA:1,_RNvNtNtNtCscx2lCY9pHX3_9lens_core8baseline20hybrid_lexical_dense5testss_29test_hybrid_searcher_creation
FNDA:1,_RNCNvNtNtNtCscx2lCY9pHX3_9lens_core8baseline20hybrid_lexical_dense5testss_21test_query_processing0B9_
FNDA:1,_RNCNvNtNtNtCscx2lCY9pHX3_9lens_core8baseline20hybrid_lexical_dense5testss_22test_embedding_service0B9_
FNDA:1,_RNCNvNtNtNtCscx2lCY9pHX3_9lens_core8baseline20hybrid_lexical_dense5testss_24test_function_extraction0B9_
FNDA:1,_RNCNvNtNtNtCscx2lCY9pHX3_9lens_core8baseline20hybrid_lexical_dense5testss_29test_hybrid_searcher_creation0B9_
FNF:73
FNH:32
DA:63,6
DA:64,6
DA:65,6
DA:66,6
DA:67,6
DA:68,6
DA:69,6
DA:70,6
DA:71,6
DA:72,6
DA:73,6
DA:74,6
DA:75,6
DA:76,6
DA:77,6
DA:78,6
DA:79,6
DA:81,6
DA:82,6
DA:83,6
DA:84,6
DA:85,6
DA:86,6
DA:87,6
DA:88,6
DA:89,6
DA:90,6
DA:91,6
DA:92,6
DA:93,6
DA:94,6
DA:95,6
DA:98,1
DA:99,1
DA:100,1
DA:101,1
DA:102,1
DA:103,1
DA:104,1
DA:105,1
DA:106,1
DA:107,1
DA:110,1
DA:111,1
DA:112,1
DA:113,1
DA:114,1
DA:115,1
DA:116,1
DA:117,1
DA:118,1
DA:198,4
DA:199,4
DA:200,4
DA:201,4
DA:202,4
DA:203,4
DA:206,4
DA:208,4
DA:211,4
DA:212,1152
DA:213,1152
DA:214,1152
DA:217,1152
DA:218,4
DA:219,1156
DA:220,1152
DA:221,1152
DA:222,0
DA:224,4
DA:225,4
DA:228,0
DA:229,0
DA:230,0
DA:231,0
DA:234,1
DA:235,1
DA:236,0
DA:237,1
DA:239,128
DA:240,128
DA:241,128
DA:243,1
DA:244,0
DA:245,1
DA:247,1
DA:248,1
DA:250,4
DA:251,80
DA:252,4
DA:266,3
DA:267,3
DA:268,3
DA:274,3
DA:275,3
DA:278,3
DA:279,3
DA:280,3
DA:283,3
DA:284,3
DA:285,3
DA:286,3
DA:287,3
DA:288,3
DA:289,3
DA:290,3
DA:291,3
DA:292,3
DA:293,3
DA:295,3
DA:296,3
DA:297,3
DA:298,3
DA:299,3
DA:300,3
DA:301,3
DA:302,3
DA:303,3
DA:305,3
DA:306,3
DA:307,3
DA:308,3
DA:309,3
DA:310,3
DA:311,3
DA:312,3
DA:315,0
DA:316,0
DA:317,0
DA:319,0
DA:321,0
DA:322,0
DA:323,0
DA:327,0
DA:328,0
DA:329,0
DA:330,0
DA:331,0
DA:332,0
DA:334,0
DA:336,0
DA:337,0
DA:338,0
DA:339,0
DA:342,0
DA:344,0
DA:345,0
DA:348,0
DA:349,0
DA:352,0
DA:353,0
DA:355,0
DA:356,0
DA:357,0
DA:358,0
DA:359,0
DA:360,0
DA:364,0
DA:365,0
DA:367,0
DA:368,0
DA:369,0
DA:370,0
DA:371,0
DA:372,0
DA:376,0
DA:377,0
DA:378,0
DA:379,0
DA:380,0
DA:381,0
DA:382,0
DA:383,0
DA:385,0
DA:387,0
DA:388,0
DA:389,0
DA:390,0
DA:391,0
DA:392,0
DA:393,0
DA:394,0
DA:395,0
DA:396,0
DA:397,0
DA:398,0
DA:399,0
DA:402,0
DA:403,0
DA:406,0
DA:407,0
DA:408,0
DA:409,0
DA:410,0
DA:411,0
DA:412,0
DA:413,0
DA:414,0
DA:415,0
DA:416,0
DA:417,0
DA:420,0
DA:422,0
DA:423,0
DA:424,0
DA:427,0
DA:428,0
DA:430,0
DA:431,0
DA:434,0
DA:435,0
DA:438,0
DA:439,0
DA:442,0
DA:443,0
DA:446,0
DA:447,0
DA:450,0
DA:453,0
DA:454,0
DA:456,0
DA:457,0
DA:460,1
DA:461,1
DA:462,1
DA:463,1
DA:464,1
DA:465,1
DA:466,1
DA:469,1
DA:470,1
DA:471,3
DA:472,3
DA:473,1
DA:476,1
DA:477,1
DA:478,0
DA:481,1
DA:482,1
DA:484,1
DA:485,1
DA:488,0
DA:489,0
DA:492,0
DA:494,0
DA:495,0
DA:496,0
DA:497,0
DA:499,0
DA:502,0
DA:503,0
DA:504,0
DA:505,0
DA:507,0
DA:508,0
DA:509,0
DA:510,0
DA:511,0
DA:512,0
DA:513,0
DA:514,0
DA:515,0
DA:516,0
DA:517,0
DA:518,0
DA:519,0
DA:521,0
DA:525,0
DA:526,0
DA:527,0
DA:528,0
DA:529,0
DA:530,0
DA:532,0
DA:533,0
DA:535,0
DA:536,0
DA:539,0
DA:540,0
DA:541,0
DA:544,0
DA:545,0
DA:547,0
DA:548,0
DA:549,0
DA:550,0
DA:551,0
DA:552,0
DA:556,0
DA:557,0
DA:558,0
DA:560,0
DA:562,0
DA:564,0
DA:565,0
DA:566,0
DA:567,0
DA:568,0
DA:569,0
DA:570,0
DA:571,0
DA:572,0
DA:577,0
DA:578,0
DA:580,0
DA:581,0
DA:584,0
DA:585,0
DA:586,0
DA:589,0
DA:592,0
DA:593,0
DA:594,0
DA:597,0
DA:598,0
DA:599,0
DA:600,0
DA:603,0
DA:604,0
DA:605,0
DA:607,0
DA:609,0
DA:610,0
DA:614,0
DA:615,0
DA:616,0
DA:620,0
DA:621,0
DA:625,0
DA:626,0
DA:627,0
DA:628,0
DA:629,0
DA:630,0
DA:631,0
DA:632,0
DA:633,0
DA:634,0
DA:635,0
DA:636,0
DA:637,0
DA:638,0
DA:639,0
DA:640,0
DA:641,0
DA:645,0
DA:647,0
DA:648,0
DA:652,0
DA:653,0
DA:654,0
DA:655,0
DA:656,0
DA:657,0
DA:658,0
DA:659,0
DA:660,0
DA:661,0
DA:662,0
DA:664,0
DA:665,0
DA:667,0
DA:668,0
DA:669,0
DA:670,0
DA:671,0
DA:672,0
DA:673,0
DA:675,0
DA:676,0
DA:677,0
DA:678,0
DA:679,0
DA:680,0
DA:682,1
DA:683,1
DA:686,1
DA:687,1
DA:688,1
DA:689,0
DA:690,0
DA:693,3
DA:694,2
DA:695,2
DA:696,2
DA:697,2
DA:698,2
DA:700,0
DA:703,1
DA:704,1
DA:706,0
DA:707,0
DA:709,0
DA:710,0
DA:711,0
DA:712,0
DA:713,0
DA:716,0
DA:717,0
DA:718,0
DA:719,0
DA:720,0
DA:721,0
DA:723,0
DA:726,0
DA:727,0
DA:729,0
DA:731,0
DA:732,0
DA:734,0
DA:736,0
DA:737,0
DA:739,0
DA:741,0
DA:742,0
DA:743,0
DA:745,1
DA:747,1
DA:749,4
DA:751,3
DA:752,3
DA:753,2
DA:754,2
DA:755,2
DA:759,1
DA:760,1
DA:762,0
DA:763,0
DA:766,0
DA:767,0
DA:768,0
DA:769,0
DA:770,0
DA:771,0
DA:772,0
DA:776,0
DA:777,0
DA:779,0
DA:780,0
DA:781,0
DA:782,0
DA:783,0
DA:784,0
DA:786,0
DA:787,0
DA:789,0
DA:790,0
DA:791,0
DA:792,0
DA:793,0
DA:794,0
DA:796,0
DA:797,0
DA:824,1
DA:825,1
DA:826,1
DA:828,0
DA:887,0
DA:889,0
DA:890,0
DA:891,0
DA:892,0
DA:893,0
DA:894,0
DA:896,0
DA:897,0
DA:898,0
DA:899,0
DA:900,0
DA:901,0
DA:902,0
DA:903,0
DA:904,0
DA:905,0
DA:906,0
DA:907,0
DA:908,0
DA:909,0
DA:910,0
DA:911,0
DA:912,0
DA:913,0
DA:914,0
DA:915,0
DA:916,0
DA:917,0
DA:919,0
DA:921,0
DA:938,1
DA:939,1
DA:940,1
DA:942,1
DA:943,1
DA:944,1
DA:945,1
DA:948,1
DA:949,1
DA:951,1
DA:952,1
DA:953,1
DA:955,1
DA:956,1
DA:957,1
DA:959,1
DA:960,1
DA:961,1
DA:964,1
DA:965,1
DA:966,1
DA:968,1
DA:969,1
DA:971,1
DA:972,1
DA:973,1
DA:974,1
DA:975,1
DA:976,1
DA:977,1
DA:980,1
DA:981,1
DA:982,1
DA:984,1
DA:985,1
DA:987,1
DA:988,1
DA:989,1
DA:992,1
DA:993,1
DA:994,1
DA:995,1
DA:997,1
DA:998,1
DA:999,1
DA:1000,1
DA:1001,1
DA:1003,1
DA:1004,1
DA:1005,1
DA:1006,1
DA:1007,1
BRF:0
BRH:0
LF:579
LH:234
end_of_record
SF:/home/nathan/Projects/lens/src/baseline/mod.rs
FN:160,_RNCNvNtCscx2lCY9pHX3_9lens_core8baseline27create_baseline_competitors0B5_
FN:160,_RNvNtCscx2lCY9pHX3_9lens_core8baseline27create_baseline_competitors
FN:40,_RNvYpNtNtCscx2lCY9pHX3_9lens_core8baseline16BaselineSearcher6warmupB7_
FN:267,_RNvNtNtCscx2lCY9pHX3_9lens_core8baseline5testss_34test_insufficient_margin_detection
FN:232,_RNvNtNtCscx2lCY9pHX3_9lens_core8baseline5testss_38test_performance_comparison_validation
FN:190,_RNvNtCscx2lCY9pHX3_9lens_core8baseline27validate_performance_margin
FNDA:0,_RNCNvNtCscx2lCY9pHX3_9lens_core8baseline27create_baseline_competitors0B5_
FNDA:0,_RNvNtCscx2lCY9pHX3_9lens_core8baseline27create_baseline_competitors
FNDA:0,_RNvYpNtNtCscx2lCY9pHX3_9lens_core8baseline16BaselineSearcher6warmupB7_
FNDA:1,_RNvNtNtCscx2lCY9pHX3_9lens_core8baseline5testss_34test_insufficient_margin_detection
FNDA:1,_RNvNtNtCscx2lCY9pHX3_9lens_core8baseline5testss_38test_performance_comparison_validation
FNDA:2,_RNvNtCscx2lCY9pHX3_9lens_core8baseline27validate_performance_margin
FNF:6
FNH:3
DA:40,0
DA:42,0
DA:160,0
DA:161,0
DA:164,0
DA:165,0
DA:166,0
DA:167,0
DA:170,0
DA:171,0
DA:172,0
DA:173,0
DA:176,0
DA:177,0
DA:178,0
DA:179,0
DA:181,0
DA:182,0
DA:183,0
DA:184,0
DA:186,0
DA:187,0
DA:190,2
DA:193,2
DA:195,4
DA:196,3
DA:197,2
DA:198,1
DA:199,0
DA:202,1
DA:203,1
DA:204,1
DA:208,1
DA:209,0
DA:210,0
DA:211,1
DA:214,2
DA:215,1
DA:216,0
DA:217,0
DA:220,0
DA:221,1
DA:224,1
DA:225,2
DA:232,1
DA:233,1
DA:234,1
DA:235,1
DA:236,1
DA:237,1
DA:238,1
DA:239,1
DA:240,1
DA:241,1
DA:243,1
DA:244,1
DA:245,1
DA:246,1
DA:247,1
DA:248,1
DA:249,1
DA:250,1
DA:251,1
DA:252,1
DA:253,1
DA:254,1
DA:255,1
DA:256,1
DA:257,1
DA:258,1
DA:259,1
DA:260,1
DA:261,1
DA:263,1
DA:264,1
DA:267,1
DA:268,1
DA:269,1
DA:270,1
DA:271,1
DA:272,1
DA:273,1
DA:274,1
DA:275,1
DA:276,1
DA:278,1
DA:279,1
DA:280,1
DA:281,1
DA:282,1
DA:283,1
DA:284,1
DA:285,1
DA:286,1
DA:287,1
DA:288,1
DA:289,1
DA:290,1
DA:291,1
DA:292,1
DA:293,1
DA:294,1
DA:295,1
DA:296,1
DA:298,1
DA:299,1
BRF:0
BRH:0
LF:107
LH:78
end_of_record
SF:/home/nathan/Projects/lens/src/benchmark/attestation_integration.rs
FN:33,_RNCNvMs_NtNtCscx2lCY9pHX3_9lens_core9benchmark23attestation_integrationNtB6_18AttestationManager20generate_attestation0Ba_
FN:33,_RNvMs_NtNtCscx2lCY9pHX3_9lens_core9benchmark23attestation_integrationNtB4_18AttestationManager20generate_attestation
FN:29,_RNvMs_NtNtCscx2lCY9pHX3_9lens_core9benchmark23attestation_integrationNtB4_18AttestationManager3new
FN:15,_RNvXNtNtCscx2lCY9pHX3_9lens_core9benchmark23attestation_integrationNtB2_17AttestationConfigNtNtCs66KPHxksi63_4core7default7Default7default
FNDA:0,_RNCNvMs_NtNtCscx2lCY9pHX3_9lens_core9benchmark23attestation_integrationNtB6_18AttestationManager20generate_attestation0Ba_
FNDA:0,_RNvMs_NtNtCscx2lCY9pHX3_9lens_core9benchmark23attestation_integrationNtB4_18AttestationManager20generate_attestation
FNDA:0,_RNvMs_NtNtCscx2lCY9pHX3_9lens_core9benchmark23attestation_integrationNtB4_18AttestationManager3new
FNDA:0,_RNvXNtNtCscx2lCY9pHX3_9lens_core9benchmark23attestation_integrationNtB2_17AttestationConfigNtNtCs66KPHxksi63_4core7default7Default7default
FNF:4
FNH:0
DA:15,0
DA:16,0
DA:17,0
DA:18,0
DA:19,0
DA:20,0
DA:21,0
DA:29,0
DA:30,0
DA:31,0
DA:33,0
DA:35,0
DA:36,0
DA:37,0
DA:38,0
DA:39,0
DA:40,0
BRF:0
BRH:0
LF:18
LH:0
end_of_record
SF:/home/nathan/Projects/lens/src/benchmark/dataset_loader.rs
FN:235,_RINvMNtNtCscx2lCY9pHX3_9lens_core9benchmark14dataset_loaderNtB3_13DatasetLoader16get_file_contentpEB7_
FN:28,_RINvMNtNtCscx2lCY9pHX3_9lens_core9benchmark14dataset_loaderNtB3_13DatasetLoader19load_golden_queriespEB7_
FN:214,_RINvMNtNtCscx2lCY9pHX3_9lens_core9benchmark14dataset_loaderNtB3_13DatasetLoader20validate_corpus_filepEB7_
FN:110,_RINvMNtNtCscx2lCY9pHX3_9lens_core9benchmark14dataset_loaderNtB3_13DatasetLoader21discover_corpus_filespEB7_
FN:186,_RINvMNtNtCscx2lCY9pHX3_9lens_core9benchmark14dataset_loaderNtB3_13DatasetLoader21generate_corpus_statspEB7_
FN:235,_RNCINvMNtNtCscx2lCY9pHX3_9lens_core9benchmark14dataset_loaderNtB5_13DatasetLoader16get_file_contentpE0B9_
FN:28,_RNCINvMNtNtCscx2lCY9pHX3_9lens_core9benchmark14dataset_loaderNtB5_13DatasetLoader19load_golden_queriespE0B9_
FN:214,_RNCINvMNtNtCscx2lCY9pHX3_9lens_core9benchmark14dataset_loaderNtB5_13DatasetLoader20validate_corpus_filepE0B9_
FN:110,_RNCINvMNtNtCscx2lCY9pHX3_9lens_core9benchmark14dataset_loaderNtB5_13DatasetLoader21discover_corpus_filespE0B9_
FN:186,_RNCINvMNtNtCscx2lCY9pHX3_9lens_core9benchmark14dataset_loaderNtB5_13DatasetLoader21generate_corpus_statspE0B9_
FN:239,_RNCNCINvMNtNtCscx2lCY9pHX3_9lens_core9benchmark14dataset_loaderNtB7_13DatasetLoader16get_file_contentpE00Bb_
FN:31,_RNCNCINvMNtNtCscx2lCY9pHX3_9lens_core9benchmark14dataset_loaderNtB7_13DatasetLoader19load_golden_queriespE00Bb_
FN:124,_RNCNCINvMNtNtCscx2lCY9pHX3_9lens_core9benchmark14dataset_loaderNtB7_13DatasetLoader21discover_corpus_filespE00Bb_
FN:204,_RNCNCINvMNtNtCscx2lCY9pHX3_9lens_core9benchmark14dataset_loaderNtB7_13DatasetLoader21generate_corpus_statspE00Bb_
FN:142,_RNCNCNvMNtNtCscx2lCY9pHX3_9lens_core9benchmark14dataset_loaderNtB6_13DatasetLoader14walk_directory00Ba_
FN:133,_RNCNvMNtNtCscx2lCY9pHX3_9lens_core9benchmark14dataset_loaderNtB4_13DatasetLoader14walk_directory0B8_
FN:132,_RNvMNtNtCscx2lCY9pHX3_9lens_core9benchmark14dataset_loaderNtB2_13DatasetLoader14walk_directory
FN:21,_RINvMNtNtCscx2lCY9pHX3_9lens_core9benchmark14dataset_loaderNtB3_13DatasetLoader3newRNtNtCsiKSG5X70Gj7_3std4path4PathEB7_
FN:21,_RINvMNtNtCscx2lCY9pHX3_9lens_core9benchmark14dataset_loaderNtB3_13DatasetLoader3newReEB7_
FN:70,_RNCNCNCNvMNtNtCscx2lCY9pHX3_9lens_core9benchmark14dataset_loaderNtB8_13DatasetLoader22convert_legacy_queriess1_000Bc_
FN:70,_RNCNCNvMNtNtCscx2lCY9pHX3_9lens_core9benchmark14dataset_loaderNtB6_13DatasetLoader22convert_legacy_queriess1_00Ba_
FN:170,_RNCNvMNtNtCscx2lCY9pHX3_9lens_core9benchmark14dataset_loaderNtB4_13DatasetLoader14is_source_file0B8_
FN:58,_RNCNvMNtNtCscx2lCY9pHX3_9lens_core9benchmark14dataset_loaderNtB4_13DatasetLoader22convert_legacy_queries0B8_
FN:68,_RNCNvMNtNtCscx2lCY9pHX3_9lens_core9benchmark14dataset_loaderNtB4_13DatasetLoader22convert_legacy_queriess0_0B8_
FN:69,_RNCNvMNtNtCscx2lCY9pHX3_9lens_core9benchmark14dataset_loaderNtB4_13DatasetLoader22convert_legacy_queriess1_0B8_
FN:75,_RNCNvMNtNtCscx2lCY9pHX3_9lens_core9benchmark14dataset_loaderNtB4_13DatasetLoader22convert_legacy_queriess2_0B8_
FN:76,_RNCNvMNtNtCscx2lCY9pHX3_9lens_core9benchmark14dataset_loaderNtB4_13DatasetLoader22convert_legacy_queriess3_0B8_
FN:80,_RNCNvMNtNtCscx2lCY9pHX3_9lens_core9benchmark14dataset_loaderNtB4_13DatasetLoader22convert_legacy_queriess4_0B8_
FN:81,_RNCNvMNtNtCscx2lCY9pHX3_9lens_core9benchmark14dataset_loaderNtB4_13DatasetLoader22convert_legacy_queriess5_0B8_
FN:63,_RNCNvMNtNtCscx2lCY9pHX3_9lens_core9benchmark14dataset_loaderNtB4_13DatasetLoader22convert_legacy_queriess_0B8_
FN:270,_RNCNvMs_NtNtCscx2lCY9pHX3_9lens_core9benchmark14dataset_loaderNtB6_11CorpusStats13top_languages0Ba_
FN:273,_RNCNvMs_NtNtCscx2lCY9pHX3_9lens_core9benchmark14dataset_loaderNtB6_11CorpusStats13top_languagess_0Ba_
FN:294,_RNvNtNtNtCscx2lCY9pHX3_9lens_core9benchmark14dataset_loader5testss_23test_query_type_parsing
FN:315,_RNvNtNtNtCscx2lCY9pHX3_9lens_core9benchmark14dataset_loader5testss_25test_directory_skip_logic
FN:304,_RNvNtNtNtCscx2lCY9pHX3_9lens_core9benchmark14dataset_loader5testss_26test_source_file_detection
FN:346,_RNvNtNtNtCscx2lCY9pHX3_9lens_core9benchmark14dataset_loader5testss_28test_corpus_stats_formatting
FN:286,_RNvNtNtNtCscx2lCY9pHX3_9lens_core9benchmark14dataset_loader5testss_28test_dataset_loader_creation
FN:326,_RNvNtNtNtCscx2lCY9pHX3_9lens_core9benchmark14dataset_loader5testss_28test_legacy_query_conversion
FN:168,_RNvMNtNtCscx2lCY9pHX3_9lens_core9benchmark14dataset_loaderNtB2_13DatasetLoader14is_source_file
FN:97,_RNvMNtNtCscx2lCY9pHX3_9lens_core9benchmark14dataset_loaderNtB2_13DatasetLoader16parse_query_type
FN:158,_RNvMNtNtCscx2lCY9pHX3_9lens_core9benchmark14dataset_loaderNtB2_13DatasetLoader21should_skip_directory
FN:53,_RNvMNtNtCscx2lCY9pHX3_9lens_core9benchmark14dataset_loaderNtB2_13DatasetLoader22convert_legacy_queries
FN:268,_RNvMs_NtNtCscx2lCY9pHX3_9lens_core9benchmark14dataset_loaderNtB4_11CorpusStats13top_languages
FN:254,_RNvMs_NtNtCscx2lCY9pHX3_9lens_core9benchmark14dataset_loaderNtB4_11CorpusStats14formatted_size
FN:294,_RNCNvNtNtNtCscx2lCY9pHX3_9lens_core9benchmark14dataset_loader5testss_23test_query_type_parsing0B9_
FN:315,_RNCNvNtNtNtCscx2lCY9pHX3_9lens_core9benchmark14dataset_loader5testss_25test_directory_skip_logic0B9_
FN:304,_RNCNvNtNtNtCscx2lCY9pHX3_9lens_core9benchmark14dataset_loader5testss_26test_source_file_detection0B9_
FN:346,_RNCNvNtNtNtCscx2lCY9pHX3_9lens_core9benchmark14dataset_loader5testss_28test_corpus_stats_formatting0B9_
FN:286,_RNCNvNtNtNtCscx2lCY9pHX3_9lens_core9benchmark14dataset_loader5testss_28test_dataset_loader_creation0B9_
FN:326,_RNCNvNtNtNtCscx2lCY9pHX3_9lens_core9benchmark14dataset_loader5testss_28test_legacy_query_conversion0B9_
FNDA:0,_RINvMNtNtCscx2lCY9pHX3_9lens_core9benchmark14dataset_loaderNtB3_13DatasetLoader16get_file_contentpEB7_
FNDA:0,_RINvMNtNtCscx2lCY9pHX3_9lens_core9benchmark14dataset_loaderNtB3_13DatasetLoader19load_golden_queriespEB7_
FNDA:0,_RINvMNtNtCscx2lCY9pHX3_9lens_core9benchmark14dataset_loaderNtB3_13DatasetLoader20validate_corpus_filepEB7_
FNDA:0,_RINvMNtNtCscx2lCY9pHX3_9lens_core9benchmark14dataset_loaderNtB3_13DatasetLoader21discover_corpus_filespEB7_
FNDA:0,_RINvMNtNtCscx2lCY9pHX3_9lens_core9benchmark14dataset_loaderNtB3_13DatasetLoader21generate_corpus_statspEB7_
FNDA:0,_RNCINvMNtNtCscx2lCY9pHX3_9lens_core9benchmark14dataset_loaderNtB5_13DatasetLoader16get_file_contentpE0B9_
FNDA:0,_RNCINvMNtNtCscx2lCY9pHX3_9lens_core9benchmark14dataset_loaderNtB5_13DatasetLoader19load_golden_queriespE0B9_
FNDA:0,_RNCINvMNtNtCscx2lCY9pHX3_9lens_core9benchmark14dataset_loaderNtB5_13DatasetLoader20validate_corpus_filepE0B9_
FNDA:0,_RNCINvMNtNtCscx2lCY9pHX3_9lens_core9benchmark14dataset_loaderNtB5_13DatasetLoader21discover_corpus_filespE0B9_
FNDA:0,_RNCINvMNtNtCscx2lCY9pHX3_9lens_core9benchmark14dataset_loaderNtB5_13DatasetLoader21generate_corpus_statspE0B9_
FNDA:0,_RNCNCINvMNtNtCscx2lCY9pHX3_9lens_core9benchmark14dataset_loaderNtB7_13DatasetLoader16get_file_contentpE00Bb_
FNDA:0,_RNCNCINvMNtNtCscx2lCY9pHX3_9lens_core9benchmark14dataset_loaderNtB7_13DatasetLoader19load_golden_queriespE00Bb_
FNDA:0,_RNCNCINvMNtNtCscx2lCY9pHX3_9lens_core9benchmark14dataset_loaderNtB7_13DatasetLoader21discover_corpus_filespE00Bb_
FNDA:0,_RNCNCINvMNtNtCscx2lCY9pHX3_9lens_core9benchmark14dataset_loaderNtB7_13DatasetLoader21generate_corpus_statspE00Bb_
FNDA:0,_RNCNCNvMNtNtCscx2lCY9pHX3_9lens_core9benchmark14dataset_loaderNtB6_13DatasetLoader14walk_directory00Ba_
FNDA:0,_RNCNvMNtNtCscx2lCY9pHX3_9lens_core9benchmark14dataset_loaderNtB4_13DatasetLoader14walk_directory0B8_
FNDA:0,_RNvMNtNtCscx2lCY9pHX3_9lens_core9benchmark14dataset_loaderNtB2_13DatasetLoader14walk_directory
FNDA:2,_RINvMNtNtCscx2lCY9pHX3_9lens_core9benchmark14dataset_loaderNtB3_13DatasetLoader3newRNtNtCsiKSG5X70Gj7_3std4path4PathEB7_
FNDA:3,_RINvMNtNtCscx2lCY9pHX3_9lens_core9benchmark14dataset_loaderNtB3_13DatasetLoader3newReEB7_
FNDA:1,_RNCNCNCNvMNtNtCscx2lCY9pHX3_9lens_core9benchmark14dataset_loaderNtB8_13DatasetLoader22convert_legacy_queriess1_000Bc_
FNDA:1,_RNCNCNvMNtNtCscx2lCY9pHX3_9lens_core9benchmark14dataset_loaderNtB6_13DatasetLoader22convert_legacy_queriess1_00Ba_
FNDA:5,_RNCNvMNtNtCscx2lCY9pHX3_9lens_core9benchmark14dataset_loaderNtB4_13DatasetLoader14is_source_file0B8_
FNDA:0,_RNCNvMNtNtCscx2lCY9pHX3_9lens_core9benchmark14dataset_loaderNtB4_13DatasetLoader22convert_legacy_queries0B8_
FNDA:1,_RNCNvMNtNtCscx2lCY9pHX3_9lens_core9benchmark14dataset_loaderNtB4_13DatasetLoader22convert_legacy_queriess0_0B8_
FNDA:1,_RNCNvMNtNtCscx2lCY9pHX3_9lens_core9benchmark14dataset_loaderNtB4_13DatasetLoader22convert_legacy_queriess1_0B8_
FNDA:1,_RNCNvMNtNtCscx2lCY9pHX3_9lens_core9benchmark14dataset_loaderNtB4_13DatasetLoader22convert_legacy_queriess2_0B8_
FNDA:1,_RNCNvMNtNtCscx2lCY9pHX3_9lens_core9benchmark14dataset_loaderNtB4_13DatasetLoader22convert_legacy_queriess3_0B8_
FNDA:0,_RNCNvMNtNtCscx2lCY9pHX3_9lens_core9benchmark14dataset_loaderNtB4_13DatasetLoader22convert_legacy_queriess4_0B8_
FNDA:0,_RNCNvMNtNtCscx2lCY9pHX3_9lens_core9benchmark14dataset_loaderNtB4_13DatasetLoader22convert_legacy_queriess5_0B8_
FNDA:1,_RNCNvMNtNtCscx2lCY9pHX3_9lens_core9benchmark14dataset_loaderNtB4_13DatasetLoader22convert_legacy_queriess_0B8_
FNDA:3,_RNCNvMs_NtNtCscx2lCY9pHX3_9lens_core9benchmark14dataset_loaderNtB6_11CorpusStats13top_languages0Ba_
FNDA:3,_RNCNvMs_NtNtCscx2lCY9pHX3_9lens_core9benchmark14dataset_loaderNtB6_11CorpusStats13top_languagess_0Ba_
FNDA:1,_RNvNtNtNtCscx2lCY9pHX3_9lens_core9benchmark14dataset_loader5testss_23test_query_type_parsing
FNDA:1,_RNvNtNtNtCscx2lCY9pHX3_9lens_core9benchmark14dataset_loader5testss_25test_directory_skip_logic
FNDA:1,_RNvNtNtNtCscx2lCY9pHX3_9lens_core9benchmark14dataset_loader5testss_26test_source_file_detection
FNDA:1,_RNvNtNtNtCscx2lCY9pHX3_9lens_core9benchmark14dataset_loader5testss_28test_corpus_stats_formatting
FNDA:1,_RNvNtNtNtCscx2lCY9pHX3_9lens_core9benchmark14dataset_loader5testss_28test_dataset_loader_creation
FNDA:1,_RNvNtNtNtCscx2lCY9pHX3_9lens_core9benchmark14dataset_loader5testss_28test_legacy_query_conversion
FNDA:5,_RNvMNtNtCscx2lCY9pHX3_9lens_core9benchmark14dataset_loaderNtB2_13DatasetLoader14is_source_file
FNDA:5,_RNvMNtNtCscx2lCY9pHX3_9lens_core9benchmark14dataset_loaderNtB2_13DatasetLoader16parse_query_type
FNDA:5,_RNvMNtNtCscx2lCY9pHX3_9lens_core9benchmark14dataset_loaderNtB2_13DatasetLoader21should_skip_directory
FNDA:1,_RNvMNtNtCscx2lCY9pHX3_9lens_core9benchmark14dataset_loaderNtB2_13DatasetLoader22convert_legacy_queries
FNDA:1,_RNvMs_NtNtCscx2lCY9pHX3_9lens_core9benchmark14dataset_loaderNtB4_11CorpusStats13top_languages
FNDA:1,_RNvMs_NtNtCscx2lCY9pHX3_9lens_core9benchmark14dataset_loaderNtB4_11CorpusStats14formatted_size
FNDA:1,_RNCNvNtNtNtCscx2lCY9pHX3_9lens_core9benchmark14dataset_loader5testss_23test_query_type_parsing0B9_
FNDA:1,_RNCNvNtNtNtCscx2lCY9pHX3_9lens_core9benchmark14dataset_loader5testss_25test_directory_skip_logic0B9_
FNDA:1,_RNCNvNtNtNtCscx2lCY9pHX3_9lens_core9benchmark14dataset_loader5testss_26test_source_file_detection0B9_
FNDA:1,_RNCNvNtNtNtCscx2lCY9pHX3_9lens_core9benchmark14dataset_loader5testss_28test_corpus_stats_formatting0B9_
FNDA:1,_RNCNvNtNtNtCscx2lCY9pHX3_9lens_core9benchmark14dataset_loader5testss_28test_dataset_loader_creation0B9_
FNDA:1,_RNCNvNtNtNtCscx2lCY9pHX3_9lens_core9benchmark14dataset_loader5testss_28test_legacy_query_conversion0B9_
FNF:49
FNH:29
DA:21,5
DA:22,5
DA:23,5
DA:24,5
DA:25,5
DA:28,0
DA:29,0
DA:30,0
DA:31,0
DA:36,0
DA:37,0
DA:38,0
DA:39,0
DA:42,0
DA:43,0
DA:44,0
DA:45,0
DA:47,0
DA:48,0
DA:49,0
DA:50,0
DA:53,1
DA:54,1
DA:56,1
DA:57,1
DA:58,1
DA:59,0
DA:60,0
DA:62,1
DA:63,1
DA:64,1
DA:65,1
DA:67,1
DA:68,1
DA:69,1
DA:70,1
DA:71,1
DA:72,1
DA:74,1
DA:75,1
DA:76,1
DA:77,1
DA:79,1
DA:80,1
DA:81,1
DA:83,1
DA:84,1
DA:85,1
DA:86,1
DA:87,1
DA:88,1
DA:89,1
DA:90,1
DA:93,1
DA:94,1
DA:97,5
DA:98,5
DA:99,5
DA:100,4
DA:101,2
DA:102,1
DA:103,1
DA:104,1
DA:105,1
DA:107,5
DA:110,0
DA:111,0
DA:113,0
DA:114,0
DA:115,0
DA:116,0
DA:117,0
DA:119,0
DA:120,0
DA:123,0
DA:124,0
DA:125,0
DA:127,0
DA:128,0
DA:129,0
DA:132,0
DA:133,0
DA:134,0
DA:136,0
DA:137,0
DA:139,0
DA:141,0
DA:142,0
DA:143,0
DA:145,0
DA:146,0
DA:147,0
DA:148,0
DA:149,0
DA:150,0
DA:153,0
DA:154,0
DA:155,0
DA:158,5
DA:159,5
DA:160,5
DA:161,2
DA:162,2
DA:163,2
DA:165,5
DA:168,5
DA:169,5
DA:170,5
DA:171,5
DA:172,5
DA:174,5
DA:175,5
DA:176,2
DA:177,2
DA:178,2
DA:179,2
DA:180,2
DA:181,2
DA:183,5
DA:186,0
DA:187,0
DA:188,0
DA:189,0
DA:190,0
DA:191,0
DA:192,0
DA:194,0
DA:195,0
DA:196,0
DA:197,0
DA:199,0
DA:200,0
DA:201,0
DA:204,0
DA:205,0
DA:206,0
DA:207,0
DA:210,0
DA:211,0
DA:214,0
DA:215,0
DA:217,0
DA:218,0
DA:219,0
DA:220,0
DA:221,0
DA:223,0
DA:224,0
DA:228,0
DA:229,0
DA:232,0
DA:235,0
DA:236,0
DA:238,0
DA:239,0
DA:240,0
DA:254,1
DA:256,1
DA:257,1
DA:259,3
DA:260,2
DA:261,2
DA:262,2
DA:264,1
DA:265,1
DA:268,1
DA:269,1
DA:270,3
DA:271,1
DA:273,3
DA:274,1
DA:275,1
DA:286,1
DA:287,1
DA:288,1
DA:290,1
DA:291,1
DA:294,1
DA:295,1
DA:297,1
DA:298,1
DA:299,1
DA:300,1
DA:301,1
DA:304,1
DA:305,1
DA:307,1
DA:308,1
DA:309,1
DA:310,1
DA:311,1
DA:312,1
DA:315,1
DA:316,1
DA:318,1
DA:319,1
DA:320,1
DA:321,1
DA:322,1
DA:323,1
DA:326,1
DA:327,1
DA:328,1
DA:331,1
DA:332,1
DA:333,1
DA:334,1
DA:337,1
DA:338,1
DA:340,1
DA:341,1
DA:342,1
DA:343,1
DA:346,1
DA:347,1
DA:348,1
DA:349,1
DA:350,1
DA:351,1
DA:352,1
DA:353,1
DA:354,1
DA:355,1
DA:356,1
DA:357,1
DA:358,1
DA:360,1
DA:362,1
DA:363,1
DA:364,1
DA:365,1
DA:366,1
BRF:0
BRH:0
LF:269
LH:166
end_of_record
SF:/home/nathan/Projects/lens/src/benchmark/industry_suites.rs
FN:33,_RNCNvMs_NtNtCscx2lCY9pHX3_9lens_core9benchmark15industry_suitesNtB6_23IndustryBenchmarkRunner14run_all_suites0Ba_
FN:33,_RNvMs_NtNtCscx2lCY9pHX3_9lens_core9benchmark15industry_suitesNtB4_23IndustryBenchmarkRunner14run_all_suites
FN:29,_RNvMs_NtNtCscx2lCY9pHX3_9lens_core9benchmark15industry_suitesNtB4_23IndustryBenchmarkRunner3new
FN:15,_RNvXNtNtCscx2lCY9pHX3_9lens_core9benchmark15industry_suitesNtB2_23IndustryBenchmarkConfigNtNtCs66KPHxksi63_4core7default7Default7default
FNDA:0,_RNCNvMs_NtNtCscx2lCY9pHX3_9lens_core9benchmark15industry_suitesNtB6_23IndustryBenchmarkRunner14run_all_suites0Ba_
FNDA:0,_RNvMs_NtNtCscx2lCY9pHX3_9lens_core9benchmark15industry_suitesNtB4_23IndustryBenchmarkRunner14run_all_suites
FNDA:0,_RNvMs_NtNtCscx2lCY9pHX3_9lens_core9benchmark15industry_suitesNtB4_23IndustryBenchmarkRunner3new
FNDA:0,_RNvXNtNtCscx2lCY9pHX3_9lens_core9benchmark15industry_suitesNtB2_23IndustryBenchmarkConfigNtNtCs66KPHxksi63_4core7default7Default7default
FNF:4
FNH:0
DA:15,0
DA:16,0
DA:17,0
DA:18,0
DA:19,0
DA:20,0
DA:21,0
DA:29,0
DA:30,0
DA:31,0
DA:33,0
DA:35,0
DA:36,0
BRF:0
BRH:0
LF:14
LH:0
end_of_record
SF:/home/nathan/Projects/lens/src/benchmark/mod.rs
FN:162,_RNCNCNvMs_NtCscx2lCY9pHX3_9lens_core9benchmarkNtB8_15BenchmarkRunner13run_benchmark00Ba_
FN:167,_RNCNCNvMs_NtCscx2lCY9pHX3_9lens_core9benchmarkNtB8_15BenchmarkRunner13run_benchmark0s_0Ba_
FN:73,_RNCNvMNtCscx2lCY9pHX3_9lens_core9benchmarkNtB4_21BenchmarkOrchestrator19load_pinned_dataset0B6_
FN:109,_RNCNvMNtCscx2lCY9pHX3_9lens_core9benchmarkNtB4_21BenchmarkOrchestrator20load_dataset_version0B6_
FN:104,_RNCNvMNtCscx2lCY9pHX3_9lens_core9benchmarkNtB4_21BenchmarkOrchestrator23list_available_versions0B6_
FN:85,_RNCNvMNtCscx2lCY9pHX3_9lens_core9benchmarkNtB4_21BenchmarkOrchestrator27validate_corpus_consistency0B6_
FN:157,_RNCNvMs_NtCscx2lCY9pHX3_9lens_core9benchmarkNtB6_15BenchmarkRunner13run_benchmark0B8_
FN:120,_RNvMNtCscx2lCY9pHX3_9lens_core9benchmarkNtB2_21BenchmarkOrchestrator18get_dataset_loader
FN:73,_RNvMNtCscx2lCY9pHX3_9lens_core9benchmarkNtB2_21BenchmarkOrchestrator19load_pinned_dataset
FN:109,_RNvMNtCscx2lCY9pHX3_9lens_core9benchmarkNtB2_21BenchmarkOrchestrator20load_dataset_version
FN:104,_RNvMNtCscx2lCY9pHX3_9lens_core9benchmarkNtB2_21BenchmarkOrchestrator23list_available_versions
FN:85,_RNvMNtCscx2lCY9pHX3_9lens_core9benchmarkNtB2_21BenchmarkOrchestrator27validate_corpus_consistency
FN:125,_RNvMNtCscx2lCY9pHX3_9lens_core9benchmarkNtB2_21BenchmarkOrchestrator6config
FN:152,_RNvMs_NtCscx2lCY9pHX3_9lens_core9benchmarkNtB4_15BenchmarkRunner13run_benchmark
FN:299,_RNCNvNtNtCscx2lCY9pHX3_9lens_core9benchmark5testss_30test_benchmark_config_defaults0B7_
FN:288,_RNCNvNtNtCscx2lCY9pHX3_9lens_core9benchmark5testss_36test_benchmark_orchestrator_creation0B7_
FN:299,_RNvNtNtCscx2lCY9pHX3_9lens_core9benchmark5testss_30test_benchmark_config_defaults
FN:288,_RNvNtNtCscx2lCY9pHX3_9lens_core9benchmark5testss_36test_benchmark_orchestrator_creation
FN:61,_RNvMNtCscx2lCY9pHX3_9lens_core9benchmarkNtB2_21BenchmarkOrchestrator11with_config
FN:55,_RNvMNtCscx2lCY9pHX3_9lens_core9benchmarkNtB2_21BenchmarkOrchestrator3new
FN:139,_RNvMs_NtCscx2lCY9pHX3_9lens_core9benchmarkNtB4_15BenchmarkRunner3new
FN:61,_RNCNvMNtCscx2lCY9pHX3_9lens_core9benchmarkNtB4_21BenchmarkOrchestrator11with_config0B6_
FN:55,_RNCNvMNtCscx2lCY9pHX3_9lens_core9benchmarkNtB4_21BenchmarkOrchestrator3new0B6_
FNDA:0,_RNCNCNvMs_NtCscx2lCY9pHX3_9lens_core9benchmarkNtB8_15BenchmarkRunner13run_benchmark00Ba_
FNDA:0,_RNCNCNvMs_NtCscx2lCY9pHX3_9lens_core9benchmarkNtB8_15BenchmarkRunner13run_benchmark0s_0Ba_
FNDA:0,_RNCNvMNtCscx2lCY9pHX3_9lens_core9benchmarkNtB4_21BenchmarkOrchestrator19load_pinned_dataset0B6_
FNDA:0,_RNCNvMNtCscx2lCY9pHX3_9lens_core9benchmarkNtB4_21BenchmarkOrchestrator20load_dataset_version0B6_
FNDA:0,_RNCNvMNtCscx2lCY9pHX3_9lens_core9benchmarkNtB4_21BenchmarkOrchestrator23list_available_versions0B6_
FNDA:0,_RNCNvMNtCscx2lCY9pHX3_9lens_core9benchmarkNtB4_21BenchmarkOrchestrator27validate_corpus_consistency0B6_
FNDA:0,_RNCNvMs_NtCscx2lCY9pHX3_9lens_core9benchmarkNtB6_15BenchmarkRunner13run_benchmark0B8_
FNDA:0,_RNvMNtCscx2lCY9pHX3_9lens_core9benchmarkNtB2_21BenchmarkOrchestrator18get_dataset_loader
FNDA:0,_RNvMNtCscx2lCY9pHX3_9lens_core9benchmarkNtB2_21BenchmarkOrchestrator19load_pinned_dataset
FNDA:0,_RNvMNtCscx2lCY9pHX3_9lens_core9benchmarkNtB2_21BenchmarkOrchestrator20load_dataset_version
FNDA:0,_RNvMNtCscx2lCY9pHX3_9lens_core9benchmarkNtB2_21BenchmarkOrchestrator23list_available_versions
FNDA:0,_RNvMNtCscx2lCY9pHX3_9lens_core9benchmarkNtB2_21BenchmarkOrchestrator27validate_corpus_consistency
FNDA:0,_RNvMNtCscx2lCY9pHX3_9lens_core9benchmarkNtB2_21BenchmarkOrchestrator6config
FNDA:0,_RNvMs_NtCscx2lCY9pHX3_9lens_core9benchmarkNtB4_15BenchmarkRunner13run_benchmark
FNDA:1,_RNCNvNtNtCscx2lCY9pHX3_9lens_core9benchmark5testss_30test_benchmark_config_defaults0B7_
FNDA:1,_RNCNvNtNtCscx2lCY9pHX3_9lens_core9benchmark5testss_36test_benchmark_orchestrator_creation0B7_
FNDA:1,_RNvNtNtCscx2lCY9pHX3_9lens_core9benchmark5testss_30test_benchmark_config_defaults
FNDA:1,_RNvNtNtCscx2lCY9pHX3_9lens_core9benchmark5testss_36test_benchmark_orchestrator_creation
FNDA:1,_RNvMNtCscx2lCY9pHX3_9lens_core9benchmarkNtB2_21BenchmarkOrchestrator11with_config
FNDA:1,_RNvMNtCscx2lCY9pHX3_9lens_core9benchmarkNtB2_21BenchmarkOrchestrator3new
FNDA:32,_RNvMs_NtCscx2lCY9pHX3_9lens_core9benchmarkNtB4_15BenchmarkRunner3new
FNDA:1,_RNCNvMNtCscx2lCY9pHX3_9lens_core9benchmarkNtB4_21BenchmarkOrchestrator11with_config0B6_
FNDA:1,_RNCNvMNtCscx2lCY9pHX3_9lens_core9benchmarkNtB4_21BenchmarkOrchestrator3new0B6_
FNF:23
FNH:9
DA:55,1
DA:56,1
DA:57,1
DA:58,1
DA:61,1
DA:62,1
DA:64,1
DA:66,1
DA:67,1
DA:68,1
DA:69,1
DA:70,1
DA:73,0
DA:74,0
DA:76,0
DA:78,0
DA:79,0
DA:81,0
DA:82,0
DA:85,0
DA:86,0
DA:88,0
DA:90,0
DA:91,0
DA:94,0
DA:95,0
DA:97,0
DA:99,0
DA:101,0
DA:104,0
DA:105,0
DA:106,0
DA:109,0
DA:110,0
DA:112,0
DA:114,0
DA:116,0
DA:117,0
DA:120,0
DA:121,0
DA:122,0
DA:125,0
DA:126,0
DA:127,0
DA:139,32
DA:140,32
DA:141,32
DA:142,32
DA:143,32
DA:144,32
DA:145,32
DA:146,32
DA:147,32
DA:148,32
DA:149,32
DA:152,0
DA:153,0
DA:154,0
DA:155,0
DA:156,0
DA:157,0
DA:158,0
DA:161,0
DA:162,0
DA:165,0
DA:166,0
DA:167,0
DA:168,0
DA:169,0
DA:170,0
DA:171,0
DA:172,0
DA:174,0
DA:177,0
DA:179,0
DA:180,0
DA:181,0
DA:183,0
DA:186,0
DA:187,0
DA:189,0
DA:190,0
DA:191,0
DA:192,0
DA:194,0
DA:195,0
DA:196,0
DA:197,0
DA:199,0
DA:200,0
DA:201,0
DA:206,0
DA:209,0
DA:210,0
DA:212,0
DA:215,0
DA:216,0
DA:217,0
DA:218,0
DA:219,0
DA:221,0
DA:224,0
DA:226,0
DA:227,0
DA:228,0
DA:229,0
DA:230,0
DA:231,0
DA:232,0
DA:233,0
DA:234,0
DA:235,0
DA:236,0
DA:238,0
DA:239,0
DA:241,0
DA:242,0
DA:243,0
DA:244,0
DA:245,0
DA:246,0
DA:247,0
DA:288,1
DA:289,1
DA:292,1
DA:293,1
DA:294,1
DA:295,1
DA:296,1
DA:299,1
DA:300,1
DA:302,1
DA:303,1
DA:304,1
DA:305,1
BRF:0
BRH:0
LF:150
LH:43
end_of_record
SF:/home/nathan/Projects/lens/src/benchmark/pinned_loader.rs
FN:447,_RNCNvMNtNtCscx2lCY9pHX3_9lens_core9benchmark13pinned_loaderNtB4_19PinnedDatasetLoader11clear_cache0B8_
FN:447,_RNvMNtNtCscx2lCY9pHX3_9lens_core9benchmark13pinned_loaderNtB2_19PinnedDatasetLoader11clear_cache
FN:36,_RNvMNtNtCscx2lCY9pHX3_9lens_core9benchmark13pinned_loaderNtB2_19PinnedDatasetLoader11with_config
FN:358,_RNvMNtNtCscx2lCY9pHX3_9lens_core9benchmark13pinned_loaderNtB2_19PinnedDatasetLoader13cache_dataset
FN:425,_RNvMNtNtCscx2lCY9pHX3_9lens_core9benchmark13pinned_loaderNtB2_19PinnedDatasetLoader17get_dataset_slice
FN:437,_RNvMNtNtCscx2lCY9pHX3_9lens_core9benchmark13pinned_loaderNtB2_19PinnedDatasetLoader17get_smoke_dataset
FN:378,_RNvMNtNtCscx2lCY9pHX3_9lens_core9benchmark13pinned_loaderNtB2_19PinnedDatasetLoader19create_mock_dataset
FN:125,_RNvMNtNtCscx2lCY9pHX3_9lens_core9benchmark13pinned_loaderNtB2_19PinnedDatasetLoader22load_dataset_from_file
FN:353,_RNvMNtNtCscx2lCY9pHX3_9lens_core9benchmark13pinned_loaderNtB2_19PinnedDatasetLoader23list_available_versions
FN:158,_RNvMNtNtCscx2lCY9pHX3_9lens_core9benchmark13pinned_loaderNtB2_19PinnedDatasetLoader24convert_legacy_to_pinned
FN:291,_RNvMNtNtCscx2lCY9pHX3_9lens_core9benchmark13pinned_loaderNtB2_19PinnedDatasetLoader27discover_available_versions
FN:59,_RNvMNtNtCscx2lCY9pHX3_9lens_core9benchmark13pinned_loaderNtB2_19PinnedDatasetLoader27load_current_pinned_dataset
FN:91,_RNvMNtNtCscx2lCY9pHX3_9lens_core9benchmark13pinned_loaderNtB2_19PinnedDatasetLoader27load_pinned_dataset_version
FN:203,_RNvMNtNtCscx2lCY9pHX3_9lens_core9benchmark13pinned_loaderNtB2_19PinnedDatasetLoader28validate_dataset_consistency
FN:30,_RNvMNtNtCscx2lCY9pHX3_9lens_core9benchmark13pinned_loaderNtB2_19PinnedDatasetLoader3new
FN:461,_RNvNtNtNtCscx2lCY9pHX3_9lens_core9benchmark13pinned_loader5tests24create_test_dataset_file
FN:507,_RNvNtNtNtCscx2lCY9pHX3_9lens_core9benchmark13pinned_loader5testss_26test_mock_dataset_creation
FN:494,_RNvNtNtNtCscx2lCY9pHX3_9lens_core9benchmark13pinned_loader5testss_27test_pinned_loader_creation
FN:524,_RNvNtNtNtCscx2lCY9pHX3_9lens_core9benchmark13pinned_loader5testss_32test_dataset_loading_and_caching
FN:129,_RNCNCNvMNtNtCscx2lCY9pHX3_9lens_core9benchmark13pinned_loaderNtB6_19PinnedDatasetLoader22load_dataset_from_file00Ba_
FN:306,_RNCNCNvMNtNtCscx2lCY9pHX3_9lens_core9benchmark13pinned_loaderNtB6_19PinnedDatasetLoader27discover_available_versions00Ba_
FN:321,_RNCNCNvMNtNtCscx2lCY9pHX3_9lens_core9benchmark13pinned_loaderNtB6_19PinnedDatasetLoader27discover_available_versions0s0_0Ba_
FN:323,_RNCNCNvMNtNtCscx2lCY9pHX3_9lens_core9benchmark13pinned_loaderNtB6_19PinnedDatasetLoader27discover_available_versions0s1_0Ba_
FN:343,_RNCNCNvMNtNtCscx2lCY9pHX3_9lens_core9benchmark13pinned_loaderNtB6_19PinnedDatasetLoader27discover_available_versions0s2_0Ba_
FN:313,_RNCNCNvMNtNtCscx2lCY9pHX3_9lens_core9benchmark13pinned_loaderNtB6_19PinnedDatasetLoader27discover_available_versions0s_0Ba_
FN:218,_RNCNCNvMNtNtCscx2lCY9pHX3_9lens_core9benchmark13pinned_loaderNtB6_19PinnedDatasetLoader28validate_dataset_consistency00Ba_
FN:251,_RNCNCNvMNtNtCscx2lCY9pHX3_9lens_core9benchmark13pinned_loaderNtB6_19PinnedDatasetLoader28validate_dataset_consistency0s0_0Ba_
FN:219,_RNCNCNvMNtNtCscx2lCY9pHX3_9lens_core9benchmark13pinned_loaderNtB6_19PinnedDatasetLoader28validate_dataset_consistency0s_0Ba_
FN:36,_RNCNvMNtNtCscx2lCY9pHX3_9lens_core9benchmark13pinned_loaderNtB4_19PinnedDatasetLoader11with_config0B8_
FN:358,_RNCNvMNtNtCscx2lCY9pHX3_9lens_core9benchmark13pinned_loaderNtB4_19PinnedDatasetLoader13cache_dataset0B8_
FN:428,_RNCNvMNtNtCscx2lCY9pHX3_9lens_core9benchmark13pinned_loaderNtB4_19PinnedDatasetLoader17get_dataset_slice0B8_
FN:439,_RNCNvMNtNtCscx2lCY9pHX3_9lens_core9benchmark13pinned_loaderNtB4_19PinnedDatasetLoader17get_smoke_dataset0B8_
FN:125,_RNCNvMNtNtCscx2lCY9pHX3_9lens_core9benchmark13pinned_loaderNtB4_19PinnedDatasetLoader22load_dataset_from_file0B8_
FN:353,_RNCNvMNtNtCscx2lCY9pHX3_9lens_core9benchmark13pinned_loaderNtB4_19PinnedDatasetLoader23list_available_versions0B8_
FN:160,_RNCNvMNtNtCscx2lCY9pHX3_9lens_core9benchmark13pinned_loaderNtB4_19PinnedDatasetLoader24convert_legacy_to_pinned0B8_
FN:291,_RNCNvMNtNtCscx2lCY9pHX3_9lens_core9benchmark13pinned_loaderNtB4_19PinnedDatasetLoader27discover_available_versions0B8_
FN:59,_RNCNvMNtNtCscx2lCY9pHX3_9lens_core9benchmark13pinned_loaderNtB4_19PinnedDatasetLoader27load_current_pinned_dataset0B8_
FN:91,_RNCNvMNtNtCscx2lCY9pHX3_9lens_core9benchmark13pinned_loaderNtB4_19PinnedDatasetLoader27load_pinned_dataset_version0B8_
FN:203,_RNCNvMNtNtCscx2lCY9pHX3_9lens_core9benchmark13pinned_loaderNtB4_19PinnedDatasetLoader28validate_dataset_consistency0B8_
FN:30,_RNCNvMNtNtCscx2lCY9pHX3_9lens_core9benchmark13pinned_loaderNtB4_19PinnedDatasetLoader3new0B8_
FN:468,_RNCNCNvNtNtNtCscx2lCY9pHX3_9lens_core9benchmark13pinned_loader5tests24create_test_dataset_file00Bb_
FN:461,_RNCNvNtNtNtCscx2lCY9pHX3_9lens_core9benchmark13pinned_loader5tests24create_test_dataset_file0B9_
FN:507,_RNCNvNtNtNtCscx2lCY9pHX3_9lens_core9benchmark13pinned_loader5testss_26test_mock_dataset_creation0B9_
FN:494,_RNCNvNtNtNtCscx2lCY9pHX3_9lens_core9benchmark13pinned_loader5testss_27test_pinned_loader_creation0B9_
FN:524,_RNCNvNtNtNtCscx2lCY9pHX3_9lens_core9benchmark13pinned_loader5testss_32test_dataset_loading_and_caching0B9_
FNDA:0,_RNCNvMNtNtCscx2lCY9pHX3_9lens_core9benchmark13pinned_loaderNtB4_19PinnedDatasetLoader11clear_cache0B8_
FNDA:0,_RNvMNtNtCscx2lCY9pHX3_9lens_core9benchmark13pinned_loaderNtB2_19PinnedDatasetLoader11clear_cache
FNDA:38,_RNvMNtNtCscx2lCY9pHX3_9lens_core9benchmark13pinned_loaderNtB2_19PinnedDatasetLoader11with_config
FNDA:1,_RNvMNtNtCscx2lCY9pHX3_9lens_core9benchmark13pinned_loaderNtB2_19PinnedDatasetLoader13cache_dataset
FNDA:0,_RNvMNtNtCscx2lCY9pHX3_9lens_core9benchmark13pinned_loaderNtB2_19PinnedDatasetLoader17get_dataset_slice
FNDA:0,_RNvMNtNtCscx2lCY9pHX3_9lens_core9benchmark13pinned_loaderNtB2_19PinnedDatasetLoader17get_smoke_dataset
FNDA:1,_RNvMNtNtCscx2lCY9pHX3_9lens_core9benchmark13pinned_loaderNtB2_19PinnedDatasetLoader19create_mock_dataset
FNDA:1,_RNvMNtNtCscx2lCY9pHX3_9lens_core9benchmark13pinned_loaderNtB2_19PinnedDatasetLoader22load_dataset_from_file
FNDA:1,_RNvMNtNtCscx2lCY9pHX3_9lens_core9benchmark13pinned_loaderNtB2_19PinnedDatasetLoader23list_available_versions
FNDA:0,_RNvMNtNtCscx2lCY9pHX3_9lens_core9benchmark13pinned_loaderNtB2_19PinnedDatasetLoader24convert_legacy_to_pinned
FNDA:35,_RNvMNtNtCscx2lCY9pHX3_9lens_core9benchmark13pinned_loaderNtB2_19PinnedDatasetLoader27discover_available_versions
FNDA:35,_RNvMNtNtCscx2lCY9pHX3_9lens_core9benchmark13pinned_loaderNtB2_19PinnedDatasetLoader27load_current_pinned_dataset
FNDA:36,_RNvMNtNtCscx2lCY9pHX3_9lens_core9benchmark13pinned_loaderNtB2_19PinnedDatasetLoader27load_pinned_dataset_version
FNDA:0,_RNvMNtNtCscx2lCY9pHX3_9lens_core9benchmark13pinned_loaderNtB2_19PinnedDatasetLoader28validate_dataset_consistency
FNDA:1,_RNvMNtNtCscx2lCY9pHX3_9lens_core9benchmark13pinned_loaderNtB2_19PinnedDatasetLoader3new
FNDA:1,_RNvNtNtNtCscx2lCY9pHX3_9lens_core9benchmark13pinned_loader5tests24create_test_dataset_file
FNDA:1,_RNvNtNtNtCscx2lCY9pHX3_9lens_core9benchmark13pinned_loader5testss_26test_mock_dataset_creation
FNDA:1,_RNvNtNtNtCscx2lCY9pHX3_9lens_core9benchmark13pinned_loader5testss_27test_pinned_loader_creation
FNDA:1,_RNvNtNtNtCscx2lCY9pHX3_9lens_core9benchmark13pinned_loader5testss_32test_dataset_loading_and_caching
FNDA:0,_RNCNCNvMNtNtCscx2lCY9pHX3_9lens_core9benchmark13pinned_loaderNtB6_19PinnedDatasetLoader22load_dataset_from_file00Ba_
FNDA:0,_RNCNCNvMNtNtCscx2lCY9pHX3_9lens_core9benchmark13pinned_loaderNtB6_19PinnedDatasetLoader27discover_available_versions00Ba_
FNDA:0,_RNCNCNvMNtNtCscx2lCY9pHX3_9lens_core9benchmark13pinned_loaderNtB6_19PinnedDatasetLoader27discover_available_versions0s0_0Ba_
FNDA:0,_RNCNCNvMNtNtCscx2lCY9pHX3_9lens_core9benchmark13pinned_loaderNtB6_19PinnedDatasetLoader27discover_available_versions0s1_0Ba_
FNDA:0,_RNCNCNvMNtNtCscx2lCY9pHX3_9lens_core9benchmark13pinned_loaderNtB6_19PinnedDatasetLoader27discover_available_versions0s2_0Ba_
FNDA:0,_RNCNCNvMNtNtCscx2lCY9pHX3_9lens_core9benchmark13pinned_loaderNtB6_19PinnedDatasetLoader27discover_available_versions0s_0Ba_
FNDA:0,_RNCNCNvMNtNtCscx2lCY9pHX3_9lens_core9benchmark13pinned_loaderNtB6_19PinnedDatasetLoader28validate_dataset_consistency00Ba_
FNDA:0,_RNCNCNvMNtNtCscx2lCY9pHX3_9lens_core9benchmark13pinned_loaderNtB6_19PinnedDatasetLoader28validate_dataset_consistency0s0_0Ba_
FNDA:0,_RNCNCNvMNtNtCscx2lCY9pHX3_9lens_core9benchmark13pinned_loaderNtB6_19PinnedDatasetLoader28validate_dataset_consistency0s_0Ba_
FNDA:38,_RNCNvMNtNtCscx2lCY9pHX3_9lens_core9benchmark13pinned_loaderNtB4_19PinnedDatasetLoader11with_config0B8_
FNDA:1,_RNCNvMNtNtCscx2lCY9pHX3_9lens_core9benchmark13pinned_loaderNtB4_19PinnedDatasetLoader13cache_dataset0B8_
FNDA:0,_RNCNvMNtNtCscx2lCY9pHX3_9lens_core9benchmark13pinned_loaderNtB4_19PinnedDatasetLoader17get_dataset_slice0B8_
FNDA:0,_RNCNvMNtNtCscx2lCY9pHX3_9lens_core9benchmark13pinned_loaderNtB4_19PinnedDatasetLoader17get_smoke_dataset0B8_
FNDA:1,_RNCNvMNtNtCscx2lCY9pHX3_9lens_core9benchmark13pinned_loaderNtB4_19PinnedDatasetLoader22load_dataset_from_file0B8_
FNDA:1,_RNCNvMNtNtCscx2lCY9pHX3_9lens_core9benchmark13pinned_loaderNtB4_19PinnedDatasetLoader23list_available_versions0B8_
FNDA:0,_RNCNvMNtNtCscx2lCY9pHX3_9lens_core9benchmark13pinned_loaderNtB4_19PinnedDatasetLoader24convert_legacy_to_pinned0B8_
FNDA:35,_RNCNvMNtNtCscx2lCY9pHX3_9lens_core9benchmark13pinned_loaderNtB4_19PinnedDatasetLoader27discover_available_versions0B8_
FNDA:35,_RNCNvMNtNtCscx2lCY9pHX3_9lens_core9benchmark13pinned_loaderNtB4_19PinnedDatasetLoader27load_current_pinned_dataset0B8_
FNDA:36,_RNCNvMNtNtCscx2lCY9pHX3_9lens_core9benchmark13pinned_loaderNtB4_19PinnedDatasetLoader27load_pinned_dataset_version0B8_
FNDA:0,_RNCNvMNtNtCscx2lCY9pHX3_9lens_core9benchmark13pinned_loaderNtB4_19PinnedDatasetLoader28validate_dataset_consistency0B8_
FNDA:1,_RNCNvMNtNtCscx2lCY9pHX3_9lens_core9benchmark13pinned_loaderNtB4_19PinnedDatasetLoader3new0B8_
FNDA:1,_RNCNCNvNtNtNtCscx2lCY9pHX3_9lens_core9benchmark13pinned_loader5tests24create_test_dataset_file00Bb_
FNDA:1,_RNCNvNtNtNtCscx2lCY9pHX3_9lens_core9benchmark13pinned_loader5tests24create_test_dataset_file0B9_
FNDA:1,_RNCNvNtNtNtCscx2lCY9pHX3_9lens_core9benchmark13pinned_loader5testss_26test_mock_dataset_creation0B9_
FNDA:1,_RNCNvNtNtNtCscx2lCY9pHX3_9lens_core9benchmark13pinned_loader5testss_27test_pinned_loader_creation0B9_
FNDA:1,_RNCNvNtNtNtCscx2lCY9pHX3_9lens_core9benchmark13pinned_loader5testss_32test_dataset_loading_and_caching0B9_
FNF:45
FNH:26
DA:30,1
DA:31,1
DA:32,1
DA:33,1
DA:36,38
DA:37,38
DA:38,38
DA:40,38
DA:41,38
DA:42,38
DA:43,38
DA:44,38
DA:47,38
DA:48,35
DA:49,0
DA:51,35
DA:52,3
DA:54,38
DA:55,38
DA:56,38
DA:59,35
DA:60,35
DA:63,35
DA:64,35
DA:66,35
DA:67,0
DA:68,0
DA:69,35
DA:72,35
DA:73,34
DA:74,34
DA:75,1
DA:78,1
DA:79,1
DA:80,0
DA:81,0
DA:82,0
DA:83,1
DA:86,1
DA:87,1
DA:88,35
DA:91,36
DA:92,36
DA:95,36
DA:96,36
DA:97,36
DA:98,1
DA:99,1
DA:100,35
DA:101,0
DA:104,35
DA:105,35
DA:107,35
DA:108,34
DA:109,34
DA:110,34
DA:111,1
DA:113,1
DA:114,1
DA:117,1
DA:118,1
DA:119,0
DA:121,1
DA:122,36
DA:125,1
DA:126,1
DA:128,1
DA:129,1
DA:132,1
DA:133,1
DA:134,1
DA:135,0
DA:136,1
DA:137,0
DA:140,0
DA:141,0
DA:142,0
DA:143,0
DA:145,0
DA:146,0
DA:147,0
DA:148,0
DA:150,0
DA:151,0
DA:152,0
DA:155,1
DA:158,0
DA:159,0
DA:160,0
DA:161,0
DA:162,0
DA:164,0
DA:165,0
DA:167,0
DA:168,0
DA:169,0
DA:170,0
DA:171,0
DA:174,0
DA:175,0
DA:176,0
DA:177,0
DA:178,0
DA:179,0
DA:180,0
DA:181,0
DA:182,0
DA:183,0
DA:186,0
DA:187,0
DA:188,0
DA:191,0
DA:192,0
DA:194,0
DA:195,0
DA:196,0
DA:197,0
DA:198,0
DA:199,0
DA:200,0
DA:203,0
DA:204,0
DA:206,0
DA:207,0
DA:210,0
DA:211,0
DA:212,0
DA:213,0
DA:214,0
DA:215,0
DA:217,0
DA:218,0
DA:219,0
DA:221,0
DA:222,0
DA:223,0
DA:224,0
DA:225,0
DA:226,0
DA:227,0
DA:228,0
DA:229,0
DA:230,0
DA:232,0
DA:233,0
DA:236,0
DA:237,0
DA:238,0
DA:241,0
DA:243,0
DA:244,0
DA:245,0
DA:246,0
DA:247,0
DA:248,0
DA:251,0
DA:253,0
DA:254,0
DA:255,0
DA:256,0
DA:259,0
DA:260,0
DA:261,0
DA:262,0
DA:263,0
DA:264,0
DA:265,0
DA:266,0
DA:267,0
DA:270,0
DA:271,0
DA:273,0
DA:274,0
DA:275,0
DA:277,0
DA:278,0
DA:281,0
DA:282,0
DA:283,0
DA:284,0
DA:285,0
DA:286,0
DA:287,0
DA:288,0
DA:291,35
DA:292,35
DA:294,35
DA:295,35
DA:296,35
DA:297,35
DA:298,0
DA:300,0
DA:301,0
DA:303,0
DA:304,0
DA:305,0
DA:306,0
DA:307,0
DA:310,0
DA:311,0
DA:312,0
DA:313,0
DA:314,0
DA:315,0
DA:317,0
DA:318,0
DA:319,0
DA:320,0
DA:321,0
DA:323,0
DA:326,0
DA:327,0
DA:328,0
DA:331,0
DA:332,0
DA:333,0
DA:334,0
DA:335,0
DA:336,0
DA:337,0
DA:338,0
DA:339,0
DA:343,0
DA:345,0
DA:346,0
DA:348,0
DA:349,0
DA:350,35
DA:353,1
DA:354,1
DA:355,1
DA:358,1
DA:359,1
DA:360,0
DA:361,1
DA:363,1
DA:366,1
DA:368,0
DA:369,0
DA:370,0
DA:371,1
DA:373,1
DA:374,1
DA:375,1
DA:378,1
DA:379,1
DA:380,1
DA:381,1
DA:382,1
DA:383,1
DA:384,1
DA:385,1
DA:386,1
DA:387,1
DA:388,1
DA:389,1
DA:390,1
DA:391,1
DA:392,1
DA:393,1
DA:394,1
DA:395,1
DA:398,1
DA:399,1
DA:401,1
DA:402,1
DA:403,1
DA:404,1
DA:405,1
DA:406,1
DA:407,1
DA:408,1
DA:409,1
DA:410,1
DA:412,1
DA:413,1
DA:414,1
DA:416,1
DA:417,1
DA:418,1
DA:419,1
DA:420,1
DA:421,1
DA:422,1
DA:425,0
DA:426,0
DA:427,0
DA:428,0
DA:429,0
DA:430,0
DA:432,0
DA:434,0
DA:437,0
DA:438,0
DA:439,0
DA:441,0
DA:442,0
DA:443,0
DA:444,0
DA:447,0
DA:448,0
DA:449,0
DA:450,0
DA:451,0
DA:461,1
DA:462,1
DA:463,1
DA:466,1
DA:467,1
DA:468,1
DA:469,1
DA:471,1
DA:472,1
DA:473,1
DA:474,1
DA:475,1
DA:476,1
DA:477,1
DA:478,1
DA:479,1
DA:480,1
DA:481,1
DA:482,1
DA:483,1
DA:484,1
DA:485,1
DA:487,1
DA:488,1
DA:490,1
DA:491,1
DA:494,1
DA:495,1
DA:496,1
DA:497,1
DA:498,1
DA:499,1
DA:500,1
DA:502,1
DA:503,1
DA:504,1
DA:507,1
DA:508,1
DA:509,1
DA:510,1
DA:511,1
DA:512,1
DA:513,1
DA:514,1
DA:516,1
DA:517,1
DA:519,1
DA:520,1
DA:521,1
DA:524,1
DA:525,1
DA:526,1
DA:527,1
DA:528,1
DA:529,1
DA:530,1
DA:531,1
DA:532,1
DA:535,1
DA:536,1
DA:537,1
DA:538,1
DA:539,1
DA:540,1
DA:541,1
DA:542,1
DA:543,1
DA:546,1
DA:547,1
DA:548,1
DA:549,1
DA:550,1
DA:552,1
DA:555,1
DA:556,1
DA:558,1
DA:559,1
DA:560,1
BRF:0
BRH:0
LF:411
LH:218
end_of_record
SF:/home/nathan/Projects/lens/src/benchmark/reporting.rs
FN:73,_RNCNvMs1_NtNtCscx2lCY9pHX3_9lens_core9benchmark9reportingNtB7_15ReportGenerator29generate_comprehensive_report0Bb_
FN:73,_RNvMs1_NtNtCscx2lCY9pHX3_9lens_core9benchmark9reportingNtB5_15ReportGenerator29generate_comprehensive_report
FN:69,_RNvMs1_NtNtCscx2lCY9pHX3_9lens_core9benchmark9reportingNtB5_15ReportGenerator3new
FN:50,_RNvXs0_NtNtCscx2lCY9pHX3_9lens_core9benchmark9reportingNtB5_15ReportingConfigNtNtCs66KPHxksi63_4core7default7Default7default
FN:17,_RNvXNtNtCscx2lCY9pHX3_9lens_core9benchmark9reportingNtB2_12ReportFormatNtNtCs66KPHxksi63_4core7default7Default7default
FN:32,_RNvXs_NtNtCscx2lCY9pHX3_9lens_core9benchmark9reportingNtB4_11DetailLevelNtNtCs66KPHxksi63_4core7default7Default7default
FN:148,_RNvNtNtNtCscx2lCY9pHX3_9lens_core9benchmark9reporting5testss_20test_report_creation
FN:160,_RNvNtNtNtCscx2lCY9pHX3_9lens_core9benchmark9reporting5testss_28test_custom_reporting_config
FN:132,_RNvNtNtNtCscx2lCY9pHX3_9lens_core9benchmark9reporting5testss_28test_report_section_creation
FN:102,_RNvNtNtNtCscx2lCY9pHX3_9lens_core9benchmark9reporting5testss_29test_reporting_config_default
FN:111,_RNvNtNtNtCscx2lCY9pHX3_9lens_core9benchmark9reporting5testss_30test_report_generator_creation
FN:119,_RNvNtNtNtCscx2lCY9pHX3_9lens_core9benchmark9reporting5testss_36test_comprehensive_report_generation
FN:119,_RNCNvNtNtNtCscx2lCY9pHX3_9lens_core9benchmark9reporting5testss_36test_comprehensive_report_generation0B9_
FNDA:1,_RNCNvMs1_NtNtCscx2lCY9pHX3_9lens_core9benchmark9reportingNtB7_15ReportGenerator29generate_comprehensive_report0Bb_
FNDA:1,_RNvMs1_NtNtCscx2lCY9pHX3_9lens_core9benchmark9reportingNtB5_15ReportGenerator29generate_comprehensive_report
FNDA:2,_RNvMs1_NtNtCscx2lCY9pHX3_9lens_core9benchmark9reportingNtB5_15ReportGenerator3new
FNDA:3,_RNvXs0_NtNtCscx2lCY9pHX3_9lens_core9benchmark9reportingNtB5_15ReportingConfigNtNtCs66KPHxksi63_4core7default7Default7default
FNDA:0,_RNvXNtNtCscx2lCY9pHX3_9lens_core9benchmark9reportingNtB2_12ReportFormatNtNtCs66KPHxksi63_4core7default7Default7default
FNDA:0,_RNvXs_NtNtCscx2lCY9pHX3_9lens_core9benchmark9reportingNtB4_11DetailLevelNtNtCs66KPHxksi63_4core7default7Default7default
FNDA:1,_RNvNtNtNtCscx2lCY9pHX3_9lens_core9benchmark9reporting5testss_20test_report_creation
FNDA:1,_RNvNtNtNtCscx2lCY9pHX3_9lens_core9benchmark9reporting5testss_28test_custom_reporting_config
FNDA:1,_RNvNtNtNtCscx2lCY9pHX3_9lens_core9benchmark9reporting5testss_28test_report_section_creation
FNDA:1,_RNvNtNtNtCscx2lCY9pHX3_9lens_core9benchmark9reporting5testss_29test_reporting_config_default
FNDA:1,_RNvNtNtNtCscx2lCY9pHX3_9lens_core9benchmark9reporting5testss_30test_report_generator_creation
FNDA:1,_RNvNtNtNtCscx2lCY9pHX3_9lens_core9benchmark9reporting5testss_36test_comprehensive_report_generation
FNDA:1,_RNCNvNtNtNtCscx2lCY9pHX3_9lens_core9benchmark9reporting5testss_36test_comprehensive_report_generation0B9_
FNF:13
FNH:11
DA:17,0
DA:18,0
DA:19,0
DA:32,0
DA:33,0
DA:34,0
DA:50,3
DA:51,3
DA:52,3
DA:53,3
DA:54,3
DA:55,3
DA:56,3
DA:57,3
DA:58,3
DA:59,3
DA:60,3
DA:61,3
DA:69,2
DA:70,2
DA:71,2
DA:73,1
DA:75,1
DA:76,1
DA:77,1
DA:78,1
DA:79,1
DA:80,1
DA:102,1
DA:103,1
DA:104,1
DA:105,1
DA:106,1
DA:107,1
DA:108,1
DA:111,1
DA:112,1
DA:113,1
DA:114,1
DA:115,1
DA:116,1
DA:119,1
DA:120,1
DA:121,1
DA:123,1
DA:124,1
DA:126,1
DA:127,1
DA:128,1
DA:129,1
DA:132,1
DA:133,1
DA:134,1
DA:136,1
DA:137,1
DA:138,1
DA:139,1
DA:140,1
DA:142,1
DA:143,1
DA:144,1
DA:145,1
DA:148,1
DA:149,1
DA:150,1
DA:151,1
DA:152,1
DA:153,1
DA:155,1
DA:156,1
DA:157,1
DA:160,1
DA:161,1
DA:162,1
DA:163,1
DA:164,1
DA:165,1
DA:166,1
DA:167,1
DA:168,1
DA:169,1
DA:170,1
DA:172,1
DA:173,1
DA:174,1
DA:175,1
DA:176,1
DA:177,1
DA:178,1
BRF:0
BRH:0
LF:92
LH:86
end_of_record
SF:/home/nathan/Projects/lens/src/benchmark/rollout.rs
FN:33,_RNCNvMs_NtNtCscx2lCY9pHX3_9lens_core9benchmark7rolloutNtB6_14RolloutManager22execute_canary_rollout0Ba_
FN:33,_RNvMs_NtNtCscx2lCY9pHX3_9lens_core9benchmark7rolloutNtB4_14RolloutManager22execute_canary_rollout
FN:29,_RNvMs_NtNtCscx2lCY9pHX3_9lens_core9benchmark7rolloutNtB4_14RolloutManager3new
FN:15,_RNvXNtNtCscx2lCY9pHX3_9lens_core9benchmark7rolloutNtB2_13RolloutConfigNtNtCs66KPHxksi63_4core7default7Default7default
FNDA:0,_RNCNvMs_NtNtCscx2lCY9pHX3_9lens_core9benchmark7rolloutNtB6_14RolloutManager22execute_canary_rollout0Ba_
FNDA:0,_RNvMs_NtNtCscx2lCY9pHX3_9lens_core9benchmark7rolloutNtB4_14RolloutManager22execute_canary_rollout
FNDA:0,_RNvMs_NtNtCscx2lCY9pHX3_9lens_core9benchmark7rolloutNtB4_14RolloutManager3new
FNDA:0,_RNvXNtNtCscx2lCY9pHX3_9lens_core9benchmark7rolloutNtB2_13RolloutConfigNtNtCs66KPHxksi63_4core7default7Default7default
FNF:4
FNH:0
DA:15,0
DA:16,0
DA:17,0
DA:18,0
DA:19,0
DA:20,0
DA:21,0
DA:29,0
DA:30,0
DA:31,0
DA:33,0
DA:35,0
DA:36,0
DA:37,0
DA:38,0
DA:39,0
DA:40,0
BRF:0
BRH:0
LF:18
LH:0
end_of_record
SF:/home/nathan/Projects/lens/src/benchmark/statistical_testing.rs
FN:35,_RNCNvMs_NtNtCscx2lCY9pHX3_9lens_core9benchmark19statistical_testingNtB6_21StatisticalTestRunner22run_significance_tests0Ba_
FN:73,_RNCNvNtNtNtCscx2lCY9pHX3_9lens_core9benchmark19statistical_testing5testss_23test_significance_tests0B9_
FN:73,_RNvNtNtNtCscx2lCY9pHX3_9lens_core9benchmark19statistical_testing5testss_23test_significance_tests
FN:115,_RNvNtNtNtCscx2lCY9pHX3_9lens_core9benchmark19statistical_testing5testss_27test_non_significant_result
FN:100,_RNvNtNtNtCscx2lCY9pHX3_9lens_core9benchmark19statistical_testing5testss_30test_custom_statistical_config
FN:57,_RNvNtNtNtCscx2lCY9pHX3_9lens_core9benchmark19statistical_testing5testss_36test_statistical_test_config_default
FN:87,_RNvNtNtNtCscx2lCY9pHX3_9lens_core9benchmark19statistical_testing5testss_37test_statistical_test_result_creation
FN:66,_RNvNtNtNtCscx2lCY9pHX3_9lens_core9benchmark19statistical_testing5testss_37test_statistical_test_runner_creation
FN:35,_RNvMs_NtNtCscx2lCY9pHX3_9lens_core9benchmark19statistical_testingNtB4_21StatisticalTestRunner22run_significance_tests
FN:31,_RNvMs_NtNtCscx2lCY9pHX3_9lens_core9benchmark19statistical_testingNtB4_21StatisticalTestRunner3new
FN:16,_RNvXNtNtCscx2lCY9pHX3_9lens_core9benchmark19statistical_testingNtB2_21StatisticalTestConfigNtNtCs66KPHxksi63_4core7default7Default7default
FNDA:1,_RNCNvMs_NtNtCscx2lCY9pHX3_9lens_core9benchmark19statistical_testingNtB6_21StatisticalTestRunner22run_significance_tests0Ba_
FNDA:1,_RNCNvNtNtNtCscx2lCY9pHX3_9lens_core9benchmark19statistical_testing5testss_23test_significance_tests0B9_
FNDA:1,_RNvNtNtNtCscx2lCY9pHX3_9lens_core9benchmark19statistical_testing5testss_23test_significance_tests
FNDA:1,_RNvNtNtNtCscx2lCY9pHX3_9lens_core9benchmark19statistical_testing5testss_27test_non_significant_result
FNDA:1,_RNvNtNtNtCscx2lCY9pHX3_9lens_core9benchmark19statistical_testing5testss_30test_custom_statistical_config
FNDA:1,_RNvNtNtNtCscx2lCY9pHX3_9lens_core9benchmark19statistical_testing5testss_36test_statistical_test_config_default
FNDA:1,_RNvNtNtNtCscx2lCY9pHX3_9lens_core9benchmark19statistical_testing5testss_37test_statistical_test_result_creation
FNDA:1,_RNvNtNtNtCscx2lCY9pHX3_9lens_core9benchmark19statistical_testing5testss_37test_statistical_test_runner_creation
FNDA:1,_RNvMs_NtNtCscx2lCY9pHX3_9lens_core9benchmark19statistical_testingNtB4_21StatisticalTestRunner22run_significance_tests
FNDA:2,_RNvMs_NtNtCscx2lCY9pHX3_9lens_core9benchmark19statistical_testingNtB4_21StatisticalTestRunner3new
FNDA:3,_RNvXNtNtCscx2lCY9pHX3_9lens_core9benchmark19statistical_testingNtB2_21StatisticalTestConfigNtNtCs66KPHxksi63_4core7default7Default7default
FNF:11
FNH:11
DA:16,3
DA:17,3
DA:18,3
DA:19,3
DA:20,3
DA:21,3
DA:22,3
DA:23,3
DA:31,2
DA:32,2
DA:33,2
DA:35,1
DA:37,1
DA:38,1
DA:39,1
DA:40,1
DA:41,1
DA:42,1
DA:57,1
DA:58,1
DA:59,1
DA:60,1
DA:61,1
DA:62,1
DA:63,1
DA:66,1
DA:67,1
DA:68,1
DA:69,1
DA:70,1
DA:73,1
DA:74,1
DA:75,1
DA:77,1
DA:78,1
DA:80,1
DA:81,1
DA:82,1
DA:83,1
DA:84,1
DA:87,1
DA:88,1
DA:89,1
DA:90,1
DA:91,1
DA:92,1
DA:94,1
DA:95,1
DA:96,1
DA:97,1
DA:100,1
DA:101,1
DA:102,1
DA:103,1
DA:104,1
DA:105,1
DA:106,1
DA:108,1
DA:109,1
DA:110,1
DA:111,1
DA:112,1
DA:115,1
DA:116,1
DA:117,1
DA:118,1
DA:119,1
DA:120,1
DA:122,1
DA:123,1
DA:124,1
DA:125,1
BRF:0
BRH:0
LF:75
LH:75
end_of_record
SF:/home/nathan/Projects/lens/src/benchmark/todo_validation.rs
FN:130,_RNCNvMs1_NtNtCscx2lCY9pHX3_9lens_core9benchmark15todo_validationNtB7_26TodoValidationOrchestrator12validate_all0Bb_
FN:130,_RNvMs1_NtNtCscx2lCY9pHX3_9lens_core9benchmark15todo_validationNtB5_26TodoValidationOrchestrator12validate_all
FN:118,_RNvMs1_NtNtCscx2lCY9pHX3_9lens_core9benchmark15todo_validationNtB5_26TodoValidationOrchestrator3new
FN:33,_RNvXNtNtCscx2lCY9pHX3_9lens_core9benchmark15todo_validationNtB2_20TodoValidationConfigNtNtCs66KPHxksi63_4core7default7Default7default
FN:97,_RNvXs0_NtNtCscx2lCY9pHX3_9lens_core9benchmark15todo_validationNtB5_27ValidationExecutionSettingsNtNtCs66KPHxksi63_4core7default7Default7default
FN:65,_RNvXs_NtNtCscx2lCY9pHX3_9lens_core9benchmark15todo_validationNtB4_16TodoRequirementsNtNtCs66KPHxksi63_4core7default7Default7default
FNDA:0,_RNCNvMs1_NtNtCscx2lCY9pHX3_9lens_core9benchmark15todo_validationNtB7_26TodoValidationOrchestrator12validate_all0Bb_
FNDA:0,_RNvMs1_NtNtCscx2lCY9pHX3_9lens_core9benchmark15todo_validationNtB5_26TodoValidationOrchestrator12validate_all
FNDA:0,_RNvMs1_NtNtCscx2lCY9pHX3_9lens_core9benchmark15todo_validationNtB5_26TodoValidationOrchestrator3new
FNDA:0,_RNvXNtNtCscx2lCY9pHX3_9lens_core9benchmark15todo_validationNtB2_20TodoValidationConfigNtNtCs66KPHxksi63_4core7default7Default7default
FNDA:0,_RNvXs0_NtNtCscx2lCY9pHX3_9lens_core9benchmark15todo_validationNtB5_27ValidationExecutionSettingsNtNtCs66KPHxksi63_4core7default7Default7default
FNDA:0,_RNvXs_NtNtCscx2lCY9pHX3_9lens_core9benchmark15todo_validationNtB4_16TodoRequirementsNtNtCs66KPHxksi63_4core7default7Default7default
FNF:6
FNH:0
DA:33,0
DA:34,0
DA:35,0
DA:36,0
DA:37,0
DA:38,0
DA:39,0
DA:40,0
DA:41,0
DA:42,0
DA:43,0
DA:65,0
DA:66,0
DA:67,0
DA:68,0
DA:69,0
DA:70,0
DA:71,0
DA:72,0
DA:73,0
DA:74,0
DA:75,0
DA:76,0
DA:77,0
DA:78,0
DA:79,0
DA:80,0
DA:81,0
DA:97,0
DA:98,0
DA:99,0
DA:100,0
DA:101,0
DA:102,0
DA:103,0
DA:104,0
DA:105,0
DA:106,0
DA:107,0
DA:118,0
DA:119,0
DA:120,0
DA:121,0
DA:122,0
DA:123,0
DA:124,0
DA:125,0
DA:126,0
DA:127,0
DA:128,0
DA:130,0
DA:134,0
DA:135,0
DA:138,0
DA:139,0
DA:140,0
DA:141,0
DA:142,0
DA:143,0
DA:144,0
DA:145,0
DA:146,0
DA:147,0
DA:148,0
DA:149,0
DA:150,0
DA:151,0
DA:152,0
DA:153,0
DA:154,0
DA:155,0
DA:156,0
DA:157,0
DA:158,0
DA:159,0
DA:160,0
DA:161,0
DA:162,0
DA:163,0
DA:164,0
DA:165,0
DA:166,0
DA:167,0
DA:168,0
DA:169,0
DA:170,0
DA:171,0
DA:172,0
DA:173,0
DA:174,0
DA:175,0
DA:176,0
DA:177,0
DA:179,0
DA:180,0
DA:181,0
DA:182,0
DA:183,0
DA:184,0
DA:185,0
DA:186,0
DA:187,0
DA:189,0
DA:190,0
DA:191,0
DA:192,0
DA:193,0
DA:194,0
DA:195,0
DA:197,0
DA:198,0
DA:199,0
DA:200,0
DA:201,0
DA:202,0
DA:203,0
BRF:0
BRH:0
LF:117
LH:0
end_of_record
SF:/home/nathan/Projects/lens/src/benchmark/types.rs
FN:61,_RNvXNtNtCscx2lCY9pHX3_9lens_core9benchmark5typesNtB2_9QueryTypeNtNtCs66KPHxksi63_4core7default7Default7default
FN:271,_RNvXs0_NtNtCscx2lCY9pHX3_9lens_core9benchmark5typesNtB5_12LoadingErrorINtNtCs66KPHxksi63_4core7convert4FromNtNtNtCsiKSG5X70Gj7_3std2io5error5ErrorE4from
FN:277,_RNvXs1_NtNtCscx2lCY9pHX3_9lens_core9benchmark5typesNtB5_12LoadingErrorINtNtCs66KPHxksi63_4core7convert4FromNtNtCsdpAQltSjYK4_10serde_json5error5ErrorE4from
FN:303,_RNvXs2_NtNtCscx2lCY9pHX3_9lens_core9benchmark5typesNtB5_13DatasetSlicesNtNtCs66KPHxksi63_4core7default7Default7default
FN:336,_RNvNtNtNtCscx2lCY9pHX3_9lens_core9benchmark5types5testss_24test_query_type_variants
FN:354,_RNvNtNtNtCscx2lCY9pHX3_9lens_core9benchmark5types5testss_29test_pinned_dataset_structure
FN:391,_RNvNtNtNtCscx2lCY9pHX3_9lens_core9benchmark5types5testss_30test_benchmark_config_defaults
FN:319,_RNvNtNtNtCscx2lCY9pHX3_9lens_core9benchmark5types5testss_31test_golden_query_serialization
FN:117,_RNvNtNtCscx2lCY9pHX3_9lens_core9benchmark5types20default_dataset_name
FN:197,_RNvXs_NtNtCscx2lCY9pHX3_9lens_core9benchmark5typesNtB4_15BenchmarkConfigNtNtCs66KPHxksi63_4core7default7Default7default
FNDA:0,_RNvXNtNtCscx2lCY9pHX3_9lens_core9benchmark5typesNtB2_9QueryTypeNtNtCs66KPHxksi63_4core7default7Default7default
FNDA:0,_RNvXs0_NtNtCscx2lCY9pHX3_9lens_core9benchmark5typesNtB5_12LoadingErrorINtNtCs66KPHxksi63_4core7convert4FromNtNtNtCsiKSG5X70Gj7_3std2io5error5ErrorE4from
FNDA:0,_RNvXs1_NtNtCscx2lCY9pHX3_9lens_core9benchmark5typesNtB5_12LoadingErrorINtNtCs66KPHxksi63_4core7convert4FromNtNtCsdpAQltSjYK4_10serde_json5error5ErrorE4from
FNDA:0,_RNvXs2_NtNtCscx2lCY9pHX3_9lens_core9benchmark5typesNtB5_13DatasetSlicesNtNtCs66KPHxksi63_4core7default7Default7default
FNDA:1,_RNvNtNtNtCscx2lCY9pHX3_9lens_core9benchmark5types5testss_24test_query_type_variants
FNDA:1,_RNvNtNtNtCscx2lCY9pHX3_9lens_core9benchmark5types5testss_29test_pinned_dataset_structure
FNDA:1,_RNvNtNtNtCscx2lCY9pHX3_9lens_core9benchmark5types5testss_30test_benchmark_config_defaults
FNDA:1,_RNvNtNtNtCscx2lCY9pHX3_9lens_core9benchmark5types5testss_31test_golden_query_serialization
FNDA:0,_RNvNtNtCscx2lCY9pHX3_9lens_core9benchmark5types20default_dataset_name
FNDA:39,_RNvXs_NtNtCscx2lCY9pHX3_9lens_core9benchmark5typesNtB4_15BenchmarkConfigNtNtCs66KPHxksi63_4core7default7Default7default
FNF:10
FNH:5
DA:61,0
DA:62,0
DA:63,0
DA:117,0
DA:118,0
DA:119,0
DA:197,39
DA:198,39
DA:199,39
DA:200,39
DA:201,39
DA:202,39
DA:203,39
DA:204,39
DA:205,39
DA:206,39
DA:207,39
DA:271,0
DA:272,0
DA:273,0
DA:277,0
DA:278,0
DA:279,0
DA:303,0
DA:304,0
DA:305,0
DA:306,0
DA:307,0
DA:308,0
DA:309,0
DA:310,0
DA:319,1
DA:320,1
DA:321,1
DA:322,1
DA:323,1
DA:324,1
DA:325,1
DA:326,1
DA:327,1
DA:329,1
DA:330,1
DA:332,1
DA:333,1
DA:336,1
DA:337,1
DA:338,1
DA:339,1
DA:340,1
DA:341,1
DA:342,1
DA:343,1
DA:346,7
DA:347,6
DA:348,6
DA:349,6
DA:351,1
DA:354,1
DA:355,1
DA:356,1
DA:357,1
DA:358,1
DA:359,1
DA:360,1
DA:361,1
DA:362,1
DA:363,1
DA:364,1
DA:366,1
DA:367,1
DA:368,1
DA:369,1
DA:370,1
DA:371,1
DA:372,1
DA:373,1
DA:375,1
DA:376,1
DA:377,1
DA:378,1
DA:379,1
DA:380,1
DA:383,1
DA:384,1
DA:386,1
DA:387,1
DA:388,1
DA:391,1
DA:392,1
DA:394,1
DA:395,1
DA:396,1
DA:397,1
DA:398,1
BRF:0
BRH:0
LF:94
LH:74
end_of_record
SF:/home/nathan/Projects/lens/src/cache.rs
FN:142,_RNCNCNvMNtCscx2lCY9pHX3_9lens_core5cacheNtB6_9HintCache13cleanup_stale00B8_
FN:138,_RNCNvMNtCscx2lCY9pHX3_9lens_core5cacheNtB4_9HintCache13cleanup_stale0B6_
FN:180,_RNCNvMs0_NtCscx2lCY9pHX3_9lens_core5cacheNtB7_10FileHasher18hash_file_metadata0B9_
FN:138,_RNvMNtCscx2lCY9pHX3_9lens_core5cacheNtB2_9HintCache13cleanup_stale
FN:180,_RNvMs0_NtCscx2lCY9pHX3_9lens_core5cacheNtB5_10FileHasher18hash_file_metadata
FN:130,_RNCNCNvMNtCscx2lCY9pHX3_9lens_core5cacheNtB6_9HintCache9evict_lru0s_0B8_
FN:84,_RNCNvMNtCscx2lCY9pHX3_9lens_core5cacheNtB4_9HintCache10invalidate0B6_
FN:64,_RNCNvMNtCscx2lCY9pHX3_9lens_core5cacheNtB4_9HintCache11store_hints0B6_
FN:92,_RNCNvMNtCscx2lCY9pHX3_9lens_core5cacheNtB4_9HintCache5clear0B6_
FN:100,_RNCNvMNtCscx2lCY9pHX3_9lens_core5cacheNtB4_9HintCache5stats0B6_
FN:126,_RNCNvMNtCscx2lCY9pHX3_9lens_core5cacheNtB4_9HintCache9evict_lru0B6_
FN:42,_RNCNvMNtCscx2lCY9pHX3_9lens_core5cacheNtB4_9HintCache9get_hints0B6_
FN:359,_RNCNCNvNtNtCscx2lCY9pHX3_9lens_core5cache5testss_28test_concurrent_cache_access00B9_
FN:296,_RNCNvNtNtCscx2lCY9pHX3_9lens_core5cache5testss_16test_cache_clear0B7_
FN:332,_RNCNvNtNtCscx2lCY9pHX3_9lens_core5cache5testss_16test_cache_stats0B7_
FN:216,_RNCNvNtNtCscx2lCY9pHX3_9lens_core5cache5testss_19test_hint_cache_new0B7_
FN:224,_RNCNvNtNtCscx2lCY9pHX3_9lens_core5cache5testss_23test_hint_cache_24h_ttl0B7_
FN:232,_RNCNvNtNtCscx2lCY9pHX3_9lens_core5cache5testss_24test_cache_store_and_get0B7_
FN:315,_RNCNvNtNtCscx2lCY9pHX3_9lens_core5cache5testss_26test_cache_invalidate_file0B7_
FN:277,_RNCNvNtNtCscx2lCY9pHX3_9lens_core5cache5testss_27test_cache_eviction_by_size0B7_
FN:349,_RNCNvNtNtCscx2lCY9pHX3_9lens_core5cache5testss_28test_concurrent_cache_access0B7_
FN:265,_RNCNvNtNtCscx2lCY9pHX3_9lens_core5cache5testss_30test_cache_miss_different_file0B7_
FN:253,_RNCNvNtNtCscx2lCY9pHX3_9lens_core5cache5testss_30test_cache_miss_different_hash0B7_
FN:432,_RNCNvNtNtCscx2lCY9pHX3_9lens_core5cache5testss_32test_default_cache_configuration0B7_
FN:204,_RNvNtNtCscx2lCY9pHX3_9lens_core5cache5tests16create_test_hint
FN:296,_RNvNtNtCscx2lCY9pHX3_9lens_core5cache5testss_16test_cache_clear
FN:332,_RNvNtNtCscx2lCY9pHX3_9lens_core5cache5testss_16test_cache_stats
FN:216,_RNvNtNtCscx2lCY9pHX3_9lens_core5cache5testss_19test_hint_cache_new
FN:224,_RNvNtNtCscx2lCY9pHX3_9lens_core5cache5testss_23test_hint_cache_24h_ttl
FN:401,_RNvNtNtCscx2lCY9pHX3_9lens_core5cache5testss_24test_cache_stats_default
FN:232,_RNvNtNtCscx2lCY9pHX3_9lens_core5cache5testss_24test_cache_store_and_get
FN:416,_RNvNtNtCscx2lCY9pHX3_9lens_core5cache5testss_25test_cache_entry_creation
FN:315,_RNvNtNtCscx2lCY9pHX3_9lens_core5cache5testss_26test_cache_invalidate_file
FN:277,_RNvNtNtCscx2lCY9pHX3_9lens_core5cache5testss_27test_cache_eviction_by_size
FN:349,_RNvNtNtCscx2lCY9pHX3_9lens_core5cache5testss_28test_concurrent_cache_access
FN:373,_RNvNtNtCscx2lCY9pHX3_9lens_core5cache5testss_28test_file_hasher_consistency
FN:265,_RNvNtNtCscx2lCY9pHX3_9lens_core5cache5testss_30test_cache_miss_different_file
FN:253,_RNvNtNtCscx2lCY9pHX3_9lens_core5cache5testss_30test_cache_miss_different_hash
FN:392,_RNvNtNtCscx2lCY9pHX3_9lens_core5cache5testss_30test_file_hasher_empty_content
FN:432,_RNvNtNtCscx2lCY9pHX3_9lens_core5cache5testss_32test_default_cache_configuration
FN:84,_RNvMNtCscx2lCY9pHX3_9lens_core5cacheNtB2_9HintCache10invalidate
FN:64,_RNvMNtCscx2lCY9pHX3_9lens_core5cacheNtB2_9HintCache11store_hints
FN:37,_RNvMNtCscx2lCY9pHX3_9lens_core5cacheNtB2_9HintCache12with_24h_ttl
FN:28,_RNvMNtCscx2lCY9pHX3_9lens_core5cacheNtB2_9HintCache3new
FN:92,_RNvMNtCscx2lCY9pHX3_9lens_core5cacheNtB2_9HintCache5clear
FN:100,_RNvMNtCscx2lCY9pHX3_9lens_core5cacheNtB2_9HintCache5stats
FN:126,_RNvMNtCscx2lCY9pHX3_9lens_core5cacheNtB2_9HintCache9evict_lru
FN:42,_RNvMNtCscx2lCY9pHX3_9lens_core5cacheNtB2_9HintCache9get_hints
FN:170,_RNvMs0_NtCscx2lCY9pHX3_9lens_core5cacheNtB5_10FileHasher17hash_file_content
FN:160,_RNvXs_NtCscx2lCY9pHX3_9lens_core5cacheNtB4_9HintCacheNtNtCs66KPHxksi63_4core7default7Default7default
FNDA:0,_RNCNCNvMNtCscx2lCY9pHX3_9lens_core5cacheNtB6_9HintCache13cleanup_stale00B8_
FNDA:0,_RNCNvMNtCscx2lCY9pHX3_9lens_core5cacheNtB4_9HintCache13cleanup_stale0B6_
FNDA:0,_RNCNvMs0_NtCscx2lCY9pHX3_9lens_core5cacheNtB7_10FileHasher18hash_file_metadata0B9_
FNDA:0,_RNvMNtCscx2lCY9pHX3_9lens_core5cacheNtB2_9HintCache13cleanup_stale
FNDA:0,_RNvMs0_NtCscx2lCY9pHX3_9lens_core5cacheNtB5_10FileHasher18hash_file_metadata
FNDA:1,_RNCNCNvMNtCscx2lCY9pHX3_9lens_core5cacheNtB6_9HintCache9evict_lru0s_0B8_
FNDA:1,_RNCNvMNtCscx2lCY9pHX3_9lens_core5cacheNtB4_9HintCache10invalidate0B6_
FNDA:11,_RNCNvMNtCscx2lCY9pHX3_9lens_core5cacheNtB4_9HintCache11store_hints0B6_
FNDA:1,_RNCNvMNtCscx2lCY9pHX3_9lens_core5cacheNtB4_9HintCache5clear0B6_
FNDA:3,_RNCNvMNtCscx2lCY9pHX3_9lens_core5cacheNtB4_9HintCache5stats0B6_
FNDA:1,_RNCNvMNtCscx2lCY9pHX3_9lens_core5cacheNtB4_9HintCache9evict_lru0B6_
FNDA:17,_RNCNvMNtCscx2lCY9pHX3_9lens_core5cacheNtB4_9HintCache9get_hints0B6_
FNDA:10,_RNCNCNvNtNtCscx2lCY9pHX3_9lens_core5cache5testss_28test_concurrent_cache_access00B9_
FNDA:1,_RNCNvNtNtCscx2lCY9pHX3_9lens_core5cache5testss_16test_cache_clear0B7_
FNDA:1,_RNCNvNtNtCscx2lCY9pHX3_9lens_core5cache5testss_16test_cache_stats0B7_
FNDA:1,_RNCNvNtNtCscx2lCY9pHX3_9lens_core5cache5testss_19test_hint_cache_new0B7_
FNDA:1,_RNCNvNtNtCscx2lCY9pHX3_9lens_core5cache5testss_23test_hint_cache_24h_ttl0B7_
FNDA:1,_RNCNvNtNtCscx2lCY9pHX3_9lens_core5cache5testss_24test_cache_store_and_get0B7_
FNDA:1,_RNCNvNtNtCscx2lCY9pHX3_9lens_core5cache5testss_26test_cache_invalidate_file0B7_
FNDA:1,_RNCNvNtNtCscx2lCY9pHX3_9lens_core5cache5testss_27test_cache_eviction_by_size0B7_
FNDA:1,_RNCNvNtNtCscx2lCY9pHX3_9lens_core5cache5testss_28test_concurrent_cache_access0B7_
FNDA:1,_RNCNvNtNtCscx2lCY9pHX3_9lens_core5cache5testss_30test_cache_miss_different_file0B7_
FNDA:1,_RNCNvNtNtCscx2lCY9pHX3_9lens_core5cache5testss_30test_cache_miss_different_hash0B7_
FNDA:1,_RNCNvNtNtCscx2lCY9pHX3_9lens_core5cache5testss_32test_default_cache_configuration0B7_
FNDA:13,_RNvNtNtCscx2lCY9pHX3_9lens_core5cache5tests16create_test_hint
FNDA:1,_RNvNtNtCscx2lCY9pHX3_9lens_core5cache5testss_16test_cache_clear
FNDA:1,_RNvNtNtCscx2lCY9pHX3_9lens_core5cache5testss_16test_cache_stats
FNDA:1,_RNvNtNtCscx2lCY9pHX3_9lens_core5cache5testss_19test_hint_cache_new
FNDA:1,_RNvNtNtCscx2lCY9pHX3_9lens_core5cache5testss_23test_hint_cache_24h_ttl
FNDA:1,_RNvNtNtCscx2lCY9pHX3_9lens_core5cache5testss_24test_cache_stats_default
FNDA:1,_RNvNtNtCscx2lCY9pHX3_9lens_core5cache5testss_24test_cache_store_and_get
FNDA:1,_RNvNtNtCscx2lCY9pHX3_9lens_core5cache5testss_25test_cache_entry_creation
FNDA:1,_RNvNtNtCscx2lCY9pHX3_9lens_core5cache5testss_26test_cache_invalidate_file
FNDA:1,_RNvNtNtCscx2lCY9pHX3_9lens_core5cache5testss_27test_cache_eviction_by_size
FNDA:1,_RNvNtNtCscx2lCY9pHX3_9lens_core5cache5testss_28test_concurrent_cache_access
FNDA:1,_RNvNtNtCscx2lCY9pHX3_9lens_core5cache5testss_28test_file_hasher_consistency
FNDA:1,_RNvNtNtCscx2lCY9pHX3_9lens_core5cache5testss_30test_cache_miss_different_file
FNDA:1,_RNvNtNtCscx2lCY9pHX3_9lens_core5cache5testss_30test_cache_miss_different_hash
FNDA:1,_RNvNtNtCscx2lCY9pHX3_9lens_core5cache5testss_30test_file_hasher_empty_content
FNDA:1,_RNvNtNtCscx2lCY9pHX3_9lens_core5cache5testss_32test_default_cache_configuration
FNDA:1,_RNvMNtCscx2lCY9pHX3_9lens_core5cacheNtB2_9HintCache10invalidate
FNDA:11,_RNvMNtCscx2lCY9pHX3_9lens_core5cacheNtB2_9HintCache11store_hints
FNDA:2,_RNvMNtCscx2lCY9pHX3_9lens_core5cacheNtB2_9HintCache12with_24h_ttl
FNDA:11,_RNvMNtCscx2lCY9pHX3_9lens_core5cacheNtB2_9HintCache3new
FNDA:1,_RNvMNtCscx2lCY9pHX3_9lens_core5cacheNtB2_9HintCache5clear
FNDA:3,_RNvMNtCscx2lCY9pHX3_9lens_core5cacheNtB2_9HintCache5stats
FNDA:1,_RNvMNtCscx2lCY9pHX3_9lens_core5cacheNtB2_9HintCache9evict_lru
FNDA:17,_RNvMNtCscx2lCY9pHX3_9lens_core5cacheNtB2_9HintCache9get_hints
FNDA:5,_RNvMs0_NtCscx2lCY9pHX3_9lens_core5cacheNtB5_10FileHasher17hash_file_content
FNDA:1,_RNvXs_NtCscx2lCY9pHX3_9lens_core5cacheNtB4_9HintCacheNtNtCs66KPHxksi63_4core7default7Default7default
FNF:50
FNH:45
DA:28,11
DA:29,11
DA:30,11
DA:31,11
DA:32,11
DA:33,11
DA:34,11
DA:37,2
DA:38,2
DA:39,2
DA:42,17
DA:43,17
DA:45,17
DA:47,14
DA:48,13
DA:49,13
DA:50,13
DA:53,1
DA:54,1
DA:57,3
DA:60,4
DA:61,17
DA:64,11
DA:65,11
DA:68,11
DA:69,1
DA:70,10
DA:72,11
DA:73,11
DA:74,11
DA:75,11
DA:76,11
DA:77,11
DA:79,11
DA:80,11
DA:81,11
DA:84,1
DA:85,1
DA:86,1
DA:87,1
DA:88,0
DA:89,1
DA:92,1
DA:93,1
DA:94,1
DA:95,1
DA:96,1
DA:97,1
DA:100,3
DA:101,3
DA:102,3
DA:104,3
DA:105,3
DA:106,3
DA:108,3
DA:109,3
DA:110,3
DA:111,3
DA:112,3
DA:113,0
DA:114,0
DA:117,3
DA:118,3
DA:119,3
DA:120,3
DA:121,3
DA:122,3
DA:123,3
DA:126,1
DA:127,1
DA:128,1
DA:129,1
DA:130,1
DA:132,1
DA:133,1
DA:134,0
DA:135,1
DA:138,0
DA:139,0
DA:140,0
DA:142,0
DA:144,0
DA:145,0
DA:146,0
DA:147,0
DA:148,0
DA:160,1
DA:161,1
DA:162,1
DA:170,5
DA:174,5
DA:175,5
DA:176,5
DA:177,5
DA:180,0
DA:181,0
DA:183,0
DA:186,0
DA:187,0
DA:188,0
DA:189,0
DA:190,0
DA:191,0
DA:193,0
DA:194,0
DA:204,13
DA:205,13
DA:206,13
DA:207,13
DA:208,13
DA:213,13
DA:216,1
DA:217,1
DA:219,1
DA:220,1
DA:221,1
DA:224,1
DA:225,1
DA:227,1
DA:228,1
DA:229,1
DA:232,1
DA:233,1
DA:234,1
DA:235,1
DA:236,1
DA:240,1
DA:243,1
DA:244,1
DA:246,1
DA:247,1
DA:248,1
DA:249,1
DA:250,1
DA:253,1
DA:254,1
DA:255,1
DA:257,1
DA:260,1
DA:261,1
DA:262,1
DA:265,1
DA:266,1
DA:267,1
DA:269,1
DA:272,1
DA:273,1
DA:274,1
DA:277,1
DA:278,1
DA:279,1
DA:280,1
DA:281,1
DA:284,1
DA:285,1
DA:288,1
DA:291,1
DA:292,1
DA:293,1
DA:296,1
DA:297,1
DA:298,1
DA:300,1
DA:303,1
DA:304,1
DA:307,1
DA:310,1
DA:311,1
DA:312,1
DA:315,1
DA:316,1
DA:317,1
DA:318,1
DA:320,1
DA:321,1
DA:324,1
DA:327,1
DA:328,1
DA:329,1
DA:332,1
DA:333,1
DA:334,1
DA:337,1
DA:338,1
DA:341,1
DA:344,1
DA:345,1
DA:346,1
DA:349,1
DA:350,1
DA:351,1
DA:353,1
DA:356,1
DA:357,11
DA:358,10
DA:359,10
DA:360,10
DA:361,10
DA:362,10
DA:363,10
DA:364,1
DA:365,1
DA:366,1
DA:367,11
DA:368,10
DA:369,1
DA:370,1
DA:373,1
DA:374,1
DA:375,1
DA:376,1
DA:379,1
DA:380,1
DA:381,1
DA:385,1
DA:386,1
DA:387,1
DA:389,1
DA:392,1
DA:393,1
DA:394,1
DA:397,1
DA:398,1
DA:401,1
DA:402,1
DA:403,1
DA:404,1
DA:405,1
DA:406,1
DA:407,1
DA:409,1
DA:410,1
DA:411,1
DA:412,1
DA:413,1
DA:416,1
DA:417,1
DA:418,1
DA:419,1
DA:420,1
DA:421,1
DA:422,1
DA:423,1
DA:425,1
DA:426,1
DA:427,1
DA:428,1
DA:429,1
DA:432,1
DA:433,1
DA:436,1
DA:437,1
DA:438,1
BRF:0
BRH:0
LF:294
LH:267
end_of_record
SF:/home/nathan/Projects/lens/src/calibration/isotonic.rs
FN:170,_RNvMNtNtCscx2lCY9pHX3_9lens_core11calibration8isotonicNtB2_18IsotonicCalibrator22get_calibration_points
FN:160,_RNvMNtNtCscx2lCY9pHX3_9lens_core11calibration8isotonicNtB2_18IsotonicCalibrator12is_converged
FN:259,_RNvMNtNtCscx2lCY9pHX3_9lens_core11calibration8isotonicNtB2_18IsotonicCalibrator17apply_slope_clamp
FN:377,_RNvMNtNtCscx2lCY9pHX3_9lens_core11calibration8isotonicNtB2_18IsotonicCalibrator17check_convergence
FN:339,_RNvMNtNtCscx2lCY9pHX3_9lens_core11calibration8isotonicNtB2_18IsotonicCalibrator19calculate_slice_ece
FN:165,_RNvMNtNtCscx2lCY9pHX3_9lens_core11calibration8isotonicNtB2_18IsotonicCalibrator20get_training_samples
FN:243,_RNvMNtNtCscx2lCY9pHX3_9lens_core11calibration8isotonicNtB2_18IsotonicCalibrator23calculate_overall_slope
FN:307,_RNvMNtNtCscx2lCY9pHX3_9lens_core11calibration8isotonicNtB2_18IsotonicCalibrator23interpolate_calibration
FN:177,_RNvMNtNtCscx2lCY9pHX3_9lens_core11calibration8isotonicNtB2_18IsotonicCalibrator23pool_adjacent_violators
FN:282,_RNvMNtNtCscx2lCY9pHX3_9lens_core11calibration8isotonicNtB2_18IsotonicCalibrator25create_calibration_points
FN:68,_RNvMNtNtCscx2lCY9pHX3_9lens_core11calibration8isotonicNtB2_18IsotonicCalibrator3new
FN:80,_RNvMNtNtCscx2lCY9pHX3_9lens_core11calibration8isotonicNtB2_18IsotonicCalibrator5train
FN:150,_RNvMNtNtCscx2lCY9pHX3_9lens_core11calibration8isotonicNtB2_18IsotonicCalibrator7get_ece
FN:133,_RNvMNtNtCscx2lCY9pHX3_9lens_core11calibration8isotonicNtB2_18IsotonicCalibrator9calibrate
FN:155,_RNvMNtNtCscx2lCY9pHX3_9lens_core11calibration8isotonicNtB2_18IsotonicCalibrator9get_slope
FN:399,_RNvXs_NtNtCscx2lCY9pHX3_9lens_core11calibration8isotonicNtB4_14IsotonicConfigNtNtCs66KPHxksi63_4core7default7Default7default
FN:99,_RNCNCNvMNtNtCscx2lCY9pHX3_9lens_core11calibration8isotonicNtB6_18IsotonicCalibrator5train00Ba_
FN:392,_RNCNvMNtNtCscx2lCY9pHX3_9lens_core11calibration8isotonicNtB4_18IsotonicCalibrator17check_convergence0B8_
FN:339,_RNCNvMNtNtCscx2lCY9pHX3_9lens_core11calibration8isotonicNtB4_18IsotonicCalibrator19calculate_slice_ece0B8_
FN:177,_RNCNvMNtNtCscx2lCY9pHX3_9lens_core11calibration8isotonicNtB4_18IsotonicCalibrator23pool_adjacent_violators0B8_
FN:300,_RNCNvMNtNtCscx2lCY9pHX3_9lens_core11calibration8isotonicNtB4_18IsotonicCalibrator25create_calibration_points0B8_
FN:301,_RNCNvMNtNtCscx2lCY9pHX3_9lens_core11calibration8isotonicNtB4_18IsotonicCalibrator25create_calibration_pointss_0B8_
FN:80,_RNCNvMNtNtCscx2lCY9pHX3_9lens_core11calibration8isotonicNtB4_18IsotonicCalibrator5train0B8_
FN:133,_RNCNvMNtNtCscx2lCY9pHX3_9lens_core11calibration8isotonicNtB4_18IsotonicCalibrator9calibrate0B8_
FN:412,_RNvNtNtNtCscx2lCY9pHX3_9lens_core11calibration8isotonic5tests18create_test_sample
FN:553,_RNvNtNtNtCscx2lCY9pHX3_9lens_core11calibration8isotonic5testss_18test_interpolation
FN:515,_RNvNtNtNtCscx2lCY9pHX3_9lens_core11calibration8isotonic5testss_19test_slope_clamping
FN:539,_RNvNtNtNtCscx2lCY9pHX3_9lens_core11calibration8isotonic5testss_22test_slope_calculation
FN:479,_RNvNtNtNtCscx2lCY9pHX3_9lens_core11calibration8isotonic5testss_25test_isotonic_calibration
FN:424,_RNvNtNtNtCscx2lCY9pHX3_9lens_core11calibration8isotonic5testss_33test_isotonic_calibrator_creation
FN:455,_RNvNtNtNtCscx2lCY9pHX3_9lens_core11calibration8isotonic5testss_42test_isotonic_training_perfect_calibration
FN:435,_RNvNtNtNtCscx2lCY9pHX3_9lens_core11calibration8isotonic5testss_43test_isotonic_training_insufficient_samples
FN:515,_RNCNvNtNtNtCscx2lCY9pHX3_9lens_core11calibration8isotonic5testss_19test_slope_clamping0B9_
FN:479,_RNCNvNtNtNtCscx2lCY9pHX3_9lens_core11calibration8isotonic5testss_25test_isotonic_calibration0B9_
FN:424,_RNCNvNtNtNtCscx2lCY9pHX3_9lens_core11calibration8isotonic5testss_33test_isotonic_calibrator_creation0B9_
FN:455,_RNCNvNtNtNtCscx2lCY9pHX3_9lens_core11calibration8isotonic5testss_42test_isotonic_training_perfect_calibration0B9_
FN:435,_RNCNvNtNtNtCscx2lCY9pHX3_9lens_core11calibration8isotonic5testss_43test_isotonic_training_insufficient_samples0B9_
FNDA:0,_RNvMNtNtCscx2lCY9pHX3_9lens_core11calibration8isotonicNtB2_18IsotonicCalibrator22get_calibration_points
FNDA:1,_RNvMNtNtCscx2lCY9pHX3_9lens_core11calibration8isotonicNtB2_18IsotonicCalibrator12is_converged
FNDA:2,_RNvMNtNtCscx2lCY9pHX3_9lens_core11calibration8isotonicNtB2_18IsotonicCalibrator17apply_slope_clamp
FNDA:3,_RNvMNtNtCscx2lCY9pHX3_9lens_core11calibration8isotonicNtB2_18IsotonicCalibrator17check_convergence
FNDA:3,_RNvMNtNtCscx2lCY9pHX3_9lens_core11calibration8isotonicNtB2_18IsotonicCalibrator19calculate_slice_ece
FNDA:2,_RNvMNtNtCscx2lCY9pHX3_9lens_core11calibration8isotonicNtB2_18IsotonicCalibrator20get_training_samples
FNDA:4,_RNvMNtNtCscx2lCY9pHX3_9lens_core11calibration8isotonicNtB2_18IsotonicCalibrator23calculate_overall_slope
FNDA:124,_RNvMNtNtCscx2lCY9pHX3_9lens_core11calibration8isotonicNtB2_18IsotonicCalibrator23interpolate_calibration
FNDA:3,_RNvMNtNtCscx2lCY9pHX3_9lens_core11calibration8isotonicNtB2_18IsotonicCalibrator23pool_adjacent_violators
FNDA:3,_RNvMNtNtCscx2lCY9pHX3_9lens_core11calibration8isotonicNtB2_18IsotonicCalibrator25create_calibration_points
FNDA:7,_RNvMNtNtCscx2lCY9pHX3_9lens_core11calibration8isotonicNtB2_18IsotonicCalibrator3new
FNDA:4,_RNvMNtNtCscx2lCY9pHX3_9lens_core11calibration8isotonicNtB2_18IsotonicCalibrator5train
FNDA:2,_RNvMNtNtCscx2lCY9pHX3_9lens_core11calibration8isotonicNtB2_18IsotonicCalibrator7get_ece
FNDA:1,_RNvMNtNtCscx2lCY9pHX3_9lens_core11calibration8isotonicNtB2_18IsotonicCalibrator9calibrate
FNDA:5,_RNvMNtNtCscx2lCY9pHX3_9lens_core11calibration8isotonicNtB2_18IsotonicCalibrator9get_slope
FNDA:7,_RNvXs_NtNtCscx2lCY9pHX3_9lens_core11calibration8isotonicNtB4_14IsotonicConfigNtNtCs66KPHxksi63_4core7default7Default7default
FNDA:196,_RNCNCNvMNtNtCscx2lCY9pHX3_9lens_core11calibration8isotonicNtB6_18IsotonicCalibrator5train00Ba_
FNDA:117,_RNCNvMNtNtCscx2lCY9pHX3_9lens_core11calibration8isotonicNtB4_18IsotonicCalibrator17check_convergence0B8_
FNDA:3,_RNCNvMNtNtCscx2lCY9pHX3_9lens_core11calibration8isotonicNtB4_18IsotonicCalibrator19calculate_slice_ece0B8_
FNDA:3,_RNCNvMNtNtCscx2lCY9pHX3_9lens_core11calibration8isotonicNtB4_18IsotonicCalibrator23pool_adjacent_violators0B8_
FNDA:117,_RNCNvMNtNtCscx2lCY9pHX3_9lens_core11calibration8isotonicNtB4_18IsotonicCalibrator25create_calibration_points0B8_
FNDA:117,_RNCNvMNtNtCscx2lCY9pHX3_9lens_core11calibration8isotonicNtB4_18IsotonicCalibrator25create_calibration_pointss_0B8_
FNDA:4,_RNCNvMNtNtCscx2lCY9pHX3_9lens_core11calibration8isotonicNtB4_18IsotonicCalibrator5train0B8_
FNDA:1,_RNCNvMNtNtCscx2lCY9pHX3_9lens_core11calibration8isotonicNtB4_18IsotonicCalibrator9calibrate0B8_
FNDA:123,_RNvNtNtNtCscx2lCY9pHX3_9lens_core11calibration8isotonic5tests18create_test_sample
FNDA:1,_RNvNtNtNtCscx2lCY9pHX3_9lens_core11calibration8isotonic5testss_18test_interpolation
FNDA:1,_RNvNtNtNtCscx2lCY9pHX3_9lens_core11calibration8isotonic5testss_19test_slope_clamping
FNDA:1,_RNvNtNtNtCscx2lCY9pHX3_9lens_core11calibration8isotonic5testss_22test_slope_calculation
FNDA:1,_RNvNtNtNtCscx2lCY9pHX3_9lens_core11calibration8isotonic5testss_25test_isotonic_calibration
FNDA:1,_RNvNtNtNtCscx2lCY9pHX3_9lens_core11calibration8isotonic5testss_33test_isotonic_calibrator_creation
FNDA:1,_RNvNtNtNtCscx2lCY9pHX3_9lens_core11calibration8isotonic5testss_42test_isotonic_training_perfect_calibration
FNDA:1,_RNvNtNtNtCscx2lCY9pHX3_9lens_core11calibration8isotonic5testss_43test_isotonic_training_insufficient_samples
FNDA:1,_RNCNvNtNtNtCscx2lCY9pHX3_9lens_core11calibration8isotonic5testss_19test_slope_clamping0B9_
FNDA:1,_RNCNvNtNtNtCscx2lCY9pHX3_9lens_core11calibration8isotonic5testss_25test_isotonic_calibration0B9_
FNDA:1,_RNCNvNtNtNtCscx2lCY9pHX3_9lens_core11calibration8isotonic5testss_33test_isotonic_calibrator_creation0B9_
FNDA:1,_RNCNvNtNtNtCscx2lCY9pHX3_9lens_core11calibration8isotonic5testss_42test_isotonic_training_perfect_calibration0B9_
FNDA:1,_RNCNvNtNtNtCscx2lCY9pHX3_9lens_core11calibration8isotonic5testss_43test_isotonic_training_insufficient_samples0B9_
FNF:37
FNH:36
DA:68,7
DA:69,7
DA:70,7
DA:71,7
DA:72,7
DA:73,7
DA:74,7
DA:75,7
DA:76,7
DA:77,7
DA:80,4
DA:81,4
DA:82,1
DA:83,1
DA:84,1
DA:87,3
DA:89,3
DA:90,0
DA:91,0
DA:95,3
DA:98,3
DA:99,196
DA:102,3
DA:105,3
DA:106,3
DA:109,3
DA:112,3
DA:114,3
DA:115,0
DA:116,0
DA:122,3
DA:123,3
DA:124,0
DA:127,0
DA:129,3
DA:130,4
DA:133,1
DA:134,1
DA:135,0
DA:136,1
DA:139,1
DA:141,1
DA:142,0
DA:146,1
DA:147,1
DA:150,2
DA:151,2
DA:152,2
DA:155,5
DA:156,5
DA:157,5
DA:160,1
DA:161,1
DA:162,1
DA:165,2
DA:166,2
DA:167,2
DA:170,0
DA:171,0
DA:172,0
DA:177,3
DA:178,3
DA:179,3
DA:180,3
DA:181,3
DA:184,123
DA:185,120
DA:186,120
DA:187,120
DA:188,120
DA:191,3
DA:192,3
DA:195,3
DA:196,6
DA:197,3
DA:199,117
DA:200,117
DA:201,0
DA:202,0
DA:203,0
DA:204,0
DA:205,0
DA:206,0
DA:207,0
DA:208,0
DA:209,0
DA:210,0
DA:211,0
DA:212,0
DA:213,117
DA:218,3
DA:221,3
DA:224,3
DA:225,2
DA:226,0
DA:229,2
DA:231,1
DA:234,3
DA:235,3
DA:236,3
DA:237,3
DA:238,3
DA:239,3
DA:240,3
DA:243,4
DA:244,4
DA:245,0
DA:246,4
DA:248,4
DA:249,4
DA:251,4
DA:252,0
DA:253,4
DA:255,4
DA:256,4
DA:259,2
DA:260,2
DA:261,0
DA:262,2
DA:265,2
DA:266,2
DA:267,2
DA:270,2
DA:272,72
DA:273,70
DA:274,70
DA:275,70
DA:276,70
DA:278,2
DA:279,2
DA:282,3
DA:283,3
DA:285,120
DA:286,3
DA:287,3
DA:289,120
DA:290,120
DA:291,120
DA:292,120
DA:293,120
DA:294,120
DA:295,120
DA:296,120
DA:300,117
DA:301,117
DA:303,3
DA:304,3
DA:307,124
DA:308,124
DA:309,0
DA:310,124
DA:313,124
DA:314,4
DA:315,120
DA:317,120
DA:318,120
DA:319,4
DA:320,116
DA:323,2353
DA:324,2353
DA:325,2353
DA:327,2353
DA:329,116
DA:330,116
DA:331,2237
DA:335,0
DA:336,124
DA:339,3
DA:341,3
DA:344,3
DA:345,123
DA:346,120
DA:347,120
DA:351,123
DA:352,120
DA:353,120
DA:354,120
DA:357,3
DA:358,3
DA:360,30
DA:361,30
DA:362,15
DA:363,15
DA:365,15
DA:366,15
DA:367,15
DA:368,15
DA:370,15
DA:373,3
DA:374,3
DA:377,3
DA:379,3
DA:380,0
DA:381,3
DA:384,3
DA:385,3
DA:388,3
DA:391,3
DA:392,117
DA:394,3
DA:395,3
DA:399,7
DA:400,7
DA:401,7
DA:402,7
DA:403,7
DA:404,7
DA:405,7
DA:412,123
DA:413,123
DA:414,123
DA:415,123
DA:416,123
DA:417,123
DA:418,123
DA:419,123
DA:420,123
DA:421,123
DA:424,1
DA:425,1
DA:426,1
DA:428,1
DA:429,1
DA:430,1
DA:431,1
DA:432,1
DA:435,1
DA:436,1
DA:437,1
DA:438,1
DA:439,1
DA:440,1
DA:442,1
DA:443,1
DA:444,1
DA:445,1
DA:447,1
DA:449,1
DA:450,1
DA:451,1
DA:452,1
DA:455,1
DA:456,1
DA:457,1
DA:460,1
DA:461,51
DA:462,50
DA:463,50
DA:464,50
DA:467,1
DA:468,1
DA:469,1
DA:472,1
DA:473,1
DA:474,1
DA:475,1
DA:476,1
DA:479,1
DA:480,1
DA:481,1
DA:484,1
DA:485,1
DA:486,1
DA:487,1
DA:488,1
DA:489,1
DA:493,1
DA:494,26
DA:495,25
DA:496,25
DA:497,25
DA:500,1
DA:501,1
DA:504,1
DA:505,1
DA:508,1
DA:511,1
DA:512,1
DA:515,1
DA:516,1
DA:517,1
DA:518,1
DA:519,1
DA:520,1
DA:523,1
DA:524,41
DA:525,40
DA:526,40
DA:527,40
DA:530,1
DA:531,1
DA:534,1
DA:535,1
DA:536,1
DA:539,1
DA:540,1
DA:541,1
DA:543,1
DA:544,1
DA:546,1
DA:549,1
DA:550,1
DA:553,1
DA:554,1
DA:555,1
DA:558,1
DA:559,1
DA:560,1
DA:561,1
DA:562,1
DA:563,1
DA:564,1
DA:565,1
DA:566,1
DA:567,1
DA:568,1
DA:569,1
DA:570,1
DA:574,1
DA:577,1
DA:580,1
DA:581,1
DA:582,1
BRF:0
BRH:0
LF:341
LH:311
end_of_record
SF:/home/nathan/Projects/lens/src/calibration/language_specific.rs
FN:192,_RNvMNtNtCscx2lCY9pHX3_9lens_core11calibration17language_specificNtB2_26LanguageSpecificCalibrator16get_language_ece
FN:197,_RNvMNtNtCscx2lCY9pHX3_9lens_core11calibration17language_specificNtB2_26LanguageSpecificCalibrator21get_performance_stats
FN:202,_RNvMNtNtCscx2lCY9pHX3_9lens_core11calibration17language_specificNtB2_26LanguageSpecificCalibrator12is_converged
FN:187,_RNvMNtNtCscx2lCY9pHX3_9lens_core11calibration17language_specificNtB2_26LanguageSpecificCalibrator13get_threshold
FN:485,_RNvMNtNtCscx2lCY9pHX3_9lens_core11calibration17language_specificNtB2_26LanguageSpecificCalibrator17check_convergence
FN:471,_RNvMNtNtCscx2lCY9pHX3_9lens_core11calibration17language_specificNtB2_26LanguageSpecificCalibrator18calculate_variance
FN:182,_RNvMNtNtCscx2lCY9pHX3_9lens_core11calibration17language_specificNtB2_26LanguageSpecificCalibrator21get_adjustment_factor
FN:261,_RNvMNtNtCscx2lCY9pHX3_9lens_core11calibration17language_specificNtB2_26LanguageSpecificCalibrator22calculate_language_ece
FN:404,_RNvMNtNtCscx2lCY9pHX3_9lens_core11calibration17language_specificNtB2_26LanguageSpecificCalibrator24update_performance_stats
FN:390,_RNvMNtNtCscx2lCY9pHX3_9lens_core11calibration17language_specificNtB2_26LanguageSpecificCalibrator25apply_language_adjustment
FN:248,_RNvMNtNtCscx2lCY9pHX3_9lens_core11calibration17language_specificNtB2_26LanguageSpecificCalibrator25group_samples_by_language
FN:346,_RNvMNtNtCscx2lCY9pHX3_9lens_core11calibration17language_specificNtB2_26LanguageSpecificCalibrator27calculate_optimal_threshold
FN:292,_RNvMNtNtCscx2lCY9pHX3_9lens_core11calibration17language_specificNtB2_26LanguageSpecificCalibrator28calculate_adjustment_factors
FN:325,_RNvMNtNtCscx2lCY9pHX3_9lens_core11calibration17language_specificNtB2_26LanguageSpecificCalibrator29calculate_adaptive_thresholds
FN:207,_RNvMNtNtCscx2lCY9pHX3_9lens_core11calibration17language_specificNtB2_26LanguageSpecificCalibrator30validate_cross_language_parity
FN:76,_RNvMNtNtCscx2lCY9pHX3_9lens_core11calibration17language_specificNtB2_26LanguageSpecificCalibrator3new
FN:97,_RNvMNtNtCscx2lCY9pHX3_9lens_core11calibration17language_specificNtB2_26LanguageSpecificCalibrator5train
FN:151,_RNvMNtNtCscx2lCY9pHX3_9lens_core11calibration17language_specificNtB2_26LanguageSpecificCalibrator9calibrate
FN:501,_RNvXs_NtNtCscx2lCY9pHX3_9lens_core11calibration17language_specificNtB4_18CrossLanguageStatsNtNtCs66KPHxksi63_4core7default7Default7default
FN:517,_RNvNtNtNtCscx2lCY9pHX3_9lens_core11calibration17language_specific5tests18create_test_sample
FN:542,_RNvNtNtNtCscx2lCY9pHX3_9lens_core11calibration17language_specific5testss_25test_invalid_max_variance
FN:608,_RNvNtNtNtCscx2lCY9pHX3_9lens_core11calibration17language_specific5testss_25test_language_calibration
FN:663,_RNvNtNtNtCscx2lCY9pHX3_9lens_core11calibration17language_specific5testss_25test_variance_calculation
FN:555,_RNvNtNtNtCscx2lCY9pHX3_9lens_core11calibration17language_specific5testss_31test_language_specific_training
FN:529,_RNvNtNtNtCscx2lCY9pHX3_9lens_core11calibration17language_specific5testss_33test_language_calibrator_creation
FN:691,_RNvNtNtNtCscx2lCY9pHX3_9lens_core11calibration17language_specific5testss_34test_optimal_threshold_calculation
FN:634,_RNvNtNtNtCscx2lCY9pHX3_9lens_core11calibration17language_specific5testss_37test_cross_language_parity_validation
FN:542,_RNCNvNtNtNtCscx2lCY9pHX3_9lens_core11calibration17language_specific5testss_25test_invalid_max_variance0B9_
FN:608,_RNCNvNtNtNtCscx2lCY9pHX3_9lens_core11calibration17language_specific5testss_25test_language_calibration0B9_
FN:555,_RNCNvNtNtNtCscx2lCY9pHX3_9lens_core11calibration17language_specific5testss_31test_language_specific_training0B9_
FN:529,_RNCNvNtNtNtCscx2lCY9pHX3_9lens_core11calibration17language_specific5testss_33test_language_calibrator_creation0B9_
FN:691,_RNCNvNtNtNtCscx2lCY9pHX3_9lens_core11calibration17language_specific5testss_34test_optimal_threshold_calculation0B9_
FN:634,_RNCNvNtNtNtCscx2lCY9pHX3_9lens_core11calibration17language_specific5testss_37test_cross_language_parity_validation0B9_
FN:416,_RNCNCNvMNtNtCscx2lCY9pHX3_9lens_core11calibration17language_specificNtB6_26LanguageSpecificCalibrator24update_performance_stats00Ba_
FN:450,_RNCNCNvMNtNtCscx2lCY9pHX3_9lens_core11calibration17language_specificNtB6_26LanguageSpecificCalibrator24update_performance_stats0s0_0Ba_
FN:451,_RNCNCNvMNtNtCscx2lCY9pHX3_9lens_core11calibration17language_specificNtB6_26LanguageSpecificCalibrator24update_performance_stats0s1_0Ba_
FN:455,_RNCNCNvMNtNtCscx2lCY9pHX3_9lens_core11calibration17language_specificNtB6_26LanguageSpecificCalibrator24update_performance_stats0s2_0Ba_
FN:456,_RNCNCNvMNtNtCscx2lCY9pHX3_9lens_core11calibration17language_specificNtB6_26LanguageSpecificCalibrator24update_performance_stats0s3_0Ba_
FN:422,_RNCNCNvMNtNtCscx2lCY9pHX3_9lens_core11calibration17language_specificNtB6_26LanguageSpecificCalibrator24update_performance_stats0s_0Ba_
FN:332,_RNCNCNvMNtNtCscx2lCY9pHX3_9lens_core11calibration17language_specificNtB6_26LanguageSpecificCalibrator29calculate_adaptive_thresholds00Ba_
FN:108,_RNCNCNvMNtNtCscx2lCY9pHX3_9lens_core11calibration17language_specificNtB6_26LanguageSpecificCalibrator5train00Ba_
FN:478,_RNCNvMNtNtCscx2lCY9pHX3_9lens_core11calibration17language_specificNtB4_26LanguageSpecificCalibrator18calculate_variance0B8_
FN:261,_RNCNvMNtNtCscx2lCY9pHX3_9lens_core11calibration17language_specificNtB4_26LanguageSpecificCalibrator22calculate_language_ece0B8_
FN:404,_RNCNvMNtNtCscx2lCY9pHX3_9lens_core11calibration17language_specificNtB4_26LanguageSpecificCalibrator24update_performance_stats0B8_
FN:346,_RNCNvMNtNtCscx2lCY9pHX3_9lens_core11calibration17language_specificNtB4_26LanguageSpecificCalibrator27calculate_optimal_threshold0B8_
FN:292,_RNCNvMNtNtCscx2lCY9pHX3_9lens_core11calibration17language_specificNtB4_26LanguageSpecificCalibrator28calculate_adjustment_factors0B8_
FN:325,_RNCNvMNtNtCscx2lCY9pHX3_9lens_core11calibration17language_specificNtB4_26LanguageSpecificCalibrator29calculate_adaptive_thresholds0B8_
FN:207,_RNCNvMNtNtCscx2lCY9pHX3_9lens_core11calibration17language_specificNtB4_26LanguageSpecificCalibrator30validate_cross_language_parity0B8_
FN:76,_RNCNvMNtNtCscx2lCY9pHX3_9lens_core11calibration17language_specificNtB4_26LanguageSpecificCalibrator3new0B8_
FN:97,_RNCNvMNtNtCscx2lCY9pHX3_9lens_core11calibration17language_specificNtB4_26LanguageSpecificCalibrator5train0B8_
FN:157,_RNCNvMNtNtCscx2lCY9pHX3_9lens_core11calibration17language_specificNtB4_26LanguageSpecificCalibrator9calibrate0B8_
FNDA:0,_RNvMNtNtCscx2lCY9pHX3_9lens_core11calibration17language_specificNtB2_26LanguageSpecificCalibrator16get_language_ece
FNDA:0,_RNvMNtNtCscx2lCY9pHX3_9lens_core11calibration17language_specificNtB2_26LanguageSpecificCalibrator21get_performance_stats
FNDA:1,_RNvMNtNtCscx2lCY9pHX3_9lens_core11calibration17language_specificNtB2_26LanguageSpecificCalibrator12is_converged
FNDA:2,_RNvMNtNtCscx2lCY9pHX3_9lens_core11calibration17language_specificNtB2_26LanguageSpecificCalibrator13get_threshold
FNDA:1,_RNvMNtNtCscx2lCY9pHX3_9lens_core11calibration17language_specificNtB2_26LanguageSpecificCalibrator17check_convergence
FNDA:4,_RNvMNtNtCscx2lCY9pHX3_9lens_core11calibration17language_specificNtB2_26LanguageSpecificCalibrator18calculate_variance
FNDA:4,_RNvMNtNtCscx2lCY9pHX3_9lens_core11calibration17language_specificNtB2_26LanguageSpecificCalibrator21get_adjustment_factor
FNDA:3,_RNvMNtNtCscx2lCY9pHX3_9lens_core11calibration17language_specificNtB2_26LanguageSpecificCalibrator22calculate_language_ece
FNDA:1,_RNvMNtNtCscx2lCY9pHX3_9lens_core11calibration17language_specificNtB2_26LanguageSpecificCalibrator24update_performance_stats
FNDA:2,_RNvMNtNtCscx2lCY9pHX3_9lens_core11calibration17language_specificNtB2_26LanguageSpecificCalibrator25apply_language_adjustment
FNDA:1,_RNvMNtNtCscx2lCY9pHX3_9lens_core11calibration17language_specificNtB2_26LanguageSpecificCalibrator25group_samples_by_language
FNDA:4,_RNvMNtNtCscx2lCY9pHX3_9lens_core11calibration17language_specificNtB2_26LanguageSpecificCalibrator27calculate_optimal_threshold
FNDA:1,_RNvMNtNtCscx2lCY9pHX3_9lens_core11calibration17language_specificNtB2_26LanguageSpecificCalibrator28calculate_adjustment_factors
FNDA:1,_RNvMNtNtCscx2lCY9pHX3_9lens_core11calibration17language_specificNtB2_26LanguageSpecificCalibrator29calculate_adaptive_thresholds
FNDA:2,_RNvMNtNtCscx2lCY9pHX3_9lens_core11calibration17language_specificNtB2_26LanguageSpecificCalibrator30validate_cross_language_parity
FNDA:9,_RNvMNtNtCscx2lCY9pHX3_9lens_core11calibration17language_specificNtB2_26LanguageSpecificCalibrator3new
FNDA:1,_RNvMNtNtCscx2lCY9pHX3_9lens_core11calibration17language_specificNtB2_26LanguageSpecificCalibrator5train
FNDA:2,_RNvMNtNtCscx2lCY9pHX3_9lens_core11calibration17language_specificNtB2_26LanguageSpecificCalibrator9calibrate
FNDA:9,_RNvXs_NtNtCscx2lCY9pHX3_9lens_core11calibration17language_specificNtB4_18CrossLanguageStatsNtNtCs66KPHxksi63_4core7default7Default7default
FNDA:60,_RNvNtNtNtCscx2lCY9pHX3_9lens_core11calibration17language_specific5tests18create_test_sample
FNDA:1,_RNvNtNtNtCscx2lCY9pHX3_9lens_core11calibration17language_specific5testss_25test_invalid_max_variance
FNDA:1,_RNvNtNtNtCscx2lCY9pHX3_9lens_core11calibration17language_specific5testss_25test_language_calibration
FNDA:1,_RNvNtNtNtCscx2lCY9pHX3_9lens_core11calibration17language_specific5testss_25test_variance_calculation
FNDA:1,_RNvNtNtNtCscx2lCY9pHX3_9lens_core11calibration17language_specific5testss_31test_language_specific_training
FNDA:1,_RNvNtNtNtCscx2lCY9pHX3_9lens_core11calibration17language_specific5testss_33test_language_calibrator_creation
FNDA:1,_RNvNtNtNtCscx2lCY9pHX3_9lens_core11calibration17language_specific5testss_34test_optimal_threshold_calculation
FNDA:1,_RNvNtNtNtCscx2lCY9pHX3_9lens_core11calibration17language_specific5testss_37test_cross_language_parity_validation
FNDA:1,_RNCNvNtNtNtCscx2lCY9pHX3_9lens_core11calibration17language_specific5testss_25test_invalid_max_variance0B9_
FNDA:1,_RNCNvNtNtNtCscx2lCY9pHX3_9lens_core11calibration17language_specific5testss_25test_language_calibration0B9_
FNDA:1,_RNCNvNtNtNtCscx2lCY9pHX3_9lens_core11calibration17language_specific5testss_31test_language_specific_training0B9_
FNDA:1,_RNCNvNtNtNtCscx2lCY9pHX3_9lens_core11calibration17language_specific5testss_33test_language_calibrator_creation0B9_
FNDA:1,_RNCNvNtNtNtCscx2lCY9pHX3_9lens_core11calibration17language_specific5testss_34test_optimal_threshold_calculation0B9_
FNDA:1,_RNCNvNtNtNtCscx2lCY9pHX3_9lens_core11calibration17language_specific5testss_37test_cross_language_parity_validation0B9_
FNDA:2,_RNCNCNvMNtNtCscx2lCY9pHX3_9lens_core11calibration17language_specificNtB6_26LanguageSpecificCalibrator24update_performance_stats00Ba_
FNDA:2,_RNCNCNvMNtNtCscx2lCY9pHX3_9lens_core11calibration17language_specificNtB6_26LanguageSpecificCalibrator24update_performance_stats0s0_0Ba_
FNDA:1,_RNCNCNvMNtNtCscx2lCY9pHX3_9lens_core11calibration17language_specificNtB6_26LanguageSpecificCalibrator24update_performance_stats0s1_0Ba_
FNDA:2,_RNCNCNvMNtNtCscx2lCY9pHX3_9lens_core11calibration17language_specificNtB6_26LanguageSpecificCalibrator24update_performance_stats0s2_0Ba_
FNDA:1,_RNCNCNvMNtNtCscx2lCY9pHX3_9lens_core11calibration17language_specificNtB6_26LanguageSpecificCalibrator24update_performance_stats0s3_0Ba_
FNDA:1,_RNCNCNvMNtNtCscx2lCY9pHX3_9lens_core11calibration17language_specificNtB6_26LanguageSpecificCalibrator24update_performance_stats0s_0Ba_
FNDA:55,_RNCNCNvMNtNtCscx2lCY9pHX3_9lens_core11calibration17language_specificNtB6_26LanguageSpecificCalibrator29calculate_adaptive_thresholds00Ba_
FNDA:55,_RNCNCNvMNtNtCscx2lCY9pHX3_9lens_core11calibration17language_specificNtB6_26LanguageSpecificCalibrator5train00Ba_
FNDA:10,_RNCNvMNtNtCscx2lCY9pHX3_9lens_core11calibration17language_specificNtB4_26LanguageSpecificCalibrator18calculate_variance0B8_
FNDA:3,_RNCNvMNtNtCscx2lCY9pHX3_9lens_core11calibration17language_specificNtB4_26LanguageSpecificCalibrator22calculate_language_ece0B8_
FNDA:1,_RNCNvMNtNtCscx2lCY9pHX3_9lens_core11calibration17language_specificNtB4_26LanguageSpecificCalibrator24update_performance_stats0B8_
FNDA:4,_RNCNvMNtNtCscx2lCY9pHX3_9lens_core11calibration17language_specificNtB4_26LanguageSpecificCalibrator27calculate_optimal_threshold0B8_
FNDA:1,_RNCNvMNtNtCscx2lCY9pHX3_9lens_core11calibration17language_specificNtB4_26LanguageSpecificCalibrator28calculate_adjustment_factors0B8_
FNDA:1,_RNCNvMNtNtCscx2lCY9pHX3_9lens_core11calibration17language_specificNtB4_26LanguageSpecificCalibrator29calculate_adaptive_thresholds0B8_
FNDA:2,_RNCNvMNtNtCscx2lCY9pHX3_9lens_core11calibration17language_specificNtB4_26LanguageSpecificCalibrator30validate_cross_language_parity0B8_
FNDA:9,_RNCNvMNtNtCscx2lCY9pHX3_9lens_core11calibration17language_specificNtB4_26LanguageSpecificCalibrator3new0B8_
FNDA:1,_RNCNvMNtNtCscx2lCY9pHX3_9lens_core11calibration17language_specificNtB4_26LanguageSpecificCalibrator5train0B8_
FNDA:2,_RNCNvMNtNtCscx2lCY9pHX3_9lens_core11calibration17language_specificNtB4_26LanguageSpecificCalibrator9calibrate0B8_
FNF:51
FNH:49
DA:76,9
DA:77,9
DA:78,1
DA:79,8
DA:81,8
DA:82,8
DA:83,8
DA:84,8
DA:86,8
DA:87,8
DA:88,8
DA:89,8
DA:90,8
DA:91,8
DA:92,8
DA:93,8
DA:94,9
DA:97,1
DA:98,1
DA:101,1
DA:102,1
DA:105,1
DA:106,4
DA:107,3
DA:108,55
DA:109,3
DA:110,3
DA:111,3
DA:112,3
DA:113,0
DA:117,1
DA:120,1
DA:123,1
DA:126,1
DA:128,1
DA:129,0
DA:130,0
DA:131,0
DA:133,1
DA:134,0
DA:140,1
DA:141,1
DA:142,0
DA:145,0
DA:147,1
DA:148,1
DA:151,2
DA:152,2
DA:153,2
DA:154,2
DA:155,2
DA:156,2
DA:157,2
DA:159,2
DA:160,2
DA:161,2
DA:162,2
DA:165,2
DA:166,2
DA:167,2
DA:168,2
DA:171,2
DA:173,2
DA:174,0
DA:178,2
DA:179,2
DA:182,4
DA:183,4
DA:184,4
DA:187,2
DA:188,2
DA:189,2
DA:192,0
DA:193,0
DA:194,0
DA:197,0
DA:198,0
DA:199,0
DA:202,1
DA:203,1
DA:204,1
DA:207,2
DA:208,2
DA:209,2
DA:210,2
DA:212,2
DA:213,2
DA:214,0
DA:217,0
DA:219,2
DA:220,0
DA:223,0
DA:225,2
DA:226,0
DA:228,0
DA:231,2
DA:233,2
DA:234,1
DA:235,1
DA:236,1
DA:237,0
DA:239,1
DA:242,2
DA:243,2
DA:248,1
DA:249,1
DA:251,56
DA:252,55
DA:253,55
DA:254,55
DA:257,1
DA:258,1
DA:261,3
DA:263,3
DA:266,58
DA:267,55
DA:268,55
DA:269,55
DA:272,3
DA:273,3
DA:275,30
DA:276,30
DA:277,13
DA:278,17
DA:280,17
DA:281,17
DA:282,17
DA:283,17
DA:285,17
DA:288,3
DA:289,3
DA:292,1
DA:293,1
DA:294,0
DA:295,0
DA:296,1
DA:299,1
DA:300,1
DA:303,4
DA:304,3
DA:305,3
DA:307,0
DA:311,3
DA:313,3
DA:315,3
DA:316,0
DA:321,1
DA:322,1
DA:325,1
DA:326,4
DA:327,3
DA:328,0
DA:329,3
DA:332,55
DA:333,3
DA:334,3
DA:336,3
DA:337,0
DA:342,1
DA:343,1
DA:346,4
DA:347,4
DA:348,4
DA:351,324
DA:352,320
DA:354,320
DA:355,320
DA:356,320
DA:357,320
DA:359,5120
DA:360,4800
DA:361,4800
DA:363,4800
DA:364,1778
DA:365,1257
DA:366,1223
DA:367,542
DA:372,320
DA:373,320
DA:374,320
DA:375,282
DA:377,38
DA:380,320
DA:381,22
DA:382,22
DA:383,298
DA:386,4
DA:387,4
DA:390,2
DA:392,2
DA:395,2
DA:396,2
DA:398,2
DA:400,2
DA:401,2
DA:404,1
DA:405,1
DA:406,0
DA:407,1
DA:410,1
DA:411,1
DA:414,1
DA:415,1
DA:416,2
DA:417,1
DA:418,1
DA:420,1
DA:421,1
DA:422,1
DA:423,1
DA:424,1
DA:426,1
DA:427,1
DA:429,0
DA:432,1
DA:433,0
DA:435,1
DA:439,1
DA:440,1
DA:442,0
DA:445,1
DA:448,1
DA:449,1
DA:450,2
DA:451,1
DA:453,1
DA:454,1
DA:455,2
DA:456,1
DA:458,1
DA:459,1
DA:460,1
DA:461,1
DA:462,1
DA:463,1
DA:464,1
DA:465,1
DA:467,1
DA:468,1
DA:471,4
DA:472,4
DA:473,1
DA:474,3
DA:476,3
DA:477,3
DA:478,10
DA:479,3
DA:481,3
DA:482,4
DA:485,1
DA:487,1
DA:488,1
DA:491,1
DA:494,1
DA:496,1
DA:497,1
DA:501,9
DA:502,9
DA:503,9
DA:504,9
DA:505,9
DA:506,9
DA:507,9
DA:508,9
DA:509,9
DA:510,9
DA:517,60
DA:518,60
DA:519,60
DA:520,60
DA:521,60
DA:522,60
DA:523,60
DA:524,60
DA:525,60
DA:526,60
DA:529,1
DA:530,1
DA:531,1
DA:532,1
DA:533,1
DA:534,1
DA:536,1
DA:537,1
DA:538,1
DA:539,1
DA:542,1
DA:543,1
DA:544,1
DA:545,1
DA:546,1
DA:547,1
DA:549,1
DA:550,1
DA:551,1
DA:552,1
DA:555,1
DA:556,1
DA:557,1
DA:558,1
DA:559,1
DA:560,1
DA:562,1
DA:565,1
DA:568,21
DA:569,20
DA:570,20
DA:571,20
DA:575,21
DA:576,20
DA:577,20
DA:578,20
DA:582,16
DA:583,15
DA:584,15
DA:585,15
DA:588,1
DA:591,1
DA:592,1
DA:593,1
DA:595,1
DA:596,1
DA:597,1
DA:600,1
DA:601,1
DA:603,1
DA:604,1
DA:605,1
DA:608,1
DA:609,1
DA:610,1
DA:611,1
DA:612,1
DA:613,1
DA:615,1
DA:618,1
DA:619,1
DA:621,1
DA:622,1
DA:625,1
DA:626,1
DA:629,1
DA:630,1
DA:631,1
DA:634,1
DA:635,1
DA:636,1
DA:637,1
DA:638,1
DA:639,1
DA:641,1
DA:644,1
DA:645,1
DA:646,1
DA:647,1
DA:648,1
DA:649,1
DA:650,1
DA:651,1
DA:653,1
DA:654,1
DA:657,1
DA:658,1
DA:659,1
DA:660,1
DA:663,1
DA:664,1
DA:665,1
DA:666,1
DA:667,1
DA:668,1
DA:670,1
DA:671,1
DA:672,1
DA:673,1
DA:674,1
DA:675,1
DA:676,1
DA:677,1
DA:679,1
DA:680,1
DA:683,1
DA:684,1
DA:687,1
DA:688,1
DA:691,1
DA:692,1
DA:693,1
DA:694,1
DA:695,1
DA:696,1
DA:698,1
DA:701,1
DA:702,1
DA:703,1
DA:704,1
DA:705,1
DA:706,1
DA:709,1
DA:712,1
DA:713,1
DA:715,1
DA:716,1
BRF:0
BRH:0
LF:433
LH:402
end_of_record
SF:/home/nathan/Projects/lens/src/calibration/mod.rs
FN:402,_RNCNCNvMNtCscx2lCY9pHX3_9lens_core11calibrationNtB6_23Phase4CalibrationSystem26get_cross_language_metrics00B8_
FN:437,_RNCNCNvMNtCscx2lCY9pHX3_9lens_core11calibrationNtB6_23Phase4CalibrationSystem26get_cross_language_metrics0s0_0B8_
FN:438,_RNCNCNvMNtCscx2lCY9pHX3_9lens_core11calibrationNtB6_23Phase4CalibrationSystem26get_cross_language_metrics0s1_0B8_
FN:442,_RNCNCNvMNtCscx2lCY9pHX3_9lens_core11calibrationNtB6_23Phase4CalibrationSystem26get_cross_language_metrics0s2_0B8_
FN:443,_RNCNCNvMNtCscx2lCY9pHX3_9lens_core11calibrationNtB6_23Phase4CalibrationSystem26get_cross_language_metrics0s3_0B8_
FN:408,_RNCNCNvMNtCscx2lCY9pHX3_9lens_core11calibrationNtB6_23Phase4CalibrationSystem26get_cross_language_metrics0s_0B8_
FN:229,_RNCNCNvMNtCscx2lCY9pHX3_9lens_core11calibrationNtB6_23Phase4CalibrationSystem5train00B8_
FN:263,_RNCNCNvMNtCscx2lCY9pHX3_9lens_core11calibrationNtB6_23Phase4CalibrationSystem5train0s0_0B8_
FN:247,_RNCNCNvMNtCscx2lCY9pHX3_9lens_core11calibrationNtB6_23Phase4CalibrationSystem5train0s_0B8_
FN:306,_RNCNCNvMNtCscx2lCY9pHX3_9lens_core11calibrationNtB6_23Phase4CalibrationSystem9calibrate00B8_
FN:340,_RNCNCNvMNtCscx2lCY9pHX3_9lens_core11calibrationNtB6_23Phase4CalibrationSystem9calibrate0s0_0B8_
FN:372,_RNCNCNvMNtCscx2lCY9pHX3_9lens_core11calibrationNtB6_23Phase4CalibrationSystem9calibrate0s1_0B8_
FN:324,_RNCNCNvMNtCscx2lCY9pHX3_9lens_core11calibrationNtB6_23Phase4CalibrationSystem9calibrate0s_0B8_
FN:457,_RNCNvMNtCscx2lCY9pHX3_9lens_core11calibrationNtB4_23Phase4CalibrationSystem11monitor_ece0B6_
FN:561,_RNCNvMNtCscx2lCY9pHX3_9lens_core11calibrationNtB4_23Phase4CalibrationSystem13calculate_ece0B6_
FN:601,_RNCNvMNtCscx2lCY9pHX3_9lens_core11calibrationNtB4_23Phase4CalibrationSystem18calculate_variance0B6_
FN:548,_RNCNvMNtCscx2lCY9pHX3_9lens_core11calibrationNtB4_23Phase4CalibrationSystem23validate_ece_compliance0B6_
FN:379,_RNCNvMNtCscx2lCY9pHX3_9lens_core11calibrationNtB4_23Phase4CalibrationSystem26get_cross_language_metrics0B6_
FN:466,_RNCNvMNtCscx2lCY9pHX3_9lens_core11calibrationNtB4_23Phase4CalibrationSystem26validate_phase4_compliance0B6_
FN:208,_RNCNvMNtCscx2lCY9pHX3_9lens_core11calibrationNtB4_23Phase4CalibrationSystem5train0B6_
FN:291,_RNCNvMNtCscx2lCY9pHX3_9lens_core11calibrationNtB4_23Phase4CalibrationSystem9calibrate0B6_
FN:654,_RNCNvNtCscx2lCY9pHX3_9lens_core11calibration29initialize_phase4_calibration0B5_
FN:457,_RNvMNtCscx2lCY9pHX3_9lens_core11calibrationNtB2_23Phase4CalibrationSystem11monitor_ece
FN:561,_RNvMNtCscx2lCY9pHX3_9lens_core11calibrationNtB2_23Phase4CalibrationSystem13calculate_ece
FN:594,_RNvMNtCscx2lCY9pHX3_9lens_core11calibrationNtB2_23Phase4CalibrationSystem18calculate_variance
FN:548,_RNvMNtCscx2lCY9pHX3_9lens_core11calibrationNtB2_23Phase4CalibrationSystem23validate_ece_compliance
FN:526,_RNvMNtCscx2lCY9pHX3_9lens_core11calibrationNtB2_23Phase4CalibrationSystem25validate_training_samples
FN:379,_RNvMNtCscx2lCY9pHX3_9lens_core11calibrationNtB2_23Phase4CalibrationSystem26get_cross_language_metrics
FN:466,_RNvMNtCscx2lCY9pHX3_9lens_core11calibrationNtB2_23Phase4CalibrationSystem26validate_phase4_compliance
FN:208,_RNvMNtCscx2lCY9pHX3_9lens_core11calibrationNtB2_23Phase4CalibrationSystem5train
FN:285,_RNvMNtCscx2lCY9pHX3_9lens_core11calibrationNtB2_23Phase4CalibrationSystem9calibrate
FN:654,_RNvNtCscx2lCY9pHX3_9lens_core11calibration29initialize_phase4_calibration
FN:155,_RNCNvMNtCscx2lCY9pHX3_9lens_core11calibrationNtB4_23Phase4CalibrationSystem3new0B6_
FN:738,_RNvNtNtCscx2lCY9pHX3_9lens_core11calibration5testss_20test_ece_calculation
FN:700,_RNvNtNtCscx2lCY9pHX3_9lens_core11calibration5testss_20test_sample_grouping
FN:691,_RNvNtNtCscx2lCY9pHX3_9lens_core11calibration5testss_25test_slice_key_generation
FN:744,_RNvNtNtCscx2lCY9pHX3_9lens_core11calibration5testss_25test_variance_calculation
FN:664,_RNvNtNtCscx2lCY9pHX3_9lens_core11calibration5testss_29test_phase4_config_validation
FN:508,_RNvMNtCscx2lCY9pHX3_9lens_core11calibrationNtB2_23Phase4CalibrationSystem14make_slice_key
FN:515,_RNvMNtCscx2lCY9pHX3_9lens_core11calibrationNtB2_23Phase4CalibrationSystem22group_samples_by_slice
FN:155,_RNvMNtCscx2lCY9pHX3_9lens_core11calibrationNtB2_23Phase4CalibrationSystem3new
FN:643,_RNvXs0_NtCscx2lCY9pHX3_9lens_core11calibrationNtB5_11AlertConfigNtNtCs66KPHxksi63_4core7default7Default7default
FN:610,_RNvXs_NtCscx2lCY9pHX3_9lens_core11calibrationNtB4_12Phase4ConfigNtNtCs66KPHxksi63_4core7default7Default7default
FN:700,_RNCNvNtNtCscx2lCY9pHX3_9lens_core11calibration5testss_20test_sample_grouping0B7_
FN:691,_RNCNvNtNtCscx2lCY9pHX3_9lens_core11calibration5testss_25test_slice_key_generation0B7_
FN:664,_RNCNvNtNtCscx2lCY9pHX3_9lens_core11calibration5testss_29test_phase4_config_validation0B7_
FNDA:0,_RNCNCNvMNtCscx2lCY9pHX3_9lens_core11calibrationNtB6_23Phase4CalibrationSystem26get_cross_language_metrics00B8_
FNDA:0,_RNCNCNvMNtCscx2lCY9pHX3_9lens_core11calibrationNtB6_23Phase4CalibrationSystem26get_cross_language_metrics0s0_0B8_
FNDA:0,_RNCNCNvMNtCscx2lCY9pHX3_9lens_core11calibrationNtB6_23Phase4CalibrationSystem26get_cross_language_metrics0s1_0B8_
FNDA:0,_RNCNCNvMNtCscx2lCY9pHX3_9lens_core11calibrationNtB6_23Phase4CalibrationSystem26get_cross_language_metrics0s2_0B8_
FNDA:0,_RNCNCNvMNtCscx2lCY9pHX3_9lens_core11calibrationNtB6_23Phase4CalibrationSystem26get_cross_language_metrics0s3_0B8_
FNDA:0,_RNCNCNvMNtCscx2lCY9pHX3_9lens_core11calibrationNtB6_23Phase4CalibrationSystem26get_cross_language_metrics0s_0B8_
FNDA:0,_RNCNCNvMNtCscx2lCY9pHX3_9lens_core11calibrationNtB6_23Phase4CalibrationSystem5train00B8_
FNDA:0,_RNCNCNvMNtCscx2lCY9pHX3_9lens_core11calibrationNtB6_23Phase4CalibrationSystem5train0s0_0B8_
FNDA:0,_RNCNCNvMNtCscx2lCY9pHX3_9lens_core11calibrationNtB6_23Phase4CalibrationSystem5train0s_0B8_
FNDA:0,_RNCNCNvMNtCscx2lCY9pHX3_9lens_core11calibrationNtB6_23Phase4CalibrationSystem9calibrate00B8_
FNDA:0,_RNCNCNvMNtCscx2lCY9pHX3_9lens_core11calibrationNtB6_23Phase4CalibrationSystem9calibrate0s0_0B8_
FNDA:0,_RNCNCNvMNtCscx2lCY9pHX3_9lens_core11calibrationNtB6_23Phase4CalibrationSystem9calibrate0s1_0B8_
FNDA:0,_RNCNCNvMNtCscx2lCY9pHX3_9lens_core11calibrationNtB6_23Phase4CalibrationSystem9calibrate0s_0B8_
FNDA:0,_RNCNvMNtCscx2lCY9pHX3_9lens_core11calibrationNtB4_23Phase4CalibrationSystem11monitor_ece0B6_
FNDA:0,_RNCNvMNtCscx2lCY9pHX3_9lens_core11calibrationNtB4_23Phase4CalibrationSystem13calculate_ece0B6_
FNDA:0,_RNCNvMNtCscx2lCY9pHX3_9lens_core11calibrationNtB4_23Phase4CalibrationSystem18calculate_variance0B6_
FNDA:0,_RNCNvMNtCscx2lCY9pHX3_9lens_core11calibrationNtB4_23Phase4CalibrationSystem23validate_ece_compliance0B6_
FNDA:0,_RNCNvMNtCscx2lCY9pHX3_9lens_core11calibrationNtB4_23Phase4CalibrationSystem26get_cross_language_metrics0B6_
FNDA:0,_RNCNvMNtCscx2lCY9pHX3_9lens_core11calibrationNtB4_23Phase4CalibrationSystem26validate_phase4_compliance0B6_
FNDA:0,_RNCNvMNtCscx2lCY9pHX3_9lens_core11calibrationNtB4_23Phase4CalibrationSystem5train0B6_
FNDA:0,_RNCNvMNtCscx2lCY9pHX3_9lens_core11calibrationNtB4_23Phase4CalibrationSystem9calibrate0B6_
FNDA:0,_RNCNvNtCscx2lCY9pHX3_9lens_core11calibration29initialize_phase4_calibration0B5_
FNDA:0,_RNvMNtCscx2lCY9pHX3_9lens_core11calibrationNtB2_23Phase4CalibrationSystem11monitor_ece
FNDA:0,_RNvMNtCscx2lCY9pHX3_9lens_core11calibrationNtB2_23Phase4CalibrationSystem13calculate_ece
FNDA:0,_RNvMNtCscx2lCY9pHX3_9lens_core11calibrationNtB2_23Phase4CalibrationSystem18calculate_variance
FNDA:0,_RNvMNtCscx2lCY9pHX3_9lens_core11calibrationNtB2_23Phase4CalibrationSystem23validate_ece_compliance
FNDA:0,_RNvMNtCscx2lCY9pHX3_9lens_core11calibrationNtB2_23Phase4CalibrationSystem25validate_training_samples
FNDA:0,_RNvMNtCscx2lCY9pHX3_9lens_core11calibrationNtB2_23Phase4CalibrationSystem26get_cross_language_metrics
FNDA:0,_RNvMNtCscx2lCY9pHX3_9lens_core11calibrationNtB2_23Phase4CalibrationSystem26validate_phase4_compliance
FNDA:0,_RNvMNtCscx2lCY9pHX3_9lens_core11calibrationNtB2_23Phase4CalibrationSystem5train
FNDA:0,_RNvMNtCscx2lCY9pHX3_9lens_core11calibrationNtB2_23Phase4CalibrationSystem9calibrate
FNDA:0,_RNvNtCscx2lCY9pHX3_9lens_core11calibration29initialize_phase4_calibration
FNDA:6,_RNCNvMNtCscx2lCY9pHX3_9lens_core11calibrationNtB4_23Phase4CalibrationSystem3new0B6_
FNDA:1,_RNvNtNtCscx2lCY9pHX3_9lens_core11calibration5testss_20test_ece_calculation
FNDA:1,_RNvNtNtCscx2lCY9pHX3_9lens_core11calibration5testss_20test_sample_grouping
FNDA:1,_RNvNtNtCscx2lCY9pHX3_9lens_core11calibration5testss_25test_slice_key_generation
FNDA:1,_RNvNtNtCscx2lCY9pHX3_9lens_core11calibration5testss_25test_variance_calculation
FNDA:1,_RNvNtNtCscx2lCY9pHX3_9lens_core11calibration5testss_29test_phase4_config_validation
FNDA:5,_RNvMNtCscx2lCY9pHX3_9lens_core11calibrationNtB2_23Phase4CalibrationSystem14make_slice_key
FNDA:1,_RNvMNtCscx2lCY9pHX3_9lens_core11calibrationNtB2_23Phase4CalibrationSystem22group_samples_by_slice
FNDA:6,_RNvMNtCscx2lCY9pHX3_9lens_core11calibrationNtB2_23Phase4CalibrationSystem3new
FNDA:8,_RNvXs0_NtCscx2lCY9pHX3_9lens_core11calibrationNtB5_11AlertConfigNtNtCs66KPHxksi63_4core7default7Default7default
FNDA:7,_RNvXs_NtCscx2lCY9pHX3_9lens_core11calibrationNtB4_12Phase4ConfigNtNtCs66KPHxksi63_4core7default7Default7default
FNDA:1,_RNCNvNtNtCscx2lCY9pHX3_9lens_core11calibration5testss_20test_sample_grouping0B7_
FNDA:1,_RNCNvNtNtCscx2lCY9pHX3_9lens_core11calibration5testss_25test_slice_key_generation0B7_
FNDA:1,_RNCNvNtNtCscx2lCY9pHX3_9lens_core11calibration5testss_29test_phase4_config_validation0B7_
FNF:46
FNH:14
DA:155,6
DA:157,6
DA:158,1
DA:159,5
DA:160,5
DA:161,1
DA:162,4
DA:163,4
DA:164,1
DA:165,3
DA:167,3
DA:168,3
DA:169,3
DA:170,3
DA:173,3
DA:174,3
DA:175,3
DA:176,3
DA:177,3
DA:178,3
DA:181,3
DA:182,3
DA:183,3
DA:184,3
DA:185,3
DA:186,3
DA:189,3
DA:190,33
DA:191,33
DA:192,33
DA:193,33
DA:196,3
DA:197,3
DA:198,3
DA:199,3
DA:200,3
DA:201,3
DA:202,3
DA:203,3
DA:204,3
DA:205,6
DA:208,0
DA:209,0
DA:212,0
DA:215,0
DA:216,0
DA:219,0
DA:220,0
DA:221,0
DA:222,0
DA:223,0
DA:224,0
DA:225,0
DA:227,0
DA:228,0
DA:229,0
DA:231,0
DA:232,0
DA:233,0
DA:237,0
DA:238,0
DA:239,0
DA:240,0
DA:241,0
DA:242,0
DA:243,0
DA:245,0
DA:246,0
DA:247,0
DA:249,0
DA:250,0
DA:254,0
DA:255,0
DA:256,0
DA:257,0
DA:258,0
DA:259,0
DA:261,0
DA:262,0
DA:263,0
DA:265,0
DA:266,0
DA:270,0
DA:271,0
DA:273,0
DA:274,0
DA:275,0
DA:276,0
DA:279,0
DA:281,0
DA:282,0
DA:285,0
DA:286,0
DA:287,0
DA:288,0
DA:289,0
DA:290,0
DA:291,0
DA:292,0
DA:295,0
DA:296,0
DA:297,0
DA:300,0
DA:301,0
DA:302,0
DA:303,0
DA:304,0
DA:305,0
DA:306,0
DA:307,0
DA:310,0
DA:313,0
DA:314,0
DA:315,0
DA:318,0
DA:319,0
DA:320,0
DA:321,0
DA:322,0
DA:323,0
DA:324,0
DA:325,0
DA:328,0
DA:331,0
DA:332,0
DA:333,0
DA:336,0
DA:337,0
DA:338,0
DA:339,0
DA:340,0
DA:341,0
DA:344,0
DA:347,0
DA:348,0
DA:349,0
DA:351,0
DA:352,0
DA:353,0
DA:354,0
DA:355,0
DA:356,0
DA:357,0
DA:358,0
DA:359,0
DA:360,0
DA:361,0
DA:362,0
DA:365,0
DA:368,0
DA:369,0
DA:370,0
DA:371,0
DA:372,0
DA:376,0
DA:379,0
DA:380,0
DA:383,0
DA:384,0
DA:385,0
DA:386,0
DA:387,0
DA:391,0
DA:392,0
DA:393,0
DA:394,0
DA:395,0
DA:396,0
DA:400,0
DA:401,0
DA:402,0
DA:403,0
DA:404,0
DA:406,0
DA:407,0
DA:408,0
DA:409,0
DA:410,0
DA:412,0
DA:413,0
DA:415,0
DA:418,0
DA:419,0
DA:421,0
DA:424,0
DA:427,0
DA:428,0
DA:429,0
DA:431,0
DA:435,0
DA:436,0
DA:437,0
DA:438,0
DA:440,0
DA:441,0
DA:442,0
DA:443,0
DA:445,0
DA:446,0
DA:447,0
DA:448,0
DA:449,0
DA:450,0
DA:451,0
DA:452,0
DA:453,0
DA:454,0
DA:457,0
DA:458,0
DA:459,0
DA:461,0
DA:463,0
DA:466,0
DA:467,0
DA:469,0
DA:470,0
DA:471,0
DA:473,0
DA:474,0
DA:476,0
DA:477,0
DA:479,0
DA:480,0
DA:482,0
DA:484,0
DA:486,0
DA:487,0
DA:488,0
DA:489,0
DA:490,0
DA:491,0
DA:492,0
DA:494,0
DA:495,0
DA:496,0
DA:498,0
DA:500,0
DA:503,0
DA:504,0
DA:508,5
DA:509,5
DA:510,4
DA:511,1
DA:513,5
DA:515,1
DA:516,1
DA:518,4
DA:519,3
DA:520,3
DA:521,3
DA:523,1
DA:524,1
DA:526,0
DA:527,0
DA:528,0
DA:529,0
DA:531,0
DA:532,0
DA:533,0
DA:534,0
DA:535,0
DA:536,0
DA:537,0
DA:538,0
DA:541,0
DA:542,0
DA:543,0
DA:545,0
DA:546,0
DA:548,0
DA:549,0
DA:551,0
DA:552,0
DA:555,0
DA:558,0
DA:559,0
DA:561,0
DA:563,0
DA:566,0
DA:567,0
DA:568,0
DA:569,0
DA:572,0
DA:573,0
DA:575,0
DA:576,0
DA:577,0
DA:578,0
DA:580,0
DA:581,0
DA:582,0
DA:583,0
DA:585,0
DA:586,0
DA:588,0
DA:591,0
DA:592,0
DA:594,0
DA:595,0
DA:596,0
DA:597,0
DA:599,0
DA:600,0
DA:601,0
DA:602,0
DA:604,0
DA:605,0
DA:610,7
DA:611,7
DA:612,7
DA:613,7
DA:614,7
DA:615,7
DA:616,7
DA:617,7
DA:618,7
DA:619,7
DA:620,7
DA:621,7
DA:622,7
DA:623,7
DA:624,7
DA:625,7
DA:626,7
DA:627,7
DA:628,7
DA:629,7
DA:630,7
DA:631,7
DA:632,7
DA:633,7
DA:634,7
DA:635,7
DA:636,7
DA:637,7
DA:638,7
DA:639,7
DA:643,8
DA:644,8
DA:645,8
DA:646,8
DA:647,8
DA:648,8
DA:649,8
DA:650,8
DA:654,0
DA:655,0
DA:656,0
DA:657,0
DA:664,1
DA:666,1
DA:667,1
DA:668,1
DA:671,1
DA:672,1
DA:673,1
DA:674,1
DA:675,1
DA:678,1
DA:679,1
DA:680,1
DA:681,1
DA:684,1
DA:685,1
DA:686,1
DA:687,1
DA:688,1
DA:691,1
DA:692,1
DA:693,1
DA:695,1
DA:696,1
DA:697,1
DA:700,1
DA:701,1
DA:702,1
DA:704,1
DA:705,1
DA:706,1
DA:707,1
DA:708,1
DA:709,1
DA:710,1
DA:711,1
DA:712,1
DA:713,1
DA:714,1
DA:715,1
DA:716,1
DA:717,1
DA:718,1
DA:719,1
DA:720,1
DA:721,1
DA:722,1
DA:723,1
DA:724,1
DA:725,1
DA:726,1
DA:727,1
DA:728,1
DA:731,1
DA:732,1
DA:733,1
DA:734,1
DA:735,1
DA:738,1
DA:741,1
DA:744,1
DA:745,1
DA:746,1
DA:748,1
BRF:0
BRH:0
LF:441
LH:162
end_of_record
SF:/home/nathan/Projects/lens/src/calibration/monitoring.rs
FN:300,_RNCNCNvMNtNtCscx2lCY9pHX3_9lens_core11calibration10monitoringNtB6_18CalibrationMonitor19check_system_health00Ba_
FN:409,_RNCNvMNtNtCscx2lCY9pHX3_9lens_core11calibration10monitoringNtB4_18CalibrationMonitor12record_alert0B8_
FN:323,_RNCNvMNtNtCscx2lCY9pHX3_9lens_core11calibration10monitoringNtB4_18CalibrationMonitor14generate_alert0B8_
FN:379,_RNCNvMNtNtCscx2lCY9pHX3_9lens_core11calibration10monitoringNtB4_18CalibrationMonitor17should_send_alert0B8_
FN:199,_RNCNvMNtNtCscx2lCY9pHX3_9lens_core11calibration10monitoringNtB4_18CalibrationMonitor18record_measurement0B8_
FN:175,_RNCNvMNtNtCscx2lCY9pHX3_9lens_core11calibration10monitoringNtB4_18CalibrationMonitor19check_ece_threshold0B8_
FN:286,_RNCNvMNtNtCscx2lCY9pHX3_9lens_core11calibration10monitoringNtB4_18CalibrationMonitor19check_system_health0B8_
FN:427,_RNCNvMNtNtCscx2lCY9pHX3_9lens_core11calibration10monitoringNtB4_18CalibrationMonitor19update_global_stats0B8_
FN:234,_RNCNvMNtNtCscx2lCY9pHX3_9lens_core11calibration10monitoringNtB4_18CalibrationMonitor21get_monitoring_report0B8_
FN:524,_RNCNvMNtNtCscx2lCY9pHX3_9lens_core11calibration10monitoringNtB4_18CalibrationMonitor22calculate_health_score0B8_
FN:270,_RNCNvMNtNtCscx2lCY9pHX3_9lens_core11calibration10monitoringNtB4_18CalibrationMonitor22reset_monitoring_state0B8_
FN:475,_RNCNvMNtNtCscx2lCY9pHX3_9lens_core11calibration10monitoringNtB4_18CalibrationMonitor23generate_slice_analysis0B8_
FN:158,_RNCNvMNtNtCscx2lCY9pHX3_9lens_core11calibration10monitoringNtB4_18CalibrationMonitor3new0B8_
FN:585,_RNvNtNtNtCscx2lCY9pHX3_9lens_core11calibration10monitoring5tests18create_test_result
FN:794,_RNvNtNtNtCscx2lCY9pHX3_9lens_core11calibration10monitoring5testss_16test_state_reset
FN:598,_RNvNtNtNtCscx2lCY9pHX3_9lens_core11calibration10monitoring5testss_21test_monitor_creation
FN:706,_RNvNtNtNtCscx2lCY9pHX3_9lens_core11calibration10monitoring5testss_22test_monitoring_report
FN:735,_RNvNtNtNtCscx2lCY9pHX3_9lens_core11calibration10monitoring5testss_24test_system_health_check
FN:613,_RNvNtNtNtCscx2lCY9pHX3_9lens_core11calibration10monitoring5testss_29test_ece_threshold_monitoring
FN:765,_RNvNtNtNtCscx2lCY9pHX3_9lens_core11calibration10monitoring5testss_34test_alert_severity_classification
FN:676,_RNCNCNvNtNtNtCscx2lCY9pHX3_9lens_core11calibration10monitoring5testss_19test_alert_cooldown00Bb_
FN:644,_RNCNCNvNtNtNtCscx2lCY9pHX3_9lens_core11calibration10monitoring5testss_24test_alert_rate_limiting00Bb_
FN:591,_RNCNvNtNtNtCscx2lCY9pHX3_9lens_core11calibration10monitoring5tests18create_test_result0B9_
FN:794,_RNCNvNtNtNtCscx2lCY9pHX3_9lens_core11calibration10monitoring5testss_16test_state_reset0B9_
FN:676,_RNCNvNtNtNtCscx2lCY9pHX3_9lens_core11calibration10monitoring5testss_19test_alert_cooldown0B9_
FN:598,_RNCNvNtNtNtCscx2lCY9pHX3_9lens_core11calibration10monitoring5testss_21test_monitor_creation0B9_
FN:706,_RNCNvNtNtNtCscx2lCY9pHX3_9lens_core11calibration10monitoring5testss_22test_monitoring_report0B9_
FN:644,_RNCNvNtNtNtCscx2lCY9pHX3_9lens_core11calibration10monitoring5testss_24test_alert_rate_limiting0B9_
FN:735,_RNCNvNtNtNtCscx2lCY9pHX3_9lens_core11calibration10monitoring5testss_24test_system_health_check0B9_
FN:613,_RNCNvNtNtNtCscx2lCY9pHX3_9lens_core11calibration10monitoring5testss_29test_ece_threshold_monitoring0B9_
FN:765,_RNCNvNtNtNtCscx2lCY9pHX3_9lens_core11calibration10monitoring5testss_34test_alert_severity_classification0B9_
FN:265,_RNvMNtNtCscx2lCY9pHX3_9lens_core11calibration10monitoringNtB2_18CalibrationMonitor10get_uptime
FN:409,_RNvMNtNtCscx2lCY9pHX3_9lens_core11calibration10monitoringNtB2_18CalibrationMonitor12record_alert
FN:323,_RNvMNtNtCscx2lCY9pHX3_9lens_core11calibration10monitoringNtB2_18CalibrationMonitor14generate_alert
FN:316,_RNvMNtNtCscx2lCY9pHX3_9lens_core11calibration10monitoringNtB2_18CalibrationMonitor14make_slice_key
FN:379,_RNvMNtNtCscx2lCY9pHX3_9lens_core11calibration10monitoringNtB2_18CalibrationMonitor17should_send_alert
FN:199,_RNvMNtNtCscx2lCY9pHX3_9lens_core11calibration10monitoringNtB2_18CalibrationMonitor18record_measurement
FN:175,_RNvMNtNtCscx2lCY9pHX3_9lens_core11calibration10monitoringNtB2_18CalibrationMonitor19check_ece_threshold
FN:286,_RNvMNtNtCscx2lCY9pHX3_9lens_core11calibration10monitoringNtB2_18CalibrationMonitor19check_system_health
FN:427,_RNvMNtNtCscx2lCY9pHX3_9lens_core11calibration10monitoringNtB2_18CalibrationMonitor19update_global_stats
FN:234,_RNvMNtNtCscx2lCY9pHX3_9lens_core11calibration10monitoringNtB2_18CalibrationMonitor21get_monitoring_report
FN:520,_RNvMNtNtCscx2lCY9pHX3_9lens_core11calibration10monitoringNtB2_18CalibrationMonitor22calculate_health_score
FN:270,_RNvMNtNtCscx2lCY9pHX3_9lens_core11calibration10monitoringNtB2_18CalibrationMonitor22reset_monitoring_state
FN:475,_RNvMNtNtCscx2lCY9pHX3_9lens_core11calibration10monitoringNtB2_18CalibrationMonitor23generate_slice_analysis
FN:158,_RNvMNtNtCscx2lCY9pHX3_9lens_core11calibration10monitoringNtB2_18CalibrationMonitor3new
FN:557,_RNvMs_NtNtCscx2lCY9pHX3_9lens_core11calibration10monitoringNtB4_10AlertState3new
FN:568,_RNvXs0_NtNtCscx2lCY9pHX3_9lens_core11calibration10monitoringNtB5_14GlobalECEStatsNtNtCs66KPHxksi63_4core7default7Default7default
FNDA:0,_RNCNCNvMNtNtCscx2lCY9pHX3_9lens_core11calibration10monitoringNtB6_18CalibrationMonitor19check_system_health00Ba_
FNDA:6,_RNCNvMNtNtCscx2lCY9pHX3_9lens_core11calibration10monitoringNtB4_18CalibrationMonitor12record_alert0B8_
FNDA:11,_RNCNvMNtNtCscx2lCY9pHX3_9lens_core11calibration10monitoringNtB4_18CalibrationMonitor14generate_alert0B8_
FNDA:8,_RNCNvMNtNtCscx2lCY9pHX3_9lens_core11calibration10monitoringNtB4_18CalibrationMonitor17should_send_alert0B8_
FNDA:13,_RNCNvMNtNtCscx2lCY9pHX3_9lens_core11calibration10monitoringNtB4_18CalibrationMonitor18record_measurement0B8_
FNDA:9,_RNCNvMNtNtCscx2lCY9pHX3_9lens_core11calibration10monitoringNtB4_18CalibrationMonitor19check_ece_threshold0B8_
FNDA:4,_RNCNvMNtNtCscx2lCY9pHX3_9lens_core11calibration10monitoringNtB4_18CalibrationMonitor19check_system_health0B8_
FNDA:13,_RNCNvMNtNtCscx2lCY9pHX3_9lens_core11calibration10monitoringNtB4_18CalibrationMonitor19update_global_stats0B8_
FNDA:7,_RNCNvMNtNtCscx2lCY9pHX3_9lens_core11calibration10monitoringNtB4_18CalibrationMonitor21get_monitoring_report0B8_
FNDA:7,_RNCNvMNtNtCscx2lCY9pHX3_9lens_core11calibration10monitoringNtB4_18CalibrationMonitor22calculate_health_score0B8_
FNDA:1,_RNCNvMNtNtCscx2lCY9pHX3_9lens_core11calibration10monitoringNtB4_18CalibrationMonitor22reset_monitoring_state0B8_
FNDA:7,_RNCNvMNtNtCscx2lCY9pHX3_9lens_core11calibration10monitoringNtB4_18CalibrationMonitor23generate_slice_analysis0B8_
FNDA:11,_RNCNvMNtNtCscx2lCY9pHX3_9lens_core11calibration10monitoringNtB4_18CalibrationMonitor3new0B8_
FNDA:14,_RNvNtNtNtCscx2lCY9pHX3_9lens_core11calibration10monitoring5tests18create_test_result
FNDA:1,_RNvNtNtNtCscx2lCY9pHX3_9lens_core11calibration10monitoring5testss_16test_state_reset
FNDA:1,_RNvNtNtNtCscx2lCY9pHX3_9lens_core11calibration10monitoring5testss_21test_monitor_creation
FNDA:1,_RNvNtNtNtCscx2lCY9pHX3_9lens_core11calibration10monitoring5testss_22test_monitoring_report
FNDA:1,_RNvNtNtNtCscx2lCY9pHX3_9lens_core11calibration10monitoring5testss_24test_system_health_check
FNDA:1,_RNvNtNtNtCscx2lCY9pHX3_9lens_core11calibration10monitoring5testss_29test_ece_threshold_monitoring
FNDA:1,_RNvNtNtNtCscx2lCY9pHX3_9lens_core11calibration10monitoring5testss_34test_alert_severity_classification
FNDA:1,_RNCNCNvNtNtNtCscx2lCY9pHX3_9lens_core11calibration10monitoring5testss_19test_alert_cooldown00Bb_
FNDA:1,_RNCNCNvNtNtNtCscx2lCY9pHX3_9lens_core11calibration10monitoring5testss_24test_alert_rate_limiting00Bb_
FNDA:14,_RNCNvNtNtNtCscx2lCY9pHX3_9lens_core11calibration10monitoring5tests18create_test_result0B9_
FNDA:1,_RNCNvNtNtNtCscx2lCY9pHX3_9lens_core11calibration10monitoring5testss_16test_state_reset0B9_
FNDA:1,_RNCNvNtNtNtCscx2lCY9pHX3_9lens_core11calibration10monitoring5testss_19test_alert_cooldown0B9_
FNDA:1,_RNCNvNtNtNtCscx2lCY9pHX3_9lens_core11calibration10monitoring5testss_21test_monitor_creation0B9_
FNDA:1,_RNCNvNtNtNtCscx2lCY9pHX3_9lens_core11calibration10monitoring5testss_22test_monitoring_report0B9_
FNDA:1,_RNCNvNtNtNtCscx2lCY9pHX3_9lens_core11calibration10monitoring5testss_24test_alert_rate_limiting0B9_
FNDA:1,_RNCNvNtNtNtCscx2lCY9pHX3_9lens_core11calibration10monitoring5testss_24test_system_health_check0B9_
FNDA:1,_RNCNvNtNtNtCscx2lCY9pHX3_9lens_core11calibration10monitoring5testss_29test_ece_threshold_monitoring0B9_
FNDA:1,_RNCNvNtNtNtCscx2lCY9pHX3_9lens_core11calibration10monitoring5testss_34test_alert_severity_classification0B9_
FNDA:1,_RNvMNtNtCscx2lCY9pHX3_9lens_core11calibration10monitoringNtB2_18CalibrationMonitor10get_uptime
FNDA:6,_RNvMNtNtCscx2lCY9pHX3_9lens_core11calibration10monitoringNtB2_18CalibrationMonitor12record_alert
FNDA:11,_RNvMNtNtCscx2lCY9pHX3_9lens_core11calibration10monitoringNtB2_18CalibrationMonitor14generate_alert
FNDA:24,_RNvMNtNtCscx2lCY9pHX3_9lens_core11calibration10monitoringNtB2_18CalibrationMonitor14make_slice_key
FNDA:8,_RNvMNtNtCscx2lCY9pHX3_9lens_core11calibration10monitoringNtB2_18CalibrationMonitor17should_send_alert
FNDA:13,_RNvMNtNtCscx2lCY9pHX3_9lens_core11calibration10monitoringNtB2_18CalibrationMonitor18record_measurement
FNDA:9,_RNvMNtNtCscx2lCY9pHX3_9lens_core11calibration10monitoringNtB2_18CalibrationMonitor19check_ece_threshold
FNDA:4,_RNvMNtNtCscx2lCY9pHX3_9lens_core11calibration10monitoringNtB2_18CalibrationMonitor19check_system_health
FNDA:13,_RNvMNtNtCscx2lCY9pHX3_9lens_core11calibration10monitoringNtB2_18CalibrationMonitor19update_global_stats
FNDA:7,_RNvMNtNtCscx2lCY9pHX3_9lens_core11calibration10monitoringNtB2_18CalibrationMonitor21get_monitoring_report
FNDA:7,_RNvMNtNtCscx2lCY9pHX3_9lens_core11calibration10monitoringNtB2_18CalibrationMonitor22calculate_health_score
FNDA:1,_RNvMNtNtCscx2lCY9pHX3_9lens_core11calibration10monitoringNtB2_18CalibrationMonitor22reset_monitoring_state
FNDA:7,_RNvMNtNtCscx2lCY9pHX3_9lens_core11calibration10monitoringNtB2_18CalibrationMonitor23generate_slice_analysis
FNDA:11,_RNvMNtNtCscx2lCY9pHX3_9lens_core11calibration10monitoringNtB2_18CalibrationMonitor3new
FNDA:12,_RNvMs_NtNtCscx2lCY9pHX3_9lens_core11calibration10monitoringNtB4_10AlertState3new
FNDA:12,_RNvXs0_NtNtCscx2lCY9pHX3_9lens_core11calibration10monitoringNtB5_14GlobalECEStatsNtNtCs66KPHxksi63_4core7default7Default7default
FNF:45
FNH:44
DA:158,11
DA:159,11
DA:160,11
DA:161,11
DA:165,11
DA:166,11
DA:167,11
DA:168,11
DA:169,11
DA:170,11
DA:171,11
DA:172,11
DA:175,9
DA:176,9
DA:177,0
DA:178,9
DA:181,9
DA:184,9
DA:185,8
DA:188,8
DA:189,6
DA:190,6
DA:191,6
DA:192,2
DA:193,1
DA:195,3
DA:196,9
DA:199,13
DA:200,13
DA:202,13
DA:203,13
DA:204,13
DA:205,13
DA:206,13
DA:207,13
DA:208,13
DA:209,13
DA:213,13
DA:214,13
DA:216,13
DA:219,13
DA:220,0
DA:221,13
DA:225,13
DA:227,13
DA:228,0
DA:230,13
DA:231,13
DA:234,7
DA:235,7
DA:236,7
DA:237,7
DA:238,7
DA:239,7
DA:240,7
DA:241,7
DA:242,7
DA:245,7
DA:248,7
DA:251,7
DA:252,5
DA:254,7
DA:255,7
DA:256,7
DA:257,7
DA:258,7
DA:259,7
DA:260,7
DA:261,7
DA:262,7
DA:265,1
DA:266,1
DA:267,1
DA:270,1
DA:271,1
DA:273,1
DA:274,1
DA:276,1
DA:277,1
DA:279,1
DA:280,1
DA:282,1
DA:283,1
DA:286,4
DA:287,4
DA:295,4
DA:296,4
DA:297,4
DA:299,4
DA:300,4
DA:302,4
DA:304,4
DA:305,1
DA:309,3
DA:311,4
DA:312,4
DA:316,24
DA:317,24
DA:318,24
DA:319,0
DA:321,24
DA:323,11
DA:324,11
DA:325,1
DA:326,10
DA:327,1
DA:329,9
DA:332,11
DA:334,11
DA:335,11
DA:336,11
DA:338,11
DA:339,11
DA:343,11
DA:344,1
DA:345,1
DA:346,1
DA:347,1
DA:349,1
DA:350,1
DA:351,1
DA:352,1
DA:354,9
DA:355,9
DA:356,9
DA:360,11
DA:361,11
DA:362,11
DA:363,11
DA:364,11
DA:366,11
DA:367,11
DA:368,11
DA:369,11
DA:370,11
DA:371,11
DA:372,11
DA:373,11
DA:374,11
DA:375,11
DA:376,11
DA:377,11
DA:379,8
DA:380,8
DA:383,8
DA:386,8
DA:387,0
DA:388,0
DA:389,8
DA:392,8
DA:393,1
DA:394,1
DA:395,7
DA:398,7
DA:399,2
DA:400,2
DA:401,1
DA:402,1
DA:403,1
DA:404,5
DA:406,6
DA:407,8
DA:409,6
DA:410,6
DA:413,6
DA:416,6
DA:417,0
DA:418,6
DA:421,6
DA:422,6
DA:424,6
DA:425,6
DA:427,13
DA:428,13
DA:429,13
DA:432,13
DA:433,13
DA:434,13
DA:435,13
DA:437,19
DA:438,19
DA:439,19
DA:440,19
DA:441,19
DA:443,19
DA:444,13
DA:445,13
DA:446,0
DA:447,19
DA:450,13
DA:451,0
DA:453,13
DA:457,13
DA:458,7
DA:460,6
DA:463,13
DA:464,13
DA:465,13
DA:466,13
DA:467,13
DA:468,13
DA:469,13
DA:470,13
DA:472,13
DA:473,13
DA:475,7
DA:476,7
DA:477,7
DA:479,7
DA:480,6
DA:481,0
DA:482,6
DA:484,6
DA:485,6
DA:488,6
DA:489,0
DA:490,0
DA:492,6
DA:495,6
DA:496,6
DA:499,6
DA:500,6
DA:501,6
DA:503,6
DA:504,6
DA:505,6
DA:507,6
DA:508,6
DA:509,6
DA:510,6
DA:511,6
DA:512,6
DA:513,6
DA:514,6
DA:517,7
DA:518,7
DA:520,7
DA:521,7
DA:522,7
DA:523,7
DA:524,7
DA:525,7
DA:528,7
DA:529,2
DA:530,2
DA:531,5
DA:534,7
DA:535,7
DA:536,7
DA:539,7
DA:540,2
DA:541,5
DA:544,7
DA:545,7
DA:546,7
DA:548,7
DA:549,3
DA:550,4
DA:552,7
DA:553,7
DA:557,12
DA:558,12
DA:559,12
DA:560,12
DA:561,12
DA:562,12
DA:563,12
DA:564,12
DA:568,12
DA:569,12
DA:570,12
DA:571,12
DA:572,12
DA:573,12
DA:574,12
DA:575,12
DA:576,12
DA:577,12
DA:585,14
DA:589,14
DA:590,14
DA:591,14
DA:592,14
DA:595,14
DA:598,1
DA:599,1
DA:600,1
DA:601,1
DA:602,1
DA:603,1
DA:605,1
DA:606,1
DA:608,1
DA:609,1
DA:610,1
DA:613,1
DA:614,1
DA:615,1
DA:616,1
DA:617,1
DA:618,1
DA:619,1
DA:620,1
DA:621,1
DA:622,1
DA:623,1
DA:625,1
DA:628,1
DA:629,1
DA:630,1
DA:633,1
DA:634,1
DA:635,1
DA:637,1
DA:638,1
DA:639,1
DA:640,1
DA:644,2
DA:645,1
DA:646,1
DA:647,1
DA:648,1
DA:649,1
DA:650,1
DA:651,1
DA:652,1
DA:653,1
DA:654,1
DA:656,1
DA:659,1
DA:660,1
DA:661,1
DA:664,1
DA:665,1
DA:666,1
DA:669,1
DA:670,1
DA:671,1
DA:676,2
DA:677,1
DA:678,1
DA:679,1
DA:680,1
DA:681,1
DA:682,1
DA:683,1
DA:684,1
DA:685,1
DA:686,1
DA:688,1
DA:689,1
DA:692,1
DA:693,1
DA:696,1
DA:697,1
DA:700,1
DA:701,1
DA:702,1
DA:706,1
DA:707,1
DA:708,1
DA:709,1
DA:710,1
DA:711,1
DA:713,1
DA:716,1
DA:717,1
DA:719,1
DA:720,1
DA:722,1
DA:725,1
DA:726,1
DA:727,1
DA:730,1
DA:731,1
DA:732,1
DA:735,1
DA:736,1
DA:737,1
DA:738,1
DA:739,1
DA:740,1
DA:741,1
DA:742,1
DA:743,1
DA:745,1
DA:748,1
DA:751,1
DA:752,1
DA:753,1
DA:756,1
DA:757,1
DA:760,1
DA:761,1
DA:762,1
DA:765,1
DA:766,1
DA:767,1
DA:768,1
DA:769,1
DA:770,1
DA:771,1
DA:772,1
DA:773,1
DA:775,1
DA:778,1
DA:779,1
DA:780,1
DA:783,1
DA:784,1
DA:785,1
DA:788,1
DA:789,1
DA:790,1
DA:791,1
DA:794,1
DA:795,1
DA:796,1
DA:797,1
DA:798,1
DA:799,1
DA:801,1
DA:804,1
DA:805,1
DA:807,1
DA:808,1
DA:811,1
DA:813,1
DA:814,1
DA:815,1
DA:816,1
BRF:0
BRH:0
LF:457
LH:444
end_of_record
SF:/home/nathan/Projects/lens/src/calibration/platt.rs
FN:150,_RNvMNtNtCscx2lCY9pHX3_9lens_core11calibration5plattNtB2_11PlattScaler20get_final_likelihood
FN:145,_RNvMNtNtCscx2lCY9pHX3_9lens_core11calibration5plattNtB2_11PlattScaler20get_training_samples
FN:385,_RNCNvNtNtNtCscx2lCY9pHX3_9lens_core11calibration5platt5testss_22test_platt_calibration0B9_
FN:357,_RNCNvNtNtNtCscx2lCY9pHX3_9lens_core11calibration5platt5testss_26test_platt_scaler_creation0B9_
FN:457,_RNCNvNtNtNtCscx2lCY9pHX3_9lens_core11calibration5platt5testss_33test_platt_likelihood_calculation0B9_
FN:423,_RNCNvNtNtNtCscx2lCY9pHX3_9lens_core11calibration5platt5testss_36test_platt_overconfident_predictions0B9_
FN:369,_RNCNvNtNtNtCscx2lCY9pHX3_9lens_core11calibration5platt5testss_40test_platt_training_insufficient_samples0B9_
FN:82,_RNCNCNvMNtNtCscx2lCY9pHX3_9lens_core11calibration5plattNtB6_11PlattScaler5train00Ba_
FN:83,_RNCNCNvMNtNtCscx2lCY9pHX3_9lens_core11calibration5plattNtB6_11PlattScaler5train0s_0Ba_
FN:279,_RNCNvMNtNtCscx2lCY9pHX3_9lens_core11calibration5plattNtB4_11PlattScaler24calculate_ece_with_platt0B8_
FN:157,_RNCNvMNtNtCscx2lCY9pHX3_9lens_core11calibration5plattNtB4_11PlattScaler25optimize_platt_parameters0B8_
FN:68,_RNCNvMNtNtCscx2lCY9pHX3_9lens_core11calibration5plattNtB4_11PlattScaler5train0B8_
FN:114,_RNCNvMNtNtCscx2lCY9pHX3_9lens_core11calibration5plattNtB4_11PlattScaler9calibrate0B8_
FN:140,_RNvMNtNtCscx2lCY9pHX3_9lens_core11calibration5plattNtB2_11PlattScaler12is_converged
FN:130,_RNvMNtNtCscx2lCY9pHX3_9lens_core11calibration5plattNtB2_11PlattScaler14get_parameters
FN:314,_RNvMNtNtCscx2lCY9pHX3_9lens_core11calibration5plattNtB2_11PlattScaler17check_convergence
FN:279,_RNvMNtNtCscx2lCY9pHX3_9lens_core11calibration5plattNtB2_11PlattScaler24calculate_ece_with_platt
FN:157,_RNvMNtNtCscx2lCY9pHX3_9lens_core11calibration5plattNtB2_11PlattScaler25optimize_platt_parameters
FN:222,_RNvMNtNtCscx2lCY9pHX3_9lens_core11calibration5plattNtB2_11PlattScaler36calculate_likelihood_and_derivatives
FN:55,_RNvMNtNtCscx2lCY9pHX3_9lens_core11calibration5plattNtB2_11PlattScaler3new
FN:68,_RNvMNtNtCscx2lCY9pHX3_9lens_core11calibration5plattNtB2_11PlattScaler5train
FN:135,_RNvMNtNtCscx2lCY9pHX3_9lens_core11calibration5plattNtB2_11PlattScaler7get_ece
FN:114,_RNvMNtNtCscx2lCY9pHX3_9lens_core11calibration5plattNtB2_11PlattScaler9calibrate
FN:333,_RNvXs_NtNtCscx2lCY9pHX3_9lens_core11calibration5plattNtB4_11PlattConfigNtNtCs66KPHxksi63_4core7default7Default7default
FN:345,_RNvNtNtNtCscx2lCY9pHX3_9lens_core11calibration5platt5tests18create_test_sample
FN:491,_RNvNtNtNtCscx2lCY9pHX3_9lens_core11calibration5platt5testss_21test_parameter_bounds
FN:385,_RNvNtNtNtCscx2lCY9pHX3_9lens_core11calibration5platt5testss_22test_platt_calibration
FN:357,_RNvNtNtNtCscx2lCY9pHX3_9lens_core11calibration5platt5testss_26test_platt_scaler_creation
FN:457,_RNvNtNtNtCscx2lCY9pHX3_9lens_core11calibration5platt5testss_33test_platt_likelihood_calculation
FN:423,_RNvNtNtNtCscx2lCY9pHX3_9lens_core11calibration5platt5testss_36test_platt_overconfident_predictions
FN:369,_RNvNtNtNtCscx2lCY9pHX3_9lens_core11calibration5platt5testss_40test_platt_training_insufficient_samples
FNDA:0,_RNvMNtNtCscx2lCY9pHX3_9lens_core11calibration5plattNtB2_11PlattScaler20get_final_likelihood
FNDA:0,_RNvMNtNtCscx2lCY9pHX3_9lens_core11calibration5plattNtB2_11PlattScaler20get_training_samples
FNDA:1,_RNCNvNtNtNtCscx2lCY9pHX3_9lens_core11calibration5platt5testss_22test_platt_calibration0B9_
FNDA:1,_RNCNvNtNtNtCscx2lCY9pHX3_9lens_core11calibration5platt5testss_26test_platt_scaler_creation0B9_
FNDA:1,_RNCNvNtNtNtCscx2lCY9pHX3_9lens_core11calibration5platt5testss_33test_platt_likelihood_calculation0B9_
FNDA:1,_RNCNvNtNtNtCscx2lCY9pHX3_9lens_core11calibration5platt5testss_36test_platt_overconfident_predictions0B9_
FNDA:1,_RNCNvNtNtNtCscx2lCY9pHX3_9lens_core11calibration5platt5testss_40test_platt_training_insufficient_samples0B9_
FNDA:90,_RNCNCNvMNtNtCscx2lCY9pHX3_9lens_core11calibration5plattNtB6_11PlattScaler5train00Ba_
FNDA:90,_RNCNCNvMNtNtCscx2lCY9pHX3_9lens_core11calibration5plattNtB6_11PlattScaler5train0s_0Ba_
FNDA:2,_RNCNvMNtNtCscx2lCY9pHX3_9lens_core11calibration5plattNtB4_11PlattScaler24calculate_ece_with_platt0B8_
FNDA:2,_RNCNvMNtNtCscx2lCY9pHX3_9lens_core11calibration5plattNtB4_11PlattScaler25optimize_platt_parameters0B8_
FNDA:3,_RNCNvMNtNtCscx2lCY9pHX3_9lens_core11calibration5plattNtB4_11PlattScaler5train0B8_
FNDA:3,_RNCNvMNtNtCscx2lCY9pHX3_9lens_core11calibration5plattNtB4_11PlattScaler9calibrate0B8_
FNDA:1,_RNvMNtNtCscx2lCY9pHX3_9lens_core11calibration5plattNtB2_11PlattScaler12is_converged
FNDA:2,_RNvMNtNtCscx2lCY9pHX3_9lens_core11calibration5plattNtB2_11PlattScaler14get_parameters
FNDA:4,_RNvMNtNtCscx2lCY9pHX3_9lens_core11calibration5plattNtB2_11PlattScaler17check_convergence
FNDA:2,_RNvMNtNtCscx2lCY9pHX3_9lens_core11calibration5plattNtB2_11PlattScaler24calculate_ece_with_platt
FNDA:2,_RNvMNtNtCscx2lCY9pHX3_9lens_core11calibration5plattNtB2_11PlattScaler25optimize_platt_parameters
FNDA:8,_RNvMNtNtCscx2lCY9pHX3_9lens_core11calibration5plattNtB2_11PlattScaler36calculate_likelihood_and_derivatives
FNDA:6,_RNvMNtNtCscx2lCY9pHX3_9lens_core11calibration5plattNtB2_11PlattScaler3new
FNDA:3,_RNvMNtNtCscx2lCY9pHX3_9lens_core11calibration5plattNtB2_11PlattScaler5train
FNDA:2,_RNvMNtNtCscx2lCY9pHX3_9lens_core11calibration5plattNtB2_11PlattScaler7get_ece
FNDA:3,_RNvMNtNtCscx2lCY9pHX3_9lens_core11calibration5plattNtB2_11PlattScaler9calibrate
FNDA:4,_RNvXs_NtNtCscx2lCY9pHX3_9lens_core11calibration5plattNtB4_11PlattConfigNtNtCs66KPHxksi63_4core7default7Default7default
FNDA:92,_RNvNtNtNtCscx2lCY9pHX3_9lens_core11calibration5platt5tests18create_test_sample
FNDA:1,_RNvNtNtNtCscx2lCY9pHX3_9lens_core11calibration5platt5testss_21test_parameter_bounds
FNDA:1,_RNvNtNtNtCscx2lCY9pHX3_9lens_core11calibration5platt5testss_22test_platt_calibration
FNDA:1,_RNvNtNtNtCscx2lCY9pHX3_9lens_core11calibration5platt5testss_26test_platt_scaler_creation
FNDA:1,_RNvNtNtNtCscx2lCY9pHX3_9lens_core11calibration5platt5testss_33test_platt_likelihood_calculation
FNDA:1,_RNvNtNtNtCscx2lCY9pHX3_9lens_core11calibration5platt5testss_36test_platt_overconfident_predictions
FNDA:1,_RNvNtNtNtCscx2lCY9pHX3_9lens_core11calibration5platt5testss_40test_platt_training_insufficient_samples
FNF:31
FNH:29
DA:55,6
DA:56,6
DA:57,6
DA:58,6
DA:59,6
DA:60,6
DA:61,6
DA:62,6
DA:63,6
DA:64,6
DA:65,6
DA:68,3
DA:69,3
DA:70,1
DA:71,2
DA:73,2
DA:74,0
DA:75,0
DA:79,2
DA:82,90
DA:83,90
DA:86,2
DA:88,2
DA:89,2
DA:90,2
DA:93,2
DA:96,2
DA:98,2
DA:99,0
DA:103,2
DA:104,2
DA:105,0
DA:108,0
DA:110,2
DA:111,3
DA:114,3
DA:115,3
DA:118,3
DA:119,3
DA:121,3
DA:122,0
DA:126,3
DA:127,3
DA:130,2
DA:131,2
DA:132,2
DA:135,2
DA:136,2
DA:137,2
DA:140,1
DA:141,1
DA:142,1
DA:145,0
DA:146,0
DA:147,0
DA:150,0
DA:151,0
DA:152,0
DA:157,2
DA:158,2
DA:159,2
DA:160,2
DA:161,2
DA:162,2
DA:163,2
DA:164,2
DA:165,2
DA:166,2
DA:167,2
DA:170,7
DA:172,7
DA:175,7
DA:176,7
DA:179,7
DA:181,7
DA:182,0
DA:183,0
DA:184,7
DA:187,7
DA:188,7
DA:189,7
DA:192,7
DA:193,7
DA:195,7
DA:196,7
DA:199,7
DA:200,7
DA:203,7
DA:205,7
DA:206,2
DA:207,2
DA:208,5
DA:210,5
DA:211,2
DA:212,0
DA:215,3
DA:218,2
DA:219,2
DA:222,8
DA:223,8
DA:224,8
DA:225,8
DA:226,8
DA:227,8
DA:228,8
DA:231,8
DA:232,8
DA:233,8
DA:234,8
DA:235,8
DA:236,8
DA:238,323
DA:239,323
DA:240,323
DA:241,323
DA:242,323
DA:243,323
DA:244,323
DA:245,323
DA:246,323
DA:247,323
DA:248,323
DA:249,323
DA:250,323
DA:251,323
DA:252,323
DA:253,323
DA:254,323
DA:255,323
DA:256,323
DA:257,323
DA:258,323
DA:259,323
DA:260,323
DA:261,323
DA:262,323
DA:263,323
DA:264,323
DA:267,8
DA:268,8
DA:269,8
DA:270,8
DA:271,8
DA:272,8
DA:273,8
DA:275,8
DA:276,8
DA:279,2
DA:281,2
DA:284,92
DA:285,90
DA:286,90
DA:287,90
DA:288,90
DA:289,90
DA:290,90
DA:291,90
DA:294,2
DA:295,2
DA:297,20
DA:298,20
DA:299,13
DA:300,7
DA:302,7
DA:303,7
DA:304,7
DA:305,7
DA:307,7
DA:310,2
DA:311,2
DA:314,4
DA:316,4
DA:317,4
DA:318,4
DA:319,3
DA:322,4
DA:325,4
DA:326,4
DA:328,4
DA:329,4
DA:333,4
DA:334,4
DA:335,4
DA:336,4
DA:337,4
DA:338,4
DA:345,92
DA:346,92
DA:347,92
DA:348,92
DA:349,92
DA:350,92
DA:351,92
DA:352,92
DA:353,92
DA:354,92
DA:357,1
DA:358,1
DA:359,1
DA:361,1
DA:362,1
DA:363,1
DA:364,1
DA:365,1
DA:366,1
DA:369,1
DA:370,1
DA:371,1
DA:373,1
DA:374,1
DA:375,1
DA:377,1
DA:379,1
DA:380,1
DA:381,1
DA:382,1
DA:385,1
DA:386,1
DA:387,1
DA:388,1
DA:389,1
DA:390,1
DA:393,1
DA:394,51
DA:395,50
DA:396,50
DA:397,50
DA:398,50
DA:399,50
DA:400,50
DA:402,1
DA:403,1
DA:406,1
DA:407,1
DA:410,1
DA:413,1
DA:414,1
DA:415,1
DA:416,1
DA:417,1
DA:419,1
DA:420,1
DA:423,1
DA:424,1
DA:425,1
DA:426,1
DA:427,1
DA:428,1
DA:431,1
DA:432,41
DA:433,40
DA:434,40
DA:435,40
DA:438,1
DA:439,1
DA:442,1
DA:443,1
DA:444,1
DA:447,1
DA:448,1
DA:451,1
DA:453,1
DA:454,1
DA:457,1
DA:458,1
DA:459,1
DA:461,1
DA:462,1
DA:464,1
DA:465,1
DA:466,1
DA:467,1
DA:468,1
DA:469,1
DA:470,1
DA:471,1
DA:472,1
DA:473,1
DA:475,1
DA:476,1
DA:479,1
DA:480,1
DA:481,1
DA:482,1
DA:483,1
DA:484,1
DA:487,1
DA:488,1
DA:491,1
DA:492,1
DA:493,1
DA:496,1
DA:497,1
DA:498,1
DA:501,1
DA:504,1
DA:505,1
DA:506,1
DA:507,1
DA:510,1
DA:511,1
BRF:0
BRH:0
LF:317
LH:302
end_of_record
SF:/home/nathan/Projects/lens/src/calibration/temperature.rs
FN:156,_RNvMNtNtCscx2lCY9pHX3_9lens_core11calibration11temperatureNtB2_17TemperatureScaler16get_loss_history
FN:146,_RNvMNtNtCscx2lCY9pHX3_9lens_core11calibration11temperatureNtB2_17TemperatureScaler12is_converged
FN:163,_RNvMNtNtCscx2lCY9pHX3_9lens_core11calibration11temperatureNtB2_17TemperatureScaler14extract_logits
FN:131,_RNvMNtNtCscx2lCY9pHX3_9lens_core11calibration11temperatureNtB2_17TemperatureScaler15get_temperature
FN:316,_RNvMNtNtCscx2lCY9pHX3_9lens_core11calibration11temperatureNtB2_17TemperatureScaler17check_convergence
FN:346,_RNvMNtNtCscx2lCY9pHX3_9lens_core11calibration11temperatureNtB2_17TemperatureScaler18calculate_variance
FN:175,_RNvMNtNtCscx2lCY9pHX3_9lens_core11calibration11temperatureNtB2_17TemperatureScaler19prediction_to_logit
FN:151,_RNvMNtNtCscx2lCY9pHX3_9lens_core11calibration11temperatureNtB2_17TemperatureScaler20get_training_samples
FN:186,_RNvMNtNtCscx2lCY9pHX3_9lens_core11calibration11temperatureNtB2_17TemperatureScaler20optimize_temperature
FN:246,_RNvMNtNtCscx2lCY9pHX3_9lens_core11calibration11temperatureNtB2_17TemperatureScaler28calculate_loss_and_gradients
FN:281,_RNvMNtNtCscx2lCY9pHX3_9lens_core11calibration11temperatureNtB2_17TemperatureScaler30calculate_ece_with_temperature
FN:54,_RNvMNtNtCscx2lCY9pHX3_9lens_core11calibration11temperatureNtB2_17TemperatureScaler3new
FN:67,_RNvMNtNtCscx2lCY9pHX3_9lens_core11calibration11temperatureNtB2_17TemperatureScaler5train
FN:141,_RNvMNtNtCscx2lCY9pHX3_9lens_core11calibration11temperatureNtB2_17TemperatureScaler7get_ece
FN:181,_RNvMNtNtCscx2lCY9pHX3_9lens_core11calibration11temperatureNtB2_17TemperatureScaler7sigmoid
FN:136,_RNvMNtNtCscx2lCY9pHX3_9lens_core11calibration11temperatureNtB2_17TemperatureScaler8get_bias
FN:112,_RNvMNtNtCscx2lCY9pHX3_9lens_core11calibration11temperatureNtB2_17TemperatureScaler9calibrate
FN:361,_RNvXs_NtNtCscx2lCY9pHX3_9lens_core11calibration11temperatureNtB4_17TemperatureConfigNtNtCs66KPHxksi63_4core7default7Default7default
FN:374,_RNvNtNtNtCscx2lCY9pHX3_9lens_core11calibration11temperature5tests18create_test_sample
FN:447,_RNvNtNtNtCscx2lCY9pHX3_9lens_core11calibration11temperature5testss_21test_logit_conversion
FN:492,_RNvNtNtNtCscx2lCY9pHX3_9lens_core11calibration11temperature5testss_21test_loss_calculation
FN:511,_RNvNtNtNtCscx2lCY9pHX3_9lens_core11calibration11temperature5testss_25test_variance_calculation
FN:413,_RNvNtNtNtCscx2lCY9pHX3_9lens_core11calibration11temperature5testss_28test_temperature_calibration
FN:463,_RNvNtNtNtCscx2lCY9pHX3_9lens_core11calibration11temperature5testss_31test_underconfident_calibration
FN:386,_RNvNtNtNtCscx2lCY9pHX3_9lens_core11calibration11temperature5testss_32test_temperature_scaler_creation
FN:397,_RNvNtNtNtCscx2lCY9pHX3_9lens_core11calibration11temperature5testss_46test_temperature_training_insufficient_samples
FN:353,_RNCNvMNtNtCscx2lCY9pHX3_9lens_core11calibration11temperatureNtB4_17TemperatureScaler18calculate_variance0B8_
FN:186,_RNCNvMNtNtCscx2lCY9pHX3_9lens_core11calibration11temperatureNtB4_17TemperatureScaler20optimize_temperature0B8_
FN:281,_RNCNvMNtNtCscx2lCY9pHX3_9lens_core11calibration11temperatureNtB4_17TemperatureScaler30calculate_ece_with_temperature0B8_
FN:67,_RNCNvMNtNtCscx2lCY9pHX3_9lens_core11calibration11temperatureNtB4_17TemperatureScaler5train0B8_
FN:112,_RNCNvMNtNtCscx2lCY9pHX3_9lens_core11calibration11temperatureNtB4_17TemperatureScaler9calibrate0B8_
FN:447,_RNCNvNtNtNtCscx2lCY9pHX3_9lens_core11calibration11temperature5testss_21test_logit_conversion0B9_
FN:413,_RNCNvNtNtNtCscx2lCY9pHX3_9lens_core11calibration11temperature5testss_28test_temperature_calibration0B9_
FN:463,_RNCNvNtNtNtCscx2lCY9pHX3_9lens_core11calibration11temperature5testss_31test_underconfident_calibration0B9_
FN:386,_RNCNvNtNtNtCscx2lCY9pHX3_9lens_core11calibration11temperature5testss_32test_temperature_scaler_creation0B9_
FN:397,_RNCNvNtNtNtCscx2lCY9pHX3_9lens_core11calibration11temperature5testss_46test_temperature_training_insufficient_samples0B9_
FNDA:0,_RNvMNtNtCscx2lCY9pHX3_9lens_core11calibration11temperatureNtB2_17TemperatureScaler16get_loss_history
FNDA:1,_RNvMNtNtCscx2lCY9pHX3_9lens_core11calibration11temperatureNtB2_17TemperatureScaler12is_converged
FNDA:2,_RNvMNtNtCscx2lCY9pHX3_9lens_core11calibration11temperatureNtB2_17TemperatureScaler14extract_logits
FNDA:5,_RNvMNtNtCscx2lCY9pHX3_9lens_core11calibration11temperatureNtB2_17TemperatureScaler15get_temperature
FNDA:2,_RNvMNtNtCscx2lCY9pHX3_9lens_core11calibration11temperatureNtB2_17TemperatureScaler17check_convergence
FNDA:44,_RNvMNtNtCscx2lCY9pHX3_9lens_core11calibration11temperatureNtB2_17TemperatureScaler18calculate_variance
FNDA:115,_RNvMNtNtCscx2lCY9pHX3_9lens_core11calibration11temperatureNtB2_17TemperatureScaler19prediction_to_logit
FNDA:1,_RNvMNtNtCscx2lCY9pHX3_9lens_core11calibration11temperatureNtB2_17TemperatureScaler20get_training_samples
FNDA:2,_RNvMNtNtCscx2lCY9pHX3_9lens_core11calibration11temperatureNtB2_17TemperatureScaler20optimize_temperature
FNDA:63,_RNvMNtNtCscx2lCY9pHX3_9lens_core11calibration11temperatureNtB2_17TemperatureScaler28calculate_loss_and_gradients
FNDA:2,_RNvMNtNtCscx2lCY9pHX3_9lens_core11calibration11temperatureNtB2_17TemperatureScaler30calculate_ece_with_temperature
FNDA:7,_RNvMNtNtCscx2lCY9pHX3_9lens_core11calibration11temperatureNtB2_17TemperatureScaler3new
FNDA:3,_RNvMNtNtCscx2lCY9pHX3_9lens_core11calibration11temperatureNtB2_17TemperatureScaler5train
FNDA:1,_RNvMNtNtCscx2lCY9pHX3_9lens_core11calibration11temperatureNtB2_17TemperatureScaler7get_ece
FNDA:1863,_RNvMNtNtCscx2lCY9pHX3_9lens_core11calibration11temperatureNtB2_17TemperatureScaler7sigmoid
FNDA:1,_RNvMNtNtCscx2lCY9pHX3_9lens_core11calibration11temperatureNtB2_17TemperatureScaler8get_bias
FNDA:2,_RNvMNtNtCscx2lCY9pHX3_9lens_core11calibration11temperatureNtB2_17TemperatureScaler9calibrate
FNDA:7,_RNvXs_NtNtCscx2lCY9pHX3_9lens_core11calibration11temperatureNtB4_17TemperatureConfigNtNtCs66KPHxksi63_4core7default7Default7default
FNDA:57,_RNvNtNtNtCscx2lCY9pHX3_9lens_core11calibration11temperature5tests18create_test_sample
FNDA:1,_RNvNtNtNtCscx2lCY9pHX3_9lens_core11calibration11temperature5testss_21test_logit_conversion
FNDA:1,_RNvNtNtNtCscx2lCY9pHX3_9lens_core11calibration11temperature5testss_21test_loss_calculation
FNDA:1,_RNvNtNtNtCscx2lCY9pHX3_9lens_core11calibration11temperature5testss_25test_variance_calculation
FNDA:1,_RNvNtNtNtCscx2lCY9pHX3_9lens_core11calibration11temperature5testss_28test_temperature_calibration
FNDA:1,_RNvNtNtNtCscx2lCY9pHX3_9lens_core11calibration11temperature5testss_31test_underconfident_calibration
FNDA:1,_RNvNtNtNtCscx2lCY9pHX3_9lens_core11calibration11temperature5testss_32test_temperature_scaler_creation
FNDA:1,_RNvNtNtNtCscx2lCY9pHX3_9lens_core11calibration11temperature5testss_46test_temperature_training_insufficient_samples
FNDA:215,_RNCNvMNtNtCscx2lCY9pHX3_9lens_core11calibration11temperatureNtB4_17TemperatureScaler18calculate_variance0B8_
FNDA:2,_RNCNvMNtNtCscx2lCY9pHX3_9lens_core11calibration11temperatureNtB4_17TemperatureScaler20optimize_temperature0B8_
FNDA:2,_RNCNvMNtNtCscx2lCY9pHX3_9lens_core11calibration11temperatureNtB4_17TemperatureScaler30calculate_ece_with_temperature0B8_
FNDA:3,_RNCNvMNtNtCscx2lCY9pHX3_9lens_core11calibration11temperatureNtB4_17TemperatureScaler5train0B8_
FNDA:2,_RNCNvMNtNtCscx2lCY9pHX3_9lens_core11calibration11temperatureNtB4_17TemperatureScaler9calibrate0B8_
FNDA:1,_RNCNvNtNtNtCscx2lCY9pHX3_9lens_core11calibration11temperature5testss_21test_logit_conversion0B9_
FNDA:1,_RNCNvNtNtNtCscx2lCY9pHX3_9lens_core11calibration11temperature5testss_28test_temperature_calibration0B9_
FNDA:1,_RNCNvNtNtNtCscx2lCY9pHX3_9lens_core11calibration11temperature5testss_31test_underconfident_calibration0B9_
FNDA:1,_RNCNvNtNtNtCscx2lCY9pHX3_9lens_core11calibration11temperature5testss_32test_temperature_scaler_creation0B9_
FNDA:1,_RNCNvNtNtNtCscx2lCY9pHX3_9lens_core11calibration11temperature5testss_46test_temperature_training_insufficient_samples0B9_
FNF:36
FNH:35
DA:54,7
DA:55,7
DA:56,7
DA:57,7
DA:58,7
DA:59,7
DA:60,7
DA:61,7
DA:62,7
DA:63,7
DA:64,7
DA:67,3
DA:68,3
DA:69,1
DA:70,2
DA:72,2
DA:73,0
DA:74,0
DA:78,2
DA:81,2
DA:82,2
DA:85,2
DA:87,2
DA:88,2
DA:91,2
DA:94,2
DA:96,2
DA:97,0
DA:101,2
DA:102,2
DA:103,0
DA:106,0
DA:108,2
DA:109,3
DA:112,2
DA:114,2
DA:117,2
DA:120,2
DA:122,2
DA:123,0
DA:127,2
DA:128,2
DA:131,5
DA:132,5
DA:133,5
DA:136,1
DA:137,1
DA:138,1
DA:141,1
DA:142,1
DA:143,1
DA:146,1
DA:147,1
DA:148,1
DA:151,1
DA:152,1
DA:153,1
DA:156,0
DA:157,0
DA:158,0
DA:163,2
DA:164,2
DA:166,57
DA:167,55
DA:168,55
DA:171,2
DA:172,2
DA:175,115
DA:176,115
DA:177,115
DA:178,115
DA:181,1863
DA:182,1863
DA:183,1863
DA:186,2
DA:187,2
DA:188,2
DA:189,2
DA:190,2
DA:191,2
DA:192,2
DA:193,2
DA:195,2
DA:197,62
DA:199,62
DA:200,62
DA:201,0
DA:204,62
DA:205,62
DA:206,62
DA:207,62
DA:210,62
DA:211,62
DA:214,62
DA:217,62
DA:218,40
DA:219,40
DA:220,40
DA:221,40
DA:222,40
DA:223,40
DA:225,40
DA:226,40
DA:227,40
DA:228,1
DA:229,1
DA:230,39
DA:231,0
DA:232,22
DA:234,61
DA:235,4
DA:236,0
DA:239,57
DA:242,2
DA:243,2
DA:246,63
DA:247,63
DA:248,63
DA:249,63
DA:250,63
DA:251,63
DA:252,63
DA:253,63
DA:254,63
DA:255,63
DA:256,63
DA:258,1803
DA:259,1803
DA:260,1803
DA:261,1803
DA:262,1803
DA:263,1803
DA:264,1803
DA:265,1803
DA:266,1803
DA:267,1803
DA:268,1803
DA:269,1803
DA:270,1803
DA:271,1803
DA:272,1803
DA:273,1803
DA:274,1803
DA:275,1803
DA:277,63
DA:278,63
DA:281,2
DA:283,2
DA:286,57
DA:287,55
DA:288,55
DA:289,55
DA:291,55
DA:292,55
DA:296,2
DA:297,2
DA:299,20
DA:300,20
DA:301,15
DA:302,5
DA:304,5
DA:305,5
DA:306,5
DA:307,5
DA:309,5
DA:312,2
DA:313,2
DA:316,2
DA:317,2
DA:318,0
DA:319,2
DA:322,2
DA:325,2
DA:328,2
DA:329,2
DA:330,2
DA:331,2
DA:332,2
DA:333,2
DA:335,2
DA:336,2
DA:337,2
DA:339,0
DA:342,2
DA:343,2
DA:346,44
DA:347,44
DA:348,1
DA:349,43
DA:351,43
DA:352,43
DA:353,215
DA:354,43
DA:356,43
DA:357,44
DA:361,7
DA:362,7
DA:363,7
DA:364,7
DA:365,7
DA:366,7
DA:367,7
DA:374,57
DA:375,57
DA:376,57
DA:377,57
DA:378,57
DA:379,57
DA:380,57
DA:381,57
DA:382,57
DA:383,57
DA:386,1
DA:387,1
DA:388,1
DA:390,1
DA:391,1
DA:392,1
DA:393,1
DA:394,1
DA:397,1
DA:398,1
DA:399,1
DA:401,1
DA:402,1
DA:403,1
DA:405,1
DA:407,1
DA:408,1
DA:409,1
DA:410,1
DA:413,1
DA:414,1
DA:415,1
DA:416,1
DA:417,1
DA:418,1
DA:421,1
DA:422,31
DA:423,30
DA:424,30
DA:425,30
DA:428,1
DA:429,1
DA:432,1
DA:435,1
DA:439,1
DA:440,1
DA:442,1
DA:443,1
DA:444,1
DA:447,1
DA:448,1
DA:449,1
DA:452,1
DA:453,1
DA:454,1
DA:457,1
DA:458,1
DA:459,1
DA:460,1
DA:463,1
DA:464,1
DA:465,1
DA:466,1
DA:467,1
DA:468,1
DA:469,1
DA:472,1
DA:473,26
DA:474,25
DA:475,25
DA:476,25
DA:479,1
DA:480,1
DA:483,1
DA:484,1
DA:487,1
DA:488,1
DA:489,1
DA:492,1
DA:493,1
DA:494,1
DA:496,1
DA:497,1
DA:498,1
DA:499,1
DA:501,1
DA:502,1
DA:504,1
DA:505,1
DA:506,1
DA:507,1
DA:508,1
DA:511,1
DA:512,1
DA:513,1
DA:515,1
DA:516,1
DA:519,1
DA:522,1
DA:523,1
BRF:0
BRH:0
LF:317
LH:303
end_of_record
SF:/home/nathan/Projects/lens/src/calibration/tokenization.rs
FN:398,_RNvMs_NtNtCscx2lCY9pHX3_9lens_core11calibration12tokenizationNtB4_17LanguageTokenizer12get_language
FN:436,_RNCNCNvMs_NtNtCscx2lCY9pHX3_9lens_core11calibration12tokenizationNtB8_17LanguageTokenizer25extract_language_featuress_00Bc_
FN:437,_RNCNCNvMs_NtNtCscx2lCY9pHX3_9lens_core11calibration12tokenizationNtB8_17LanguageTokenizer25extract_language_featuress_0s_0Bc_
FN:234,_RNCNvMNtNtCscx2lCY9pHX3_9lens_core11calibration12tokenizationNtB4_18TokenizationConfig11java_config0B8_
FN:335,_RNCNvMNtNtCscx2lCY9pHX3_9lens_core11calibration12tokenizationNtB4_18TokenizationConfig11rust_config0B8_
FN:302,_RNCNvMNtNtCscx2lCY9pHX3_9lens_core11calibration12tokenizationNtB4_18TokenizationConfig13python_config0B8_
FN:167,_RNCNvMNtNtCscx2lCY9pHX3_9lens_core11calibration12tokenizationNtB4_18TokenizationConfig17javascript_config0B8_
FN:199,_RNCNvMNtNtCscx2lCY9pHX3_9lens_core11calibration12tokenizationNtB4_18TokenizationConfig9go_config0B8_
FN:411,_RNCNvMs_NtNtCscx2lCY9pHX3_9lens_core11calibration12tokenizationNtB6_17LanguageTokenizer14extract_tokens0Ba_
FN:413,_RNCNvMs_NtNtCscx2lCY9pHX3_9lens_core11calibration12tokenizationNtB6_17LanguageTokenizer14extract_tokenss0_0Ba_
FN:414,_RNCNvMs_NtNtCscx2lCY9pHX3_9lens_core11calibration12tokenizationNtB6_17LanguageTokenizer14extract_tokenss1_0Ba_
FN:412,_RNCNvMs_NtNtCscx2lCY9pHX3_9lens_core11calibration12tokenizationNtB6_17LanguageTokenizer14extract_tokenss_0Ba_
FN:509,_RNCNvMs_NtNtCscx2lCY9pHX3_9lens_core11calibration12tokenizationNtB6_17LanguageTokenizer15detect_patterns0Ba_
FN:580,_RNCNvMs_NtNtCscx2lCY9pHX3_9lens_core11calibration12tokenizationNtB6_17LanguageTokenizer17update_statistics0Ba_
FN:424,_RNCNvMs_NtNtCscx2lCY9pHX3_9lens_core11calibration12tokenizationNtB6_17LanguageTokenizer25extract_language_features0Ba_
FN:443,_RNCNvMs_NtNtCscx2lCY9pHX3_9lens_core11calibration12tokenizationNtB6_17LanguageTokenizer25extract_language_featuress0_0Ba_
FN:448,_RNCNvMs_NtNtCscx2lCY9pHX3_9lens_core11calibration12tokenizationNtB6_17LanguageTokenizer25extract_language_featuress1_0Ba_
FN:454,_RNCNvMs_NtNtCscx2lCY9pHX3_9lens_core11calibration12tokenizationNtB6_17LanguageTokenizer25extract_language_featuress2_0Ba_
FN:458,_RNCNvMs_NtNtCscx2lCY9pHX3_9lens_core11calibration12tokenizationNtB6_17LanguageTokenizer25extract_language_featuress3_0Ba_
FN:435,_RNCNvMs_NtNtCscx2lCY9pHX3_9lens_core11calibration12tokenizationNtB6_17LanguageTokenizer25extract_language_featuress_0Ba_
FN:355,_RNCNvMs_NtNtCscx2lCY9pHX3_9lens_core11calibration12tokenizationNtB6_17LanguageTokenizer3new0Ba_
FN:370,_RNCNvMs_NtNtCscx2lCY9pHX3_9lens_core11calibration12tokenizationNtB6_17LanguageTokenizer8tokenize0Ba_
FN:625,_RNvNtNtNtCscx2lCY9pHX3_9lens_core11calibration12tokenization5testss_17test_go_tokenizer
FN:690,_RNvNtNtNtCscx2lCY9pHX3_9lens_core11calibration12tokenization5testss_18test_token_scoring
FN:642,_RNvNtNtNtCscx2lCY9pHX3_9lens_core11calibration12tokenization5testss_19test_java_tokenizer
FN:674,_RNvNtNtNtCscx2lCY9pHX3_9lens_core11calibration12tokenization5testss_22test_pattern_detection
FN:736,_RNvNtNtNtCscx2lCY9pHX3_9lens_core11calibration12tokenization5testss_22test_statistics_update
FN:721,_RNvNtNtNtCscx2lCY9pHX3_9lens_core11calibration12tokenization5testss_24test_config_for_language
FN:605,_RNvNtNtNtCscx2lCY9pHX3_9lens_core11calibration12tokenization5testss_25test_javascript_tokenizer
FN:658,_RNvNtNtNtCscx2lCY9pHX3_9lens_core11calibration12tokenization5testss_25test_typescript_tokenizer
FN:707,_RNvNtNtNtCscx2lCY9pHX3_9lens_core11calibration12tokenization5testss_33test_language_features_extraction
FN:683,_RNCNCNvNtNtNtCscx2lCY9pHX3_9lens_core11calibration12tokenization5testss_22test_pattern_detection00Bb_
FN:625,_RNCNvNtNtNtCscx2lCY9pHX3_9lens_core11calibration12tokenization5testss_17test_go_tokenizer0B9_
FN:690,_RNCNvNtNtNtCscx2lCY9pHX3_9lens_core11calibration12tokenization5testss_18test_token_scoring0B9_
FN:642,_RNCNvNtNtNtCscx2lCY9pHX3_9lens_core11calibration12tokenization5testss_19test_java_tokenizer0B9_
FN:674,_RNCNvNtNtNtCscx2lCY9pHX3_9lens_core11calibration12tokenization5testss_22test_pattern_detection0B9_
FN:736,_RNCNvNtNtNtCscx2lCY9pHX3_9lens_core11calibration12tokenization5testss_22test_statistics_update0B9_
FN:605,_RNCNvNtNtNtCscx2lCY9pHX3_9lens_core11calibration12tokenization5testss_25test_javascript_tokenizer0B9_
FN:658,_RNCNvNtNtNtCscx2lCY9pHX3_9lens_core11calibration12tokenization5testss_25test_typescript_tokenizer0B9_
FN:707,_RNCNvNtNtNtCscx2lCY9pHX3_9lens_core11calibration12tokenization5testss_33test_language_features_extraction0B9_
FN:204,_RNvMNtNtCscx2lCY9pHX3_9lens_core11calibration12tokenizationNtB2_18TokenizationConfig11java_config
FN:307,_RNvMNtNtCscx2lCY9pHX3_9lens_core11calibration12tokenizationNtB2_18TokenizationConfig11rust_config
FN:127,_RNvMNtNtCscx2lCY9pHX3_9lens_core11calibration12tokenizationNtB2_18TokenizationConfig12for_language
FN:275,_RNvMNtNtCscx2lCY9pHX3_9lens_core11calibration12tokenizationNtB2_18TokenizationConfig13python_config
FN:340,_RNvMNtNtCscx2lCY9pHX3_9lens_core11calibration12tokenizationNtB2_18TokenizationConfig14default_config
FN:140,_RNvMNtNtCscx2lCY9pHX3_9lens_core11calibration12tokenizationNtB2_18TokenizationConfig17javascript_config
FN:239,_RNvMNtNtCscx2lCY9pHX3_9lens_core11calibration12tokenizationNtB2_18TokenizationConfig17typescript_config
FN:172,_RNvMNtNtCscx2lCY9pHX3_9lens_core11calibration12tokenizationNtB2_18TokenizationConfig9go_config
FN:405,_RNvMs_NtNtCscx2lCY9pHX3_9lens_core11calibration12tokenizationNtB4_17LanguageTokenizer14extract_tokens
FN:393,_RNvMs_NtNtCscx2lCY9pHX3_9lens_core11calibration12tokenizationNtB4_17LanguageTokenizer14get_statistics
FN:509,_RNvMs_NtNtCscx2lCY9pHX3_9lens_core11calibration12tokenizationNtB4_17LanguageTokenizer15detect_patterns
FN:570,_RNvMs_NtNtCscx2lCY9pHX3_9lens_core11calibration12tokenizationNtB4_17LanguageTokenizer17update_statistics
FN:478,_RNvMs_NtNtCscx2lCY9pHX3_9lens_core11calibration12tokenizationNtB4_17LanguageTokenizer22calculate_token_scores
FN:421,_RNvMs_NtNtCscx2lCY9pHX3_9lens_core11calibration12tokenizationNtB4_17LanguageTokenizer25extract_language_features
FN:355,_RNvMs_NtNtCscx2lCY9pHX3_9lens_core11calibration12tokenizationNtB4_17LanguageTokenizer3new
FN:370,_RNvMs_NtNtCscx2lCY9pHX3_9lens_core11calibration12tokenizationNtB4_17LanguageTokenizer8tokenize
FN:590,_RNvXs0_NtNtCscx2lCY9pHX3_9lens_core11calibration12tokenizationNtB5_15TokenStatisticsNtNtCs66KPHxksi63_4core7default7Default7default
FNDA:0,_RNvMs_NtNtCscx2lCY9pHX3_9lens_core11calibration12tokenizationNtB4_17LanguageTokenizer12get_language
FNDA:56,_RNCNCNvMs_NtNtCscx2lCY9pHX3_9lens_core11calibration12tokenizationNtB8_17LanguageTokenizer25extract_language_featuress_00Bc_
FNDA:212,_RNCNCNvMs_NtNtCscx2lCY9pHX3_9lens_core11calibration12tokenizationNtB8_17LanguageTokenizer25extract_language_featuress_0s_0Bc_
FNDA:48,_RNCNvMNtNtCscx2lCY9pHX3_9lens_core11calibration12tokenizationNtB4_18TokenizationConfig11java_config0B8_
FNDA:40,_RNCNvMNtNtCscx2lCY9pHX3_9lens_core11calibration12tokenizationNtB4_18TokenizationConfig11rust_config0B8_
FNDA:32,_RNCNvMNtNtCscx2lCY9pHX3_9lens_core11calibration12tokenizationNtB4_18TokenizationConfig13python_config0B8_
FNDA:88,_RNCNvMNtNtCscx2lCY9pHX3_9lens_core11calibration12tokenizationNtB4_18TokenizationConfig17javascript_config0B8_
FNDA:40,_RNCNvMNtNtCscx2lCY9pHX3_9lens_core11calibration12tokenizationNtB4_18TokenizationConfig9go_config0B8_
FNDA:368,_RNCNvMs_NtNtCscx2lCY9pHX3_9lens_core11calibration12tokenizationNtB6_17LanguageTokenizer14extract_tokens0Ba_
FNDA:144,_RNCNvMs_NtNtCscx2lCY9pHX3_9lens_core11calibration12tokenizationNtB6_17LanguageTokenizer14extract_tokenss0_0Ba_
FNDA:56,_RNCNvMs_NtNtCscx2lCY9pHX3_9lens_core11calibration12tokenizationNtB6_17LanguageTokenizer14extract_tokenss1_0Ba_
FNDA:144,_RNCNvMs_NtNtCscx2lCY9pHX3_9lens_core11calibration12tokenizationNtB6_17LanguageTokenizer14extract_tokenss_0Ba_
FNDA:9,_RNCNvMs_NtNtCscx2lCY9pHX3_9lens_core11calibration12tokenizationNtB6_17LanguageTokenizer15detect_patterns0Ba_
FNDA:56,_RNCNvMs_NtNtCscx2lCY9pHX3_9lens_core11calibration12tokenizationNtB6_17LanguageTokenizer17update_statistics0Ba_
FNDA:56,_RNCNvMs_NtNtCscx2lCY9pHX3_9lens_core11calibration12tokenizationNtB6_17LanguageTokenizer25extract_language_features0Ba_
FNDA:56,_RNCNvMs_NtNtCscx2lCY9pHX3_9lens_core11calibration12tokenizationNtB6_17LanguageTokenizer25extract_language_featuress0_0Ba_
FNDA:31,_RNCNvMs_NtNtCscx2lCY9pHX3_9lens_core11calibration12tokenizationNtB6_17LanguageTokenizer25extract_language_featuress1_0Ba_
FNDA:25,_RNCNvMs_NtNtCscx2lCY9pHX3_9lens_core11calibration12tokenizationNtB6_17LanguageTokenizer25extract_language_featuress2_0Ba_
FNDA:56,_RNCNvMs_NtNtCscx2lCY9pHX3_9lens_core11calibration12tokenizationNtB6_17LanguageTokenizer25extract_language_featuress3_0Ba_
FNDA:56,_RNCNvMs_NtNtCscx2lCY9pHX3_9lens_core11calibration12tokenizationNtB6_17LanguageTokenizer25extract_language_featuress_0Ba_
FNDA:41,_RNCNvMs_NtNtCscx2lCY9pHX3_9lens_core11calibration12tokenizationNtB6_17LanguageTokenizer3new0Ba_
FNDA:9,_RNCNvMs_NtNtCscx2lCY9pHX3_9lens_core11calibration12tokenizationNtB6_17LanguageTokenizer8tokenize0Ba_
FNDA:1,_RNvNtNtNtCscx2lCY9pHX3_9lens_core11calibration12tokenization5testss_17test_go_tokenizer
FNDA:1,_RNvNtNtNtCscx2lCY9pHX3_9lens_core11calibration12tokenization5testss_18test_token_scoring
FNDA:1,_RNvNtNtNtCscx2lCY9pHX3_9lens_core11calibration12tokenization5testss_19test_java_tokenizer
FNDA:1,_RNvNtNtNtCscx2lCY9pHX3_9lens_core11calibration12tokenization5testss_22test_pattern_detection
FNDA:1,_RNvNtNtNtCscx2lCY9pHX3_9lens_core11calibration12tokenization5testss_22test_statistics_update
FNDA:1,_RNvNtNtNtCscx2lCY9pHX3_9lens_core11calibration12tokenization5testss_24test_config_for_language
FNDA:1,_RNvNtNtNtCscx2lCY9pHX3_9lens_core11calibration12tokenization5testss_25test_javascript_tokenizer
FNDA:1,_RNvNtNtNtCscx2lCY9pHX3_9lens_core11calibration12tokenization5testss_25test_typescript_tokenizer
FNDA:1,_RNvNtNtNtCscx2lCY9pHX3_9lens_core11calibration12tokenization5testss_33test_language_features_extraction
FNDA:1,_RNCNCNvNtNtNtCscx2lCY9pHX3_9lens_core11calibration12tokenization5testss_22test_pattern_detection00Bb_
FNDA:1,_RNCNvNtNtNtCscx2lCY9pHX3_9lens_core11calibration12tokenization5testss_17test_go_tokenizer0B9_
FNDA:1,_RNCNvNtNtNtCscx2lCY9pHX3_9lens_core11calibration12tokenization5testss_18test_token_scoring0B9_
FNDA:1,_RNCNvNtNtNtCscx2lCY9pHX3_9lens_core11calibration12tokenization5testss_19test_java_tokenizer0B9_
FNDA:1,_RNCNvNtNtNtCscx2lCY9pHX3_9lens_core11calibration12tokenization5testss_22test_pattern_detection0B9_
FNDA:1,_RNCNvNtNtNtCscx2lCY9pHX3_9lens_core11calibration12tokenization5testss_22test_statistics_update0B9_
FNDA:1,_RNCNvNtNtNtCscx2lCY9pHX3_9lens_core11calibration12tokenization5testss_25test_javascript_tokenizer0B9_
FNDA:1,_RNCNvNtNtNtCscx2lCY9pHX3_9lens_core11calibration12tokenization5testss_25test_typescript_tokenizer0B9_
FNDA:1,_RNCNvNtNtNtCscx2lCY9pHX3_9lens_core11calibration12tokenization5testss_33test_language_features_extraction0B9_
FNDA:4,_RNvMNtNtCscx2lCY9pHX3_9lens_core11calibration12tokenizationNtB2_18TokenizationConfig11java_config
FNDA:5,_RNvMNtNtCscx2lCY9pHX3_9lens_core11calibration12tokenizationNtB2_18TokenizationConfig11rust_config
FNDA:45,_RNvMNtNtCscx2lCY9pHX3_9lens_core11calibration12tokenizationNtB2_18TokenizationConfig12for_language
FNDA:4,_RNvMNtNtCscx2lCY9pHX3_9lens_core11calibration12tokenizationNtB2_18TokenizationConfig13python_config
FNDA:16,_RNvMNtNtCscx2lCY9pHX3_9lens_core11calibration12tokenizationNtB2_18TokenizationConfig14default_config
FNDA:11,_RNvMNtNtCscx2lCY9pHX3_9lens_core11calibration12tokenizationNtB2_18TokenizationConfig17javascript_config
FNDA:4,_RNvMNtNtCscx2lCY9pHX3_9lens_core11calibration12tokenizationNtB2_18TokenizationConfig17typescript_config
FNDA:5,_RNvMNtNtCscx2lCY9pHX3_9lens_core11calibration12tokenizationNtB2_18TokenizationConfig9go_config
FNDA:9,_RNvMs_NtNtCscx2lCY9pHX3_9lens_core11calibration12tokenizationNtB4_17LanguageTokenizer14extract_tokens
FNDA:1,_RNvMs_NtNtCscx2lCY9pHX3_9lens_core11calibration12tokenizationNtB4_17LanguageTokenizer14get_statistics
FNDA:9,_RNvMs_NtNtCscx2lCY9pHX3_9lens_core11calibration12tokenizationNtB4_17LanguageTokenizer15detect_patterns
FNDA:9,_RNvMs_NtNtCscx2lCY9pHX3_9lens_core11calibration12tokenizationNtB4_17LanguageTokenizer17update_statistics
FNDA:9,_RNvMs_NtNtCscx2lCY9pHX3_9lens_core11calibration12tokenizationNtB4_17LanguageTokenizer22calculate_token_scores
FNDA:9,_RNvMs_NtNtCscx2lCY9pHX3_9lens_core11calibration12tokenizationNtB4_17LanguageTokenizer25extract_language_features
FNDA:41,_RNvMs_NtNtCscx2lCY9pHX3_9lens_core11calibration12tokenizationNtB4_17LanguageTokenizer3new
FNDA:9,_RNvMs_NtNtCscx2lCY9pHX3_9lens_core11calibration12tokenizationNtB4_17LanguageTokenizer8tokenize
FNDA:41,_RNvXs0_NtNtCscx2lCY9pHX3_9lens_core11calibration12tokenizationNtB5_15TokenStatisticsNtNtCs66KPHxksi63_4core7default7Default7default
FNF:57
FNH:56
DA:127,45
DA:128,45
DA:129,45
DA:130,38
DA:131,33
DA:132,29
DA:133,25
DA:134,21
DA:135,16
DA:137,45
DA:140,11
DA:142,11
DA:143,11
DA:144,11
DA:145,11
DA:146,11
DA:147,11
DA:148,11
DA:149,11
DA:151,11
DA:152,11
DA:153,11
DA:154,11
DA:156,11
DA:157,11
DA:158,11
DA:159,11
DA:160,11
DA:161,11
DA:162,11
DA:164,11
DA:165,11
DA:166,11
DA:167,88
DA:169,11
DA:172,5
DA:174,5
DA:175,5
DA:176,5
DA:177,5
DA:178,5
DA:179,5
DA:180,5
DA:181,5
DA:183,5
DA:184,5
DA:185,5
DA:186,5
DA:188,5
DA:189,5
DA:190,5
DA:191,5
DA:192,5
DA:193,5
DA:194,5
DA:196,5
DA:197,5
DA:198,5
DA:199,40
DA:201,5
DA:204,4
DA:206,4
DA:207,4
DA:208,4
DA:209,4
DA:210,4
DA:211,4
DA:212,4
DA:213,4
DA:214,4
DA:216,4
DA:217,4
DA:218,4
DA:219,4
DA:220,4
DA:222,4
DA:223,4
DA:224,4
DA:225,4
DA:226,4
DA:227,4
DA:228,4
DA:230,4
DA:231,4
DA:232,4
DA:233,4
DA:234,48
DA:236,4
DA:239,4
DA:240,4
DA:241,4
DA:244,4
DA:245,4
DA:246,4
DA:247,4
DA:248,4
DA:252,4
DA:253,4
DA:254,4
DA:258,4
DA:259,4
DA:260,4
DA:261,4
DA:262,4
DA:266,4
DA:267,4
DA:268,4
DA:269,4
DA:271,4
DA:272,4
DA:275,4
DA:277,4
DA:278,4
DA:279,4
DA:280,4
DA:281,4
DA:282,4
DA:283,4
DA:285,4
DA:286,4
DA:287,4
DA:288,4
DA:289,4
DA:291,4
DA:292,4
DA:293,4
DA:294,4
DA:295,4
DA:296,4
DA:297,4
DA:299,4
DA:300,4
DA:301,4
DA:302,32
DA:304,4
DA:307,5
DA:309,5
DA:310,5
DA:311,5
DA:312,5
DA:313,5
DA:314,5
DA:315,5
DA:316,5
DA:318,5
DA:319,5
DA:320,5
DA:321,5
DA:323,5
DA:324,5
DA:325,5
DA:326,5
DA:327,5
DA:328,5
DA:329,5
DA:330,5
DA:332,5
DA:333,5
DA:334,5
DA:335,40
DA:337,5
DA:340,16
DA:341,16
DA:342,16
DA:343,16
DA:344,16
DA:345,16
DA:346,16
DA:347,16
DA:348,16
DA:349,16
DA:350,16
DA:355,41
DA:356,41
DA:358,41
DA:359,41
DA:361,41
DA:362,41
DA:363,41
DA:364,41
DA:365,41
DA:366,41
DA:367,41
DA:370,9
DA:371,9
DA:372,9
DA:373,9
DA:374,9
DA:377,9
DA:379,9
DA:380,0
DA:381,0
DA:384,9
DA:385,9
DA:386,9
DA:387,9
DA:388,9
DA:389,9
DA:390,9
DA:393,1
DA:394,1
DA:395,1
DA:398,0
DA:399,0
DA:400,0
DA:405,9
DA:407,9
DA:408,9
DA:410,9
DA:411,368
DA:412,144
DA:413,144
DA:414,56
DA:415,9
DA:417,9
DA:418,9
DA:421,9
DA:422,9
DA:423,9
DA:424,56
DA:425,9
DA:427,9
DA:428,9
DA:430,0
DA:434,9
DA:435,56
DA:436,56
DA:437,212
DA:438,56
DA:439,9
DA:442,9
DA:443,56
DA:444,9
DA:447,9
DA:448,31
DA:449,9
DA:451,9
DA:453,9
DA:454,25
DA:455,9
DA:457,9
DA:458,56
DA:460,0
DA:464,9
DA:466,9
DA:467,9
DA:468,9
DA:469,9
DA:470,9
DA:471,9
DA:472,9
DA:473,9
DA:474,9
DA:475,9
DA:478,9
DA:479,9
DA:481,65
DA:482,56
DA:485,56
DA:486,20
DA:488,36
DA:492,56
DA:493,1
DA:495,55
DA:499,56
DA:501,56
DA:502,56
DA:505,9
DA:506,9
DA:509,9
DA:510,9
DA:513,43
DA:515,43
DA:516,0
DA:517,0
DA:518,0
DA:519,0
DA:520,0
DA:521,0
DA:522,0
DA:524,0
DA:528,43
DA:532,9
DA:533,9
DA:534,3
DA:535,1
DA:536,1
DA:537,1
DA:538,1
DA:539,1
DA:540,1
DA:541,2
DA:543,6
DA:544,1
DA:545,1
DA:546,1
DA:547,1
DA:548,1
DA:549,1
DA:550,1
DA:551,1
DA:553,5
DA:554,1
DA:555,1
DA:556,1
DA:557,1
DA:558,1
DA:559,1
DA:560,1
DA:561,1
DA:563,4
DA:566,9
DA:567,9
DA:570,9
DA:571,9
DA:574,65
DA:575,56
DA:576,20
DA:577,36
DA:580,56
DA:581,50
DA:582,50
DA:585,9
DA:586,9
DA:590,41
DA:591,41
DA:592,41
DA:593,41
DA:594,41
DA:595,41
DA:596,41
DA:597,41
DA:605,1
DA:606,1
DA:607,1
DA:609,1
DA:610,1
DA:612,1
DA:613,1
DA:614,1
DA:617,1
DA:618,1
DA:621,1
DA:622,1
DA:625,1
DA:626,1
DA:627,1
DA:629,1
DA:630,1
DA:632,1
DA:633,1
DA:634,1
DA:637,1
DA:638,1
DA:639,1
DA:642,1
DA:643,1
DA:644,1
DA:646,1
DA:647,1
DA:649,1
DA:650,1
DA:653,1
DA:654,1
DA:655,1
DA:658,1
DA:659,1
DA:660,1
DA:662,1
DA:663,1
DA:665,1
DA:666,1
DA:669,1
DA:670,1
DA:671,1
DA:674,1
DA:675,1
DA:676,1
DA:678,1
DA:679,1
DA:682,1
DA:683,1
DA:684,1
DA:686,1
DA:687,1
DA:690,1
DA:691,1
DA:692,1
DA:694,1
DA:695,1
DA:698,1
DA:699,1
DA:700,1
DA:702,1
DA:703,1
DA:704,1
DA:707,1
DA:708,1
DA:709,1
DA:711,1
DA:712,1
DA:714,1
DA:715,1
DA:716,1
DA:717,1
DA:718,1
DA:721,1
DA:722,1
DA:723,1
DA:724,1
DA:726,1
DA:727,1
DA:728,1
DA:730,1
DA:731,1
DA:732,1
DA:733,1
DA:736,1
DA:737,1
DA:738,1
DA:740,1
DA:741,1
DA:743,1
DA:744,1
DA:746,1
DA:747,1
DA:748,1
DA:749,1
DA:750,1
BRF:0
BRH:0
LF:467
LH:452
end_of_record
SF:/home/nathan/Projects/lens/src/config.rs
FN:485,_RNvMs_NtCscx2lCY9pHX3_9lens_core6configNtB4_10LensConfig12save_to_file
FN:478,_RNvMs_NtCscx2lCY9pHX3_9lens_core6configNtB4_10LensConfig14load_from_file
FN:411,_RNvMs_NtCscx2lCY9pHX3_9lens_core6configNtB4_10LensConfig19default_lsp_servers
FN:492,_RNvMs_NtCscx2lCY9pHX3_9lens_core6configNtB4_10LensConfig8validate
FN:304,_RNvXNtCscx2lCY9pHX3_9lens_core6configNtB2_10LensConfigNtNtCs66KPHxksi63_4core7default7Default7default
FN:485,_RNCNvMs_NtCscx2lCY9pHX3_9lens_core6configNtB6_10LensConfig12save_to_file0B8_
FN:478,_RNCNvMs_NtCscx2lCY9pHX3_9lens_core6configNtB6_10LensConfig14load_from_file0B8_
FN:732,_RNvNtNtCscx2lCY9pHX3_9lens_core6config5testss_15test_bfs_config
FN:528,_RNvNtNtCscx2lCY9pHX3_9lens_core6config5testss_15test_bfs_limits
FN:919,_RNvNtNtCscx2lCY9pHX3_9lens_core6config5testss_15test_edge_cases
FN:683,_RNvNtNtCscx2lCY9pHX3_9lens_core6config5testss_15test_lsp_config
FN:641,_RNvNtNtCscx2lCY9pHX3_9lens_core6config5testss_16test_text_config
FN:813,_RNvNtNtCscx2lCY9pHX3_9lens_core6config5testss_17test_cache_config
FN:800,_RNvNtNtCscx2lCY9pHX3_9lens_core6config5testss_18test_fusion_config
FN:544,_RNvNtNtCscx2lCY9pHX3_9lens_core6config5testss_18test_port_conflict
FN:625,_RNvNtNtCscx2lCY9pHX3_9lens_core6config5testss_18test_vector_config
FN:828,_RNvNtNtCscx2lCY9pHX3_9lens_core6config5testss_19test_metrics_config
FN:663,_RNvNtNtCscx2lCY9pHX3_9lens_core6config5testss_19test_ranking_config
FN:751,_RNvNtNtCscx2lCY9pHX3_9lens_core6config5testss_20test_pipeline_config
FN:843,_RNvNtNtCscx2lCY9pHX3_9lens_core6config5testss_21test_benchmark_config
FN:559,_RNvNtNtCscx2lCY9pHX3_9lens_core6config5testss_21test_cache_ttl_limits
FN:712,_RNvNtNtCscx2lCY9pHX3_9lens_core6config5testss_22test_lsp_server_config
FN:785,_RNvNtNtCscx2lCY9pHX3_9lens_core6config5testss_23test_memory_pool_config
FN:858,_RNvNtNtCscx2lCY9pHX3_9lens_core6config5testss_24test_default_lsp_servers
FN:885,_RNvNtNtCscx2lCY9pHX3_9lens_core6config5testss_24test_lens_config_default
FN:945,_RNvNtNtCscx2lCY9pHX3_9lens_core6config5testss_27test_config_file_operations
FN:586,_RNvNtNtCscx2lCY9pHX3_9lens_core6config5testss_27test_search_config_defaults
FN:569,_RNvNtNtCscx2lCY9pHX3_9lens_core6config5testss_27test_server_config_defaults
FN:522,_RNvNtNtCscx2lCY9pHX3_9lens_core6config5testss_30test_default_config_validation
FN:551,_RNvNtNtCscx2lCY9pHX3_9lens_core6config5testss_32test_lsp_enabled_without_servers
FN:905,_RNvNtNtCscx2lCY9pHX3_9lens_core6config5testss_34test_serialization_deserialization
FN:945,_RNCNvNtNtCscx2lCY9pHX3_9lens_core6config5testss_27test_config_file_operations0B7_
FNDA:1,_RNvMs_NtCscx2lCY9pHX3_9lens_core6configNtB4_10LensConfig12save_to_file
FNDA:1,_RNvMs_NtCscx2lCY9pHX3_9lens_core6configNtB4_10LensConfig14load_from_file
FNDA:10,_RNvMs_NtCscx2lCY9pHX3_9lens_core6configNtB4_10LensConfig19default_lsp_servers
FNDA:11,_RNvMs_NtCscx2lCY9pHX3_9lens_core6configNtB4_10LensConfig8validate
FNDA:9,_RNvXNtCscx2lCY9pHX3_9lens_core6configNtB2_10LensConfigNtNtCs66KPHxksi63_4core7default7Default7default
FNDA:1,_RNCNvMs_NtCscx2lCY9pHX3_9lens_core6configNtB6_10LensConfig12save_to_file0B8_
FNDA:1,_RNCNvMs_NtCscx2lCY9pHX3_9lens_core6configNtB6_10LensConfig14load_from_file0B8_
FNDA:1,_RNvNtNtCscx2lCY9pHX3_9lens_core6config5testss_15test_bfs_config
FNDA:1,_RNvNtNtCscx2lCY9pHX3_9lens_core6config5testss_15test_bfs_limits
FNDA:1,_RNvNtNtCscx2lCY9pHX3_9lens_core6config5testss_15test_edge_cases
FNDA:1,_RNvNtNtCscx2lCY9pHX3_9lens_core6config5testss_15test_lsp_config
FNDA:1,_RNvNtNtCscx2lCY9pHX3_9lens_core6config5testss_16test_text_config
FNDA:1,_RNvNtNtCscx2lCY9pHX3_9lens_core6config5testss_17test_cache_config
FNDA:1,_RNvNtNtCscx2lCY9pHX3_9lens_core6config5testss_18test_fusion_config
FNDA:1,_RNvNtNtCscx2lCY9pHX3_9lens_core6config5testss_18test_port_conflict
FNDA:1,_RNvNtNtCscx2lCY9pHX3_9lens_core6config5testss_18test_vector_config
FNDA:1,_RNvNtNtCscx2lCY9pHX3_9lens_core6config5testss_19test_metrics_config
FNDA:1,_RNvNtNtCscx2lCY9pHX3_9lens_core6config5testss_19test_ranking_config
FNDA:1,_RNvNtNtCscx2lCY9pHX3_9lens_core6config5testss_20test_pipeline_config
FNDA:1,_RNvNtNtCscx2lCY9pHX3_9lens_core6config5testss_21test_benchmark_config
FNDA:1,_RNvNtNtCscx2lCY9pHX3_9lens_core6config5testss_21test_cache_ttl_limits
FNDA:1,_RNvNtNtCscx2lCY9pHX3_9lens_core6config5testss_22test_lsp_server_config
FNDA:1,_RNvNtNtCscx2lCY9pHX3_9lens_core6config5testss_23test_memory_pool_config
FNDA:1,_RNvNtNtCscx2lCY9pHX3_9lens_core6config5testss_24test_default_lsp_servers
FNDA:1,_RNvNtNtCscx2lCY9pHX3_9lens_core6config5testss_24test_lens_config_default
FNDA:1,_RNvNtNtCscx2lCY9pHX3_9lens_core6config5testss_27test_config_file_operations
FNDA:1,_RNvNtNtCscx2lCY9pHX3_9lens_core6config5testss_27test_search_config_defaults
FNDA:1,_RNvNtNtCscx2lCY9pHX3_9lens_core6config5testss_27test_server_config_defaults
FNDA:1,_RNvNtNtCscx2lCY9pHX3_9lens_core6config5testss_30test_default_config_validation
FNDA:1,_RNvNtNtCscx2lCY9pHX3_9lens_core6config5testss_32test_lsp_enabled_without_servers
FNDA:1,_RNvNtNtCscx2lCY9pHX3_9lens_core6config5testss_34test_serialization_deserialization
FNDA:1,_RNCNvNtNtCscx2lCY9pHX3_9lens_core6config5testss_27test_config_file_operations0B7_
FNF:32
FNH:32
DA:304,9
DA:305,9
DA:306,9
DA:307,9
DA:308,9
DA:309,9
DA:310,9
DA:311,9
DA:312,9
DA:313,9
DA:314,9
DA:315,9
DA:316,9
DA:317,9
DA:318,9
DA:319,9
DA:320,9
DA:321,9
DA:322,9
DA:323,9
DA:324,9
DA:325,9
DA:326,9
DA:327,9
DA:328,9
DA:329,9
DA:330,9
DA:331,9
DA:332,9
DA:333,9
DA:334,9
DA:335,9
DA:336,9
DA:337,9
DA:338,9
DA:339,9
DA:340,9
DA:341,9
DA:342,9
DA:343,9
DA:344,9
DA:345,9
DA:346,9
DA:347,9
DA:348,9
DA:349,9
DA:350,9
DA:351,9
DA:352,9
DA:353,9
DA:354,9
DA:355,9
DA:356,9
DA:357,9
DA:358,9
DA:359,9
DA:360,9
DA:361,9
DA:362,9
DA:363,9
DA:364,9
DA:365,9
DA:366,9
DA:367,9
DA:368,9
DA:369,9
DA:370,9
DA:371,9
DA:372,9
DA:373,9
DA:374,9
DA:375,9
DA:376,9
DA:377,9
DA:378,9
DA:379,9
DA:380,9
DA:381,9
DA:382,9
DA:383,9
DA:384,9
DA:385,9
DA:386,9
DA:387,9
DA:388,9
DA:389,9
DA:390,9
DA:391,9
DA:392,9
DA:393,9
DA:394,9
DA:395,9
DA:396,9
DA:397,9
DA:398,9
DA:399,9
DA:400,9
DA:401,9
DA:402,9
DA:403,9
DA:404,9
DA:405,9
DA:406,9
DA:411,10
DA:412,10
DA:415,10
DA:416,10
DA:417,10
DA:418,10
DA:419,10
DA:420,10
DA:421,10
DA:422,10
DA:423,10
DA:424,10
DA:425,10
DA:426,10
DA:427,10
DA:430,10
DA:431,10
DA:432,10
DA:433,10
DA:434,10
DA:435,10
DA:436,10
DA:437,10
DA:438,10
DA:439,10
DA:440,10
DA:441,10
DA:442,10
DA:443,10
DA:444,10
DA:445,10
DA:446,10
DA:449,10
DA:450,10
DA:451,10
DA:452,10
DA:453,10
DA:454,10
DA:455,10
DA:456,10
DA:457,10
DA:458,10
DA:459,10
DA:460,10
DA:461,10
DA:462,10
DA:465,10
DA:466,10
DA:467,10
DA:468,10
DA:469,10
DA:470,10
DA:471,10
DA:472,10
DA:474,10
DA:475,10
DA:478,1
DA:479,1
DA:480,1
DA:481,1
DA:482,1
DA:485,1
DA:486,1
DA:487,1
DA:488,1
DA:489,1
DA:492,11
DA:493,11
DA:494,1
DA:495,10
DA:497,10
DA:498,1
DA:499,9
DA:501,9
DA:502,1
DA:503,8
DA:505,8
DA:506,1
DA:507,7
DA:509,7
DA:510,1
DA:511,6
DA:513,6
DA:514,11
DA:522,1
DA:523,1
DA:524,1
DA:525,1
DA:528,1
DA:529,1
DA:532,1
DA:533,1
DA:535,1
DA:536,1
DA:537,1
DA:539,1
DA:540,1
DA:541,1
DA:544,1
DA:545,1
DA:546,1
DA:547,1
DA:548,1
DA:551,1
DA:552,1
DA:553,1
DA:554,1
DA:555,1
DA:556,1
DA:559,1
DA:560,1
DA:561,1
DA:562,1
DA:564,1
DA:565,1
DA:566,1
DA:569,1
DA:570,1
DA:571,1
DA:572,1
DA:573,1
DA:574,1
DA:575,1
DA:576,1
DA:577,1
DA:579,1
DA:580,1
DA:581,1
DA:582,1
DA:583,1
DA:586,1
DA:587,1
DA:588,1
DA:589,1
DA:590,1
DA:591,1
DA:592,1
DA:593,1
DA:594,1
DA:595,1
DA:596,1
DA:597,1
DA:598,1
DA:599,1
DA:600,1
DA:601,1
DA:602,1
DA:603,1
DA:604,1
DA:605,1
DA:606,1
DA:607,1
DA:608,1
DA:609,1
DA:610,1
DA:611,1
DA:612,1
DA:613,1
DA:614,1
DA:615,1
DA:617,1
DA:618,1
DA:619,1
DA:620,1
DA:621,1
DA:622,1
DA:625,1
DA:626,1
DA:627,1
DA:628,1
DA:629,1
DA:630,1
DA:631,1
DA:632,1
DA:634,1
DA:635,1
DA:636,1
DA:637,1
DA:638,1
DA:641,1
DA:642,1
DA:643,1
DA:644,1
DA:645,1
DA:647,1
DA:648,1
DA:649,1
DA:650,1
DA:651,1
DA:652,1
DA:653,1
DA:655,1
DA:656,1
DA:657,1
DA:658,1
DA:659,1
DA:660,1
DA:663,1
DA:664,1
DA:665,1
DA:666,1
DA:668,1
DA:669,1
DA:670,1
DA:671,1
DA:672,1
DA:673,1
DA:674,1
DA:676,1
DA:677,1
DA:678,1
DA:679,1
DA:680,1
DA:683,1
DA:684,1
DA:685,1
DA:686,1
DA:687,1
DA:688,1
DA:689,1
DA:690,1
DA:691,1
DA:692,1
DA:694,1
DA:695,1
DA:696,1
DA:697,1
DA:698,1
DA:699,1
DA:700,1
DA:701,1
DA:703,1
DA:704,1
DA:705,1
DA:706,1
DA:707,1
DA:708,1
DA:709,1
DA:712,1
DA:713,1
DA:714,1
DA:716,1
DA:717,1
DA:718,1
DA:719,1
DA:720,1
DA:721,1
DA:722,1
DA:723,1
DA:725,1
DA:726,1
DA:727,1
DA:728,1
DA:729,1
DA:732,1
DA:733,1
DA:734,1
DA:735,1
DA:736,1
DA:737,1
DA:738,1
DA:739,1
DA:740,1
DA:742,1
DA:743,1
DA:744,1
DA:745,1
DA:746,1
DA:747,1
DA:748,1
DA:751,1
DA:752,1
DA:753,1
DA:754,1
DA:756,1
DA:757,1
DA:758,1
DA:759,1
DA:760,1
DA:761,1
DA:763,1
DA:764,1
DA:765,1
DA:766,1
DA:767,1
DA:769,1
DA:770,1
DA:771,1
DA:772,1
DA:773,1
DA:774,1
DA:775,1
DA:777,1
DA:778,1
DA:779,1
DA:780,1
DA:781,1
DA:782,1
DA:785,1
DA:786,1
DA:787,1
DA:788,1
DA:789,1
DA:790,1
DA:791,1
DA:793,1
DA:794,1
DA:795,1
DA:796,1
DA:797,1
DA:800,1
DA:801,1
DA:802,1
DA:803,1
DA:804,1
DA:805,1
DA:807,1
DA:808,1
DA:809,1
DA:810,1
DA:813,1
DA:814,1
DA:815,1
DA:816,1
DA:817,1
DA:818,1
DA:819,1
DA:821,1
DA:822,1
DA:823,1
DA:824,1
DA:825,1
DA:828,1
DA:829,1
DA:830,1
DA:831,1
DA:832,1
DA:833,1
DA:834,1
DA:836,1
DA:837,1
DA:838,1
DA:839,1
DA:840,1
DA:843,1
DA:844,1
DA:845,1
DA:846,1
DA:847,1
DA:848,1
DA:849,1
DA:851,1
DA:852,1
DA:853,1
DA:854,1
DA:855,1
DA:858,1
DA:859,1
DA:861,1
DA:862,1
DA:863,1
DA:864,1
DA:866,1
DA:867,1
DA:868,1
DA:869,1
DA:871,1
DA:872,1
DA:873,1
DA:875,1
DA:876,1
DA:877,1
DA:879,1
DA:880,1
DA:881,1
DA:882,1
DA:885,1
DA:886,1
DA:888,1
DA:889,1
DA:890,1
DA:891,1
DA:892,1
DA:893,1
DA:894,1
DA:897,1
DA:898,1
DA:900,1
DA:901,1
DA:902,1
DA:905,1
DA:906,1
DA:909,1
DA:910,1
DA:913,1
DA:914,1
DA:915,1
DA:916,1
DA:919,1
DA:920,1
DA:923,1
DA:924,1
DA:927,1
DA:928,1
DA:929,1
DA:932,1
DA:933,1
DA:934,1
DA:935,1
DA:938,1
DA:939,1
DA:940,1
DA:941,1
DA:942,1
DA:945,1
DA:948,1
DA:949,1
DA:951,1
DA:954,1
DA:955,1
DA:958,1
DA:959,1
DA:961,1
DA:962,1
DA:963,1
DA:964,1
BRF:0
BRH:0
LF:533
LH:533
end_of_record
SF:/home/nathan/Projects/lens/src/grpc/mod.rs
FN:305,_RNCNvNtCscx2lCY9pHX3_9lens_core4grpc13create_server0B5_
FN:299,_RNvNtCscx2lCY9pHX3_9lens_core4grpc13create_server
FN:50,_RNvMNtCscx2lCY9pHX3_9lens_core4grpcNtB2_21LensSearchServiceImpl13create_server
FN:55,_RNvMNtCscx2lCY9pHX3_9lens_core4grpcNtB2_21LensSearchServiceImpl15convert_request
FN:77,_RNvMNtCscx2lCY9pHX3_9lens_core4grpcNtB2_21LensSearchServiceImpl16convert_response
FN:121,_RNvMNtCscx2lCY9pHX3_9lens_core4grpcNtB2_21LensSearchServiceImpl19should_route_to_lsp
FN:34,_RNvMNtCscx2lCY9pHX3_9lens_core4grpcNtB2_21LensSearchServiceImpl3new
FN:286,_RNvXs_NtCscx2lCY9pHX3_9lens_core4grpcNtB4_12ServerConfigNtNtCs66KPHxksi63_4core7default7Default7default
FN:257,_RNCNCNCNvXs0_NtCscx2lCY9pHX3_9lens_core4grpcNtBb_21LensSearchServiceImplNtNtNtNtNtBd_5proto4lens2v126lens_search_service_server17LensSearchService9handshake000Bd_
FN:83,_RNCNvMNtCscx2lCY9pHX3_9lens_core4grpcNtB4_21LensSearchServiceImpl16convert_response0B6_
FN:131,_RNCNvMNtCscx2lCY9pHX3_9lens_core4grpcNtB4_21LensSearchServiceImpl19should_route_to_lsp0B6_
FN:994,_RNCNCNCNvNtNtCscx2lCY9pHX3_9lens_core4grpc5testss_35test_concurrent_different_endpoints000Bb_
FN:1004,_RNCNCNCNvNtNtCscx2lCY9pHX3_9lens_core4grpc5testss_35test_concurrent_different_endpoints00s0_0Bb_
FN:1011,_RNCNCNCNvNtNtCscx2lCY9pHX3_9lens_core4grpc5testss_35test_concurrent_different_endpoints00s1_0Bb_
FN:1000,_RNCNCNCNvNtNtCscx2lCY9pHX3_9lens_core4grpc5testss_35test_concurrent_different_endpoints00s_0Bb_
FN:947,_RNCNCNvNtNtCscx2lCY9pHX3_9lens_core4grpc5testss_31test_concurrent_search_requests00B9_
FN:982,_RNCNCNvNtNtCscx2lCY9pHX3_9lens_core4grpc5testss_35test_concurrent_different_endpoints00B9_
FN:364,_RNCNvNtNtCscx2lCY9pHX3_9lens_core4grpc5tests19create_mock_service0B7_
FN:346,_RNCNvNtNtCscx2lCY9pHX3_9lens_core4grpc5tests25create_test_search_engine0B7_
FN:382,_RNCNvNtNtCscx2lCY9pHX3_9lens_core4grpc5tests32create_mock_service_with_failure0B7_
FN:387,_RNCNvNtNtCscx2lCY9pHX3_9lens_core4grpc5tests38create_mock_service_with_slow_response0B7_
FN:786,_RNCNvNtNtCscx2lCY9pHX3_9lens_core4grpc5testss_17test_health_check0B7_
FN:1053,_RNCNvNtNtCscx2lCY9pHX3_9lens_core4grpc5testss_18test_unicode_query0B7_
FN:819,_RNCNvNtNtCscx2lCY9pHX3_9lens_core4grpc5testss_19test_get_build_info0B7_
FN:675,_RNCNvNtNtCscx2lCY9pHX3_9lens_core4grpc5testss_19test_search_failure0B7_
FN:1028,_RNCNvNtNtCscx2lCY9pHX3_9lens_core4grpc5testss_20test_very_long_query0B7_
FN:495,_RNCNvNtNtCscx2lCY9pHX3_9lens_core4grpc5testss_21test_convert_response0B7_
FN:395,_RNCNvNtNtCscx2lCY9pHX3_9lens_core4grpc5testss_21test_service_creation0B7_
FN:647,_RNCNvNtNtCscx2lCY9pHX3_9lens_core4grpc5testss_22test_search_successful0B7_
FN:929,_RNCNvNtNtCscx2lCY9pHX3_9lens_core4grpc5testss_24test_server_config_clone0B7_
FN:834,_RNCNvNtNtCscx2lCY9pHX3_9lens_core4grpc5testss_25test_handshake_successful0B7_
FN:910,_RNCNvNtNtCscx2lCY9pHX3_9lens_core4grpc5testss_25test_server_config_custom0B7_
FN:406,_RNCNvNtNtCscx2lCY9pHX3_9lens_core4grpc5testss_26test_convert_request_valid0B7_
FN:1224,_RNCNvNtNtCscx2lCY9pHX3_9lens_core4grpc5testss_26test_handshake_consistency0B7_
FN:879,_RNCNvNtNtCscx2lCY9pHX3_9lens_core4grpc5testss_26test_handshake_empty_nonce0B7_
FN:699,_RNCNvNtNtCscx2lCY9pHX3_9lens_core4grpc5testss_26test_search_sla_compliance0B7_
FN:898,_RNCNvNtNtCscx2lCY9pHX3_9lens_core4grpc5testss_26test_server_config_default0B7_
FN:729,_RNCNvNtNtCscx2lCY9pHX3_9lens_core4grpc5testss_29test_search_empty_query_error0B7_
FN:1085,_RNCNvNtNtCscx2lCY9pHX3_9lens_core4grpc5testss_29test_zero_and_negative_limits0B7_
FN:940,_RNCNvNtNtCscx2lCY9pHX3_9lens_core4grpc5testss_31test_concurrent_search_requests0B7_
FN:854,_RNCNvNtNtCscx2lCY9pHX3_9lens_core4grpc5testss_31test_handshake_different_nonces0B7_
FN:453,_RNCNvNtNtCscx2lCY9pHX3_9lens_core4grpc5testss_32test_convert_request_empty_query0B7_
FN:1104,_RNCNvNtNtCscx2lCY9pHX3_9lens_core4grpc5testss_32test_special_characters_in_query0B7_
FN:802,_RNCNvNtNtCscx2lCY9pHX3_9lens_core4grpc5testss_33test_health_check_response_format0B7_
FN:604,_RNCNvNtNtCscx2lCY9pHX3_9lens_core4grpc5testss_33test_should_route_to_lsp_patterns0B7_
FN:432,_RNCNvNtNtCscx2lCY9pHX3_9lens_core4grpc5testss_34test_convert_request_default_limit0B7_
FN:1250,_RNCNvNtNtCscx2lCY9pHX3_9lens_core4grpc5testss_34test_response_structure_properties0B7_
FN:751,_RNCNvNtNtCscx2lCY9pHX3_9lens_core4grpc5testss_34test_search_attestation_uniqueness0B7_
FN:975,_RNCNvNtNtCscx2lCY9pHX3_9lens_core4grpc5testss_35test_concurrent_different_endpoints0B7_
FN:565,_RNCNvNtNtCscx2lCY9pHX3_9lens_core4grpc5testss_35test_convert_response_empty_results0B7_
FN:1138,_RNCNvNtNtCscx2lCY9pHX3_9lens_core4grpc5testss_35test_search_performance_measurement0B7_
FN:475,_RNCNvNtNtCscx2lCY9pHX3_9lens_core4grpc5testss_36test_convert_request_whitespace_only0B7_
FN:1167,_RNCNvNtNtCscx2lCY9pHX3_9lens_core4grpc5testss_36test_memory_usage_with_large_results0B7_
FN:1196,_RNCNvNtNtCscx2lCY9pHX3_9lens_core4grpc5testss_36test_service_resilience_after_errors0B7_
FN:624,_RNCNvNtNtCscx2lCY9pHX3_9lens_core4grpc5testss_39test_should_route_to_lsp_negative_cases0B7_
FN:636,_RNCNvNtNtCscx2lCY9pHX3_9lens_core4grpc5testss_41test_should_route_to_lsp_case_insensitive0B7_
FN:364,_RNvNtNtCscx2lCY9pHX3_9lens_core4grpc5tests19create_mock_service
FN:346,_RNvNtNtCscx2lCY9pHX3_9lens_core4grpc5tests25create_test_search_engine
FN:382,_RNvNtNtCscx2lCY9pHX3_9lens_core4grpc5tests32create_mock_service_with_failure
FN:387,_RNvNtNtCscx2lCY9pHX3_9lens_core4grpc5tests38create_mock_service_with_slow_response
FN:786,_RNvNtNtCscx2lCY9pHX3_9lens_core4grpc5testss_17test_health_check
FN:1053,_RNvNtNtCscx2lCY9pHX3_9lens_core4grpc5testss_18test_unicode_query
FN:819,_RNvNtNtCscx2lCY9pHX3_9lens_core4grpc5testss_19test_get_build_info
FN:675,_RNvNtNtCscx2lCY9pHX3_9lens_core4grpc5testss_19test_search_failure
FN:1028,_RNvNtNtCscx2lCY9pHX3_9lens_core4grpc5testss_20test_very_long_query
FN:495,_RNvNtNtCscx2lCY9pHX3_9lens_core4grpc5testss_21test_convert_response
FN:395,_RNvNtNtCscx2lCY9pHX3_9lens_core4grpc5testss_21test_service_creation
FN:647,_RNvNtNtCscx2lCY9pHX3_9lens_core4grpc5testss_22test_search_successful
FN:929,_RNvNtNtCscx2lCY9pHX3_9lens_core4grpc5testss_24test_server_config_clone
FN:834,_RNvNtNtCscx2lCY9pHX3_9lens_core4grpc5testss_25test_handshake_successful
FN:910,_RNvNtNtCscx2lCY9pHX3_9lens_core4grpc5testss_25test_server_config_custom
FN:406,_RNvNtNtCscx2lCY9pHX3_9lens_core4grpc5testss_26test_convert_request_valid
FN:1224,_RNvNtNtCscx2lCY9pHX3_9lens_core4grpc5testss_26test_handshake_consistency
FN:879,_RNvNtNtCscx2lCY9pHX3_9lens_core4grpc5testss_26test_handshake_empty_nonce
FN:699,_RNvNtNtCscx2lCY9pHX3_9lens_core4grpc5testss_26test_search_sla_compliance
FN:898,_RNvNtNtCscx2lCY9pHX3_9lens_core4grpc5testss_26test_server_config_default
FN:729,_RNvNtNtCscx2lCY9pHX3_9lens_core4grpc5testss_29test_search_empty_query_error
FN:1085,_RNvNtNtCscx2lCY9pHX3_9lens_core4grpc5testss_29test_zero_and_negative_limits
FN:940,_RNvNtNtCscx2lCY9pHX3_9lens_core4grpc5testss_31test_concurrent_search_requests
FN:854,_RNvNtNtCscx2lCY9pHX3_9lens_core4grpc5testss_31test_handshake_different_nonces
FN:453,_RNvNtNtCscx2lCY9pHX3_9lens_core4grpc5testss_32test_convert_request_empty_query
FN:1104,_RNvNtNtCscx2lCY9pHX3_9lens_core4grpc5testss_32test_special_characters_in_query
FN:802,_RNvNtNtCscx2lCY9pHX3_9lens_core4grpc5testss_33test_health_check_response_format
FN:604,_RNvNtNtCscx2lCY9pHX3_9lens_core4grpc5testss_33test_should_route_to_lsp_patterns
FN:432,_RNvNtNtCscx2lCY9pHX3_9lens_core4grpc5testss_34test_convert_request_default_limit
FN:1250,_RNvNtNtCscx2lCY9pHX3_9lens_core4grpc5testss_34test_response_structure_properties
FN:751,_RNvNtNtCscx2lCY9pHX3_9lens_core4grpc5testss_34test_search_attestation_uniqueness
FN:975,_RNvNtNtCscx2lCY9pHX3_9lens_core4grpc5testss_35test_concurrent_different_endpoints
FN:565,_RNvNtNtCscx2lCY9pHX3_9lens_core4grpc5testss_35test_convert_response_empty_results
FN:1138,_RNvNtNtCscx2lCY9pHX3_9lens_core4grpc5testss_35test_search_performance_measurement
FN:475,_RNvNtNtCscx2lCY9pHX3_9lens_core4grpc5testss_36test_convert_request_whitespace_only
FN:1167,_RNvNtNtCscx2lCY9pHX3_9lens_core4grpc5testss_36test_memory_usage_with_large_results
FN:1196,_RNvNtNtCscx2lCY9pHX3_9lens_core4grpc5testss_36test_service_resilience_after_errors
FN:624,_RNvNtNtCscx2lCY9pHX3_9lens_core4grpc5testss_39test_should_route_to_lsp_negative_cases
FN:636,_RNvNtNtCscx2lCY9pHX3_9lens_core4grpc5testss_41test_should_route_to_lsp_case_insensitive
FNDA:0,_RNCNvNtCscx2lCY9pHX3_9lens_core4grpc13create_server0B5_
FNDA:0,_RNvNtCscx2lCY9pHX3_9lens_core4grpc13create_server
FNDA:1,_RNvMNtCscx2lCY9pHX3_9lens_core4grpcNtB2_21LensSearchServiceImpl13create_server
FNDA:41,_RNvMNtCscx2lCY9pHX3_9lens_core4grpcNtB2_21LensSearchServiceImpl15convert_request
FNDA:35,_RNvMNtCscx2lCY9pHX3_9lens_core4grpcNtB2_21LensSearchServiceImpl16convert_response
FNDA:19,_RNvMNtCscx2lCY9pHX3_9lens_core4grpcNtB2_21LensSearchServiceImpl19should_route_to_lsp
FNDA:32,_RNvMNtCscx2lCY9pHX3_9lens_core4grpcNtB2_21LensSearchServiceImpl3new
FNDA:2,_RNvXs_NtCscx2lCY9pHX3_9lens_core4grpcNtB4_12ServerConfigNtNtCs66KPHxksi63_4core7default7Default7default
FNDA:0,_RNCNCNCNvXs0_NtCscx2lCY9pHX3_9lens_core4grpcNtBb_21LensSearchServiceImplNtNtNtNtNtBd_5proto4lens2v126lens_search_service_server17LensSearchService9handshake000Bd_
FNDA:1086,_RNCNvMNtCscx2lCY9pHX3_9lens_core4grpcNtB4_21LensSearchServiceImpl16convert_response0B6_
FNDA:224,_RNCNvMNtCscx2lCY9pHX3_9lens_core4grpcNtB4_21LensSearchServiceImpl19should_route_to_lsp0B6_
FNDA:2,_RNCNCNCNvNtNtCscx2lCY9pHX3_9lens_core4grpc5testss_35test_concurrent_different_endpoints000Bb_
FNDA:1,_RNCNCNCNvNtNtCscx2lCY9pHX3_9lens_core4grpc5testss_35test_concurrent_different_endpoints00s0_0Bb_
FNDA:1,_RNCNCNCNvNtNtCscx2lCY9pHX3_9lens_core4grpc5testss_35test_concurrent_different_endpoints00s1_0Bb_
FNDA:1,_RNCNCNCNvNtNtCscx2lCY9pHX3_9lens_core4grpc5testss_35test_concurrent_different_endpoints00s_0Bb_
FNDA:10,_RNCNCNvNtNtCscx2lCY9pHX3_9lens_core4grpc5testss_31test_concurrent_search_requests00B9_
FNDA:5,_RNCNCNvNtNtCscx2lCY9pHX3_9lens_core4grpc5testss_35test_concurrent_different_endpoints00B9_
FNDA:32,_RNCNvNtNtCscx2lCY9pHX3_9lens_core4grpc5tests19create_mock_service0B7_
FNDA:32,_RNCNvNtNtCscx2lCY9pHX3_9lens_core4grpc5tests25create_test_search_engine0B7_
FNDA:2,_RNCNvNtNtCscx2lCY9pHX3_9lens_core4grpc5tests32create_mock_service_with_failure0B7_
FNDA:2,_RNCNvNtNtCscx2lCY9pHX3_9lens_core4grpc5tests38create_mock_service_with_slow_response0B7_
FNDA:1,_RNCNvNtNtCscx2lCY9pHX3_9lens_core4grpc5testss_17test_health_check0B7_
FNDA:1,_RNCNvNtNtCscx2lCY9pHX3_9lens_core4grpc5testss_18test_unicode_query0B7_
FNDA:1,_RNCNvNtNtCscx2lCY9pHX3_9lens_core4grpc5testss_19test_get_build_info0B7_
FNDA:1,_RNCNvNtNtCscx2lCY9pHX3_9lens_core4grpc5testss_19test_search_failure0B7_
FNDA:1,_RNCNvNtNtCscx2lCY9pHX3_9lens_core4grpc5testss_20test_very_long_query0B7_
FNDA:1,_RNCNvNtNtCscx2lCY9pHX3_9lens_core4grpc5testss_21test_convert_response0B7_
FNDA:1,_RNCNvNtNtCscx2lCY9pHX3_9lens_core4grpc5testss_21test_service_creation0B7_
FNDA:1,_RNCNvNtNtCscx2lCY9pHX3_9lens_core4grpc5testss_22test_search_successful0B7_
FNDA:1,_RNCNvNtNtCscx2lCY9pHX3_9lens_core4grpc5testss_24test_server_config_clone0B7_
FNDA:1,_RNCNvNtNtCscx2lCY9pHX3_9lens_core4grpc5testss_25test_handshake_successful0B7_
FNDA:1,_RNCNvNtNtCscx2lCY9pHX3_9lens_core4grpc5testss_25test_server_config_custom0B7_
FNDA:1,_RNCNvNtNtCscx2lCY9pHX3_9lens_core4grpc5testss_26test_convert_request_valid0B7_
FNDA:1,_RNCNvNtNtCscx2lCY9pHX3_9lens_core4grpc5testss_26test_handshake_consistency0B7_
FNDA:1,_RNCNvNtNtCscx2lCY9pHX3_9lens_core4grpc5testss_26test_handshake_empty_nonce0B7_
FNDA:1,_RNCNvNtNtCscx2lCY9pHX3_9lens_core4grpc5testss_26test_search_sla_compliance0B7_
FNDA:1,_RNCNvNtNtCscx2lCY9pHX3_9lens_core4grpc5testss_26test_server_config_default0B7_
FNDA:1,_RNCNvNtNtCscx2lCY9pHX3_9lens_core4grpc5testss_29test_search_empty_query_error0B7_
FNDA:1,_RNCNvNtNtCscx2lCY9pHX3_9lens_core4grpc5testss_29test_zero_and_negative_limits0B7_
FNDA:1,_RNCNvNtNtCscx2lCY9pHX3_9lens_core4grpc5testss_31test_concurrent_search_requests0B7_
FNDA:1,_RNCNvNtNtCscx2lCY9pHX3_9lens_core4grpc5testss_31test_handshake_different_nonces0B7_
FNDA:1,_RNCNvNtNtCscx2lCY9pHX3_9lens_core4grpc5testss_32test_convert_request_empty_query0B7_
FNDA:1,_RNCNvNtNtCscx2lCY9pHX3_9lens_core4grpc5testss_32test_special_characters_in_query0B7_
FNDA:1,_RNCNvNtNtCscx2lCY9pHX3_9lens_core4grpc5testss_33test_health_check_response_format0B7_
FNDA:1,_RNCNvNtNtCscx2lCY9pHX3_9lens_core4grpc5testss_33test_should_route_to_lsp_patterns0B7_
FNDA:1,_RNCNvNtNtCscx2lCY9pHX3_9lens_core4grpc5testss_34test_convert_request_default_limit0B7_
FNDA:1,_RNCNvNtNtCscx2lCY9pHX3_9lens_core4grpc5testss_34test_response_structure_properties0B7_
FNDA:1,_RNCNvNtNtCscx2lCY9pHX3_9lens_core4grpc5testss_34test_search_attestation_uniqueness0B7_
FNDA:1,_RNCNvNtNtCscx2lCY9pHX3_9lens_core4grpc5testss_35test_concurrent_different_endpoints0B7_
FNDA:1,_RNCNvNtNtCscx2lCY9pHX3_9lens_core4grpc5testss_35test_convert_response_empty_results0B7_
FNDA:1,_RNCNvNtNtCscx2lCY9pHX3_9lens_core4grpc5testss_35test_search_performance_measurement0B7_
FNDA:1,_RNCNvNtNtCscx2lCY9pHX3_9lens_core4grpc5testss_36test_convert_request_whitespace_only0B7_
FNDA:1,_RNCNvNtNtCscx2lCY9pHX3_9lens_core4grpc5testss_36test_memory_usage_with_large_results0B7_
FNDA:1,_RNCNvNtNtCscx2lCY9pHX3_9lens_core4grpc5testss_36test_service_resilience_after_errors0B7_
FNDA:1,_RNCNvNtNtCscx2lCY9pHX3_9lens_core4grpc5testss_39test_should_route_to_lsp_negative_cases0B7_
FNDA:1,_RNCNvNtNtCscx2lCY9pHX3_9lens_core4grpc5testss_41test_should_route_to_lsp_case_insensitive0B7_
FNDA:32,_RNvNtNtCscx2lCY9pHX3_9lens_core4grpc5tests19create_mock_service
FNDA:32,_RNvNtNtCscx2lCY9pHX3_9lens_core4grpc5tests25create_test_search_engine
FNDA:2,_RNvNtNtCscx2lCY9pHX3_9lens_core4grpc5tests32create_mock_service_with_failure
FNDA:2,_RNvNtNtCscx2lCY9pHX3_9lens_core4grpc5tests38create_mock_service_with_slow_response
FNDA:1,_RNvNtNtCscx2lCY9pHX3_9lens_core4grpc5testss_17test_health_check
FNDA:1,_RNvNtNtCscx2lCY9pHX3_9lens_core4grpc5testss_18test_unicode_query
FNDA:1,_RNvNtNtCscx2lCY9pHX3_9lens_core4grpc5testss_19test_get_build_info
FNDA:1,_RNvNtNtCscx2lCY9pHX3_9lens_core4grpc5testss_19test_search_failure
FNDA:1,_RNvNtNtCscx2lCY9pHX3_9lens_core4grpc5testss_20test_very_long_query
FNDA:1,_RNvNtNtCscx2lCY9pHX3_9lens_core4grpc5testss_21test_convert_response
FNDA:1,_RNvNtNtCscx2lCY9pHX3_9lens_core4grpc5testss_21test_service_creation
FNDA:1,_RNvNtNtCscx2lCY9pHX3_9lens_core4grpc5testss_22test_search_successful
FNDA:1,_RNvNtNtCscx2lCY9pHX3_9lens_core4grpc5testss_24test_server_config_clone
FNDA:1,_RNvNtNtCscx2lCY9pHX3_9lens_core4grpc5testss_25test_handshake_successful
FNDA:1,_RNvNtNtCscx2lCY9pHX3_9lens_core4grpc5testss_25test_server_config_custom
FNDA:1,_RNvNtNtCscx2lCY9pHX3_9lens_core4grpc5testss_26test_convert_request_valid
FNDA:1,_RNvNtNtCscx2lCY9pHX3_9lens_core4grpc5testss_26test_handshake_consistency
FNDA:1,_RNvNtNtCscx2lCY9pHX3_9lens_core4grpc5testss_26test_handshake_empty_nonce
FNDA:1,_RNvNtNtCscx2lCY9pHX3_9lens_core4grpc5testss_26test_search_sla_compliance
FNDA:1,_RNvNtNtCscx2lCY9pHX3_9lens_core4grpc5testss_26test_server_config_default
FNDA:1,_RNvNtNtCscx2lCY9pHX3_9lens_core4grpc5testss_29test_search_empty_query_error
FNDA:1,_RNvNtNtCscx2lCY9pHX3_9lens_core4grpc5testss_29test_zero_and_negative_limits
FNDA:1,_RNvNtNtCscx2lCY9pHX3_9lens_core4grpc5testss_31test_concurrent_search_requests
FNDA:1,_RNvNtNtCscx2lCY9pHX3_9lens_core4grpc5testss_31test_handshake_different_nonces
FNDA:1,_RNvNtNtCscx2lCY9pHX3_9lens_core4grpc5testss_32test_convert_request_empty_query
FNDA:1,_RNvNtNtCscx2lCY9pHX3_9lens_core4grpc5testss_32test_special_characters_in_query
FNDA:1,_RNvNtNtCscx2lCY9pHX3_9lens_core4grpc5testss_33test_health_check_response_format
FNDA:1,_RNvNtNtCscx2lCY9pHX3_9lens_core4grpc5testss_33test_should_route_to_lsp_patterns
FNDA:1,_RNvNtNtCscx2lCY9pHX3_9lens_core4grpc5testss_34test_convert_request_default_limit
FNDA:1,_RNvNtNtCscx2lCY9pHX3_9lens_core4grpc5testss_34test_response_structure_properties
FNDA:1,_RNvNtNtCscx2lCY9pHX3_9lens_core4grpc5testss_34test_search_attestation_uniqueness
FNDA:1,_RNvNtNtCscx2lCY9pHX3_9lens_core4grpc5testss_35test_concurrent_different_endpoints
FNDA:1,_RNvNtNtCscx2lCY9pHX3_9lens_core4grpc5testss_35test_convert_response_empty_results
FNDA:1,_RNvNtNtCscx2lCY9pHX3_9lens_core4grpc5testss_35test_search_performance_measurement
FNDA:1,_RNvNtNtCscx2lCY9pHX3_9lens_core4grpc5testss_36test_convert_request_whitespace_only
FNDA:1,_RNvNtNtCscx2lCY9pHX3_9lens_core4grpc5testss_36test_memory_usage_with_large_results
FNDA:1,_RNvNtNtCscx2lCY9pHX3_9lens_core4grpc5testss_36test_service_resilience_after_errors
FNDA:1,_RNvNtNtCscx2lCY9pHX3_9lens_core4grpc5testss_39test_should_route_to_lsp_negative_cases
FNDA:1,_RNvNtNtCscx2lCY9pHX3_9lens_core4grpc5testss_41test_should_route_to_lsp_case_insensitive
FNF:95
FNH:92
DA:34,32
DA:35,32
DA:36,32
DA:37,32
DA:38,32
DA:39,32
DA:40,32
DA:41,32
DA:42,32
DA:43,32
DA:44,32
DA:45,32
DA:46,32
DA:47,32
DA:50,1
DA:51,1
DA:52,1
DA:55,41
DA:56,41
DA:57,4
DA:58,37
DA:61,37
DA:62,37
DA:63,37
DA:64,37
DA:68,37
DA:69,37
DA:70,37
DA:72,37
DA:74,41
DA:77,35
DA:78,35
DA:79,35
DA:80,35
DA:81,35
DA:82,35
DA:83,1086
DA:84,1086
DA:85,1086
DA:86,1086
DA:87,1086
DA:88,1086
DA:89,1086
DA:90,1086
DA:91,1086
DA:92,1086
DA:93,1086
DA:94,1086
DA:96,35
DA:97,35
DA:98,35
DA:99,35
DA:100,35
DA:101,35
DA:102,35
DA:103,35
DA:104,35
DA:105,35
DA:106,35
DA:107,35
DA:108,35
DA:109,35
DA:111,35
DA:112,35
DA:113,35
DA:114,35
DA:115,35
DA:116,35
DA:117,35
DA:121,19
DA:123,19
DA:124,19
DA:125,19
DA:126,19
DA:127,19
DA:128,19
DA:130,19
DA:131,224
DA:132,19
DA:134,19
DA:135,19
DA:257,0
DA:286,2
DA:287,2
DA:288,2
DA:289,2
DA:290,2
DA:291,2
DA:292,2
DA:293,2
DA:294,2
DA:295,2
DA:299,0
DA:300,0
DA:301,0
DA:302,0
DA:303,0
DA:304,0
DA:305,0
DA:306,0
DA:308,0
DA:309,0
DA:310,0
DA:311,0
DA:312,0
DA:314,0
DA:316,0
DA:317,0
DA:318,0
DA:319,0
DA:322,0
DA:328,0
DA:329,0
DA:331,0
DA:333,0
DA:334,0
DA:335,0
DA:346,32
DA:347,32
DA:348,32
DA:350,32
DA:351,32
DA:352,32
DA:354,32
DA:355,32
DA:356,32
DA:357,32
DA:360,32
DA:361,32
DA:362,32
DA:364,32
DA:365,32
DA:366,32
DA:367,32
DA:368,32
DA:369,32
DA:370,32
DA:371,32
DA:374,32
DA:375,32
DA:376,32
DA:377,32
DA:378,32
DA:380,32
DA:382,2
DA:384,2
DA:385,2
DA:387,2
DA:390,2
DA:391,2
DA:395,1
DA:396,1
DA:397,1
DA:398,1
DA:401,1
DA:402,1
DA:406,1
DA:407,1
DA:409,1
DA:410,1
DA:411,1
DA:412,1
DA:413,1
DA:414,1
DA:415,1
DA:416,1
DA:417,1
DA:419,1
DA:420,1
DA:422,1
DA:423,1
DA:424,1
DA:425,1
DA:426,1
DA:427,1
DA:428,1
DA:429,1
DA:432,1
DA:433,1
DA:435,1
DA:436,1
DA:437,1
DA:438,1
DA:439,1
DA:440,1
DA:441,1
DA:442,1
DA:443,1
DA:445,1
DA:446,1
DA:448,1
DA:449,1
DA:450,1
DA:453,1
DA:454,1
DA:456,1
DA:457,1
DA:458,1
DA:459,1
DA:460,1
DA:461,1
DA:462,1
DA:463,1
DA:464,1
DA:466,1
DA:467,1
DA:469,1
DA:470,1
DA:471,1
DA:472,1
DA:475,1
DA:476,1
DA:478,1
DA:479,1
DA:480,1
DA:481,1
DA:482,1
DA:483,1
DA:484,1
DA:485,1
DA:486,1
DA:489,1
DA:490,1
DA:491,1
DA:495,1
DA:496,1
DA:498,1
DA:499,1
DA:500,1
DA:501,1
DA:502,1
DA:503,1
DA:504,1
DA:505,1
DA:506,1
DA:507,1
DA:508,1
DA:509,1
DA:510,1
DA:511,1
DA:512,1
DA:513,1
DA:514,1
DA:515,1
DA:516,1
DA:517,1
DA:518,1
DA:519,1
DA:520,1
DA:521,1
DA:522,1
DA:523,1
DA:524,1
DA:525,1
DA:526,1
DA:527,1
DA:528,1
DA:529,1
DA:530,1
DA:531,1
DA:532,1
DA:533,1
DA:534,1
DA:535,1
DA:536,1
DA:537,1
DA:538,1
DA:539,1
DA:540,1
DA:541,1
DA:543,1
DA:544,1
DA:546,1
DA:548,1
DA:551,1
DA:552,1
DA:553,1
DA:554,1
DA:557,1
DA:558,1
DA:559,1
DA:560,1
DA:561,1
DA:562,1
DA:565,1
DA:566,1
DA:568,1
DA:569,1
DA:570,1
DA:571,1
DA:572,1
DA:573,1
DA:574,1
DA:575,1
DA:576,1
DA:577,1
DA:578,1
DA:579,1
DA:580,1
DA:581,1
DA:582,1
DA:583,1
DA:584,1
DA:585,1
DA:586,1
DA:587,1
DA:588,1
DA:590,1
DA:591,1
DA:593,1
DA:595,1
DA:597,1
DA:598,1
DA:599,1
DA:600,1
DA:604,1
DA:605,1
DA:608,1
DA:609,1
DA:610,1
DA:611,1
DA:612,1
DA:613,1
DA:614,1
DA:615,1
DA:616,1
DA:619,1
DA:620,1
DA:621,1
DA:624,1
DA:625,1
DA:628,1
DA:629,1
DA:630,1
DA:631,1
DA:632,1
DA:633,1
DA:636,1
DA:637,1
DA:640,1
DA:641,1
DA:642,1
DA:643,1
DA:647,1
DA:648,1
DA:650,1
DA:651,1
DA:652,1
DA:653,1
DA:654,1
DA:655,1
DA:656,1
DA:657,1
DA:658,1
DA:660,1
DA:661,1
DA:663,1
DA:664,1
DA:667,1
DA:668,1
DA:671,1
DA:672,1
DA:675,1
DA:676,1
DA:679,1
DA:680,1
DA:681,1
DA:682,1
DA:683,1
DA:684,1
DA:685,1
DA:686,1
DA:687,1
DA:689,1
DA:690,1
DA:693,1
DA:694,1
DA:695,1
DA:696,1
DA:699,1
DA:700,1
DA:702,1
DA:703,1
DA:704,1
DA:705,1
DA:706,1
DA:707,1
DA:708,1
DA:709,1
DA:710,1
DA:712,1
DA:713,1
DA:714,1
DA:715,1
DA:717,1
DA:718,1
DA:721,1
DA:724,1
DA:725,1
DA:726,1
DA:729,1
DA:730,1
DA:732,1
DA:733,1
DA:734,1
DA:735,1
DA:736,1
DA:737,1
DA:738,1
DA:739,1
DA:740,1
DA:742,1
DA:743,1
DA:745,1
DA:746,1
DA:747,1
DA:748,1
DA:751,1
DA:752,1
DA:754,1
DA:755,1
DA:756,1
DA:757,1
DA:758,1
DA:759,1
DA:760,1
DA:761,1
DA:762,1
DA:764,1
DA:765,1
DA:766,1
DA:767,1
DA:768,1
DA:769,1
DA:770,1
DA:771,1
DA:772,1
DA:774,1
DA:775,1
DA:777,1
DA:778,1
DA:782,1
DA:786,1
DA:787,1
DA:789,1
DA:790,1
DA:791,1
DA:792,1
DA:794,1
DA:795,1
DA:797,1
DA:798,1
DA:799,1
DA:802,1
DA:803,1
DA:805,1
DA:806,1
DA:807,1
DA:808,1
DA:810,1
DA:811,1
DA:814,1
DA:815,1
DA:819,1
DA:820,1
DA:822,1
DA:823,1
DA:825,1
DA:826,1
DA:829,1
DA:830,1
DA:834,1
DA:835,1
DA:837,1
DA:838,1
DA:839,1
DA:840,1
DA:841,1
DA:843,1
DA:845,1
DA:846,1
DA:848,1
DA:849,1
DA:850,1
DA:851,1
DA:854,1
DA:855,1
DA:857,1
DA:858,1
DA:860,1
DA:861,1
DA:862,1
DA:863,1
DA:864,1
DA:865,1
DA:866,1
DA:867,1
DA:869,1
DA:870,1
DA:873,1
DA:874,1
DA:875,1
DA:876,1
DA:879,1
DA:880,1
DA:882,1
DA:883,1
DA:884,1
DA:885,1
DA:887,1
DA:890,1
DA:891,1
DA:892,1
DA:893,1
DA:894,1
DA:898,1
DA:899,1
DA:901,1
DA:902,1
DA:903,1
DA:904,1
DA:905,1
DA:906,1
DA:907,1
DA:910,1
DA:911,1
DA:912,1
DA:913,1
DA:914,1
DA:915,1
DA:916,1
DA:917,1
DA:918,1
DA:920,1
DA:921,1
DA:922,1
DA:923,1
DA:924,1
DA:925,1
DA:926,1
DA:929,1
DA:930,1
DA:931,1
DA:933,1
DA:934,1
DA:935,1
DA:936,1
DA:940,1
DA:941,1
DA:942,1
DA:945,11
DA:946,10
DA:947,10
DA:948,10
DA:949,10
DA:950,10
DA:951,10
DA:952,10
DA:953,10
DA:954,10
DA:955,10
DA:956,10
DA:957,1
DA:958,10
DA:959,10
DA:960,10
DA:961,10
DA:962,1
DA:963,1
DA:964,1
DA:965,11
DA:966,10
DA:967,10
DA:968,1
DA:969,10
DA:970,10
DA:971,1
DA:972,1
DA:975,1
DA:976,1
DA:977,1
DA:980,6
DA:981,5
DA:982,5
DA:983,5
DA:984,1
DA:985,2
DA:986,2
DA:987,2
DA:988,2
DA:989,2
DA:990,2
DA:991,2
DA:992,2
DA:993,2
DA:994,2
DA:995,1
DA:996,1
DA:997,1
DA:998,1
DA:999,1
DA:1000,1
DA:1001,1
DA:1002,1
DA:1003,1
DA:1004,1
DA:1005,1
DA:1006,1
DA:1007,1
DA:1008,1
DA:1009,1
DA:1010,1
DA:1011,1
DA:1012,1
DA:1013,1
DA:1014,1
DA:1015,5
DA:1016,5
DA:1017,1
DA:1018,1
DA:1019,1
DA:1020,6
DA:1021,5
DA:1022,5
DA:1023,1
DA:1024,1
DA:1028,1
DA:1029,1
DA:1031,1
DA:1032,1
DA:1033,1
DA:1034,1
DA:1035,1
DA:1036,1
DA:1037,1
DA:1038,1
DA:1039,1
DA:1040,1
DA:1042,1
DA:1043,1
DA:1045,1
DA:1046,1
DA:1049,1
DA:1050,1
DA:1053,1
DA:1054,1
DA:1056,1
DA:1058,1
DA:1059,1
DA:1060,1
DA:1061,1
DA:1064,6
DA:1065,5
DA:1066,5
DA:1067,5
DA:1068,5
DA:1069,5
DA:1070,5
DA:1071,5
DA:1072,5
DA:1073,5
DA:1074,1
DA:1075,5
DA:1076,5
DA:1077,1
DA:1078,5
DA:1079,5
DA:1080,5
DA:1081,1
DA:1082,1
DA:1085,1
DA:1086,1
DA:1089,1
DA:1090,1
DA:1091,1
DA:1092,1
DA:1093,1
DA:1094,1
DA:1095,1
DA:1096,1
DA:1097,1
DA:1099,1
DA:1100,1
DA:1101,1
DA:1104,1
DA:1105,1
DA:1107,1
DA:1109,1
DA:1110,1
DA:1111,1
DA:1112,1
DA:1113,1
DA:1114,1
DA:1115,1
DA:1118,9
DA:1119,8
DA:1120,8
DA:1121,8
DA:1122,8
DA:1123,8
DA:1124,8
DA:1125,8
DA:1126,8
DA:1127,8
DA:1128,1
DA:1129,8
DA:1130,8
DA:1131,1
DA:1132,8
DA:1133,1
DA:1134,1
DA:1138,1
DA:1139,1
DA:1141,1
DA:1142,1
DA:1143,1
DA:1144,1
DA:1145,1
DA:1146,1
DA:1147,1
DA:1148,1
DA:1149,1
DA:1151,1
DA:1152,1
DA:1153,1
DA:1154,1
DA:1156,1
DA:1157,1
DA:1160,1
DA:1162,1
DA:1163,1
DA:1164,1
DA:1167,1
DA:1168,1
DA:1170,1
DA:1171,1
DA:1172,1
DA:1173,1
DA:1174,1
DA:1175,1
DA:1176,1
DA:1177,1
DA:1178,1
DA:1180,1
DA:1181,1
DA:1183,1
DA:1184,1
DA:1187,1
DA:1189,1
DA:1190,1
DA:1191,1
DA:1192,1
DA:1196,1
DA:1197,1
DA:1200,1
DA:1201,1
DA:1202,1
DA:1203,1
DA:1204,1
DA:1205,1
DA:1206,1
DA:1207,1
DA:1208,1
DA:1210,1
DA:1211,1
DA:1213,1
DA:1216,1
DA:1217,1
DA:1218,1
DA:1219,1
DA:1220,1
DA:1221,1
DA:1224,1
DA:1225,1
DA:1227,1
DA:1230,1
DA:1231,1
DA:1232,1
DA:1233,1
DA:1234,1
DA:1235,1
DA:1236,1
DA:1237,1
DA:1239,1
DA:1240,1
DA:1242,1
DA:1244,1
DA:1245,1
DA:1246,1
DA:1250,1
DA:1251,1
DA:1253,1
DA:1254,1
DA:1255,1
DA:1256,1
DA:1257,1
DA:1258,1
DA:1259,1
DA:1260,1
DA:1261,1
DA:1263,1
DA:1264,1
DA:1267,1
DA:1268,1
DA:1271,1
DA:1272,1
DA:1275,1
DA:1276,1
DA:1277,1
DA:1278,1
DA:1279,1
BRF:0
BRH:0
LF:971
LH:943
end_of_record
SF:/home/nathan/Projects/lens/src/lang.rs
FN:181,_RNvMNtCscx2lCY9pHX3_9lens_core4langNtB2_8Language12should_index
FN:134,_RNvMNtCscx2lCY9pHX3_9lens_core4langNtB2_8Language19identifier_patterns
FN:274,_RNvMs_NtCscx2lCY9pHX3_9lens_core4langNtB4_16LanguageDetector22is_supported_extension
FN:280,_RNvXs0_NtCscx2lCY9pHX3_9lens_core4langNtB5_16LanguageDetectorNtNtCs66KPHxksi63_4core7default7Default7default
FN:286,_RNvXs1_NtCscx2lCY9pHX3_9lens_core4langNtB5_8LanguageNtNtCs66KPHxksi63_4core3fmt7Display3fmt
FN:56,_RNvMNtCscx2lCY9pHX3_9lens_core4langNtB2_8Language10extensions
FN:79,_RNvMNtCscx2lCY9pHX3_9lens_core4langNtB2_8Language10lsp_server
FN:93,_RNvMNtCscx2lCY9pHX3_9lens_core4langNtB2_8Language12display_name
FN:121,_RNvMNtCscx2lCY9pHX3_9lens_core4langNtB2_8Language12search_boost
FN:116,_RNvMNtCscx2lCY9pHX3_9lens_core4langNtB2_8Language12supports_lsp
FN:28,_RNvMNtCscx2lCY9pHX3_9lens_core4langNtB2_8Language14from_extension
FN:235,_RNvMs_NtCscx2lCY9pHX3_9lens_core4langNtB4_16LanguageDetector16detect_from_path
FN:248,_RNvMs_NtCscx2lCY9pHX3_9lens_core4langNtB4_16LanguageDetector19detect_from_content
FN:266,_RNvMs_NtCscx2lCY9pHX3_9lens_core4langNtB4_16LanguageDetector19supported_languages
FN:204,_RNvMs_NtCscx2lCY9pHX3_9lens_core4langNtB4_16LanguageDetector3new
FN:268,_RNCNvMs_NtCscx2lCY9pHX3_9lens_core4langNtB6_16LanguageDetector19supported_languages0B8_
FN:316,_RNvNtNtCscx2lCY9pHX3_9lens_core4lang5testss_16test_lsp_support
FN:339,_RNvNtNtCscx2lCY9pHX3_9lens_core4lang5testss_17test_search_boost
FN:325,_RNvNtNtCscx2lCY9pHX3_9lens_core4lang5testss_22test_content_detection
FN:306,_RNvNtNtCscx2lCY9pHX3_9lens_core4lang5testss_22test_language_detector
FN:347,_RNvNtNtCscx2lCY9pHX3_9lens_core4lang5testss_24test_supported_languages
FN:297,_RNvNtNtCscx2lCY9pHX3_9lens_core4lang5testss_28test_language_from_extension
FNDA:0,_RNvMNtCscx2lCY9pHX3_9lens_core4langNtB2_8Language12should_index
FNDA:0,_RNvMNtCscx2lCY9pHX3_9lens_core4langNtB2_8Language19identifier_patterns
FNDA:0,_RNvMs_NtCscx2lCY9pHX3_9lens_core4langNtB4_16LanguageDetector22is_supported_extension
FNDA:0,_RNvXs0_NtCscx2lCY9pHX3_9lens_core4langNtB5_16LanguageDetectorNtNtCs66KPHxksi63_4core7default7Default7default
FNDA:0,_RNvXs1_NtCscx2lCY9pHX3_9lens_core4langNtB5_8LanguageNtNtCs66KPHxksi63_4core3fmt7Display3fmt
FNDA:48,_RNvMNtCscx2lCY9pHX3_9lens_core4langNtB2_8Language10extensions
FNDA:5,_RNvMNtCscx2lCY9pHX3_9lens_core4langNtB2_8Language10lsp_server
FNDA:248,_RNvMNtCscx2lCY9pHX3_9lens_core4langNtB2_8Language12display_name
FNDA:4,_RNvMNtCscx2lCY9pHX3_9lens_core4langNtB2_8Language12search_boost
FNDA:5,_RNvMNtCscx2lCY9pHX3_9lens_core4langNtB2_8Language12supports_lsp
FNDA:5,_RNvMNtCscx2lCY9pHX3_9lens_core4langNtB2_8Language14from_extension
FNDA:4,_RNvMs_NtCscx2lCY9pHX3_9lens_core4langNtB4_16LanguageDetector16detect_from_path
FNDA:3,_RNvMs_NtCscx2lCY9pHX3_9lens_core4langNtB4_16LanguageDetector19detect_from_content
FNDA:1,_RNvMs_NtCscx2lCY9pHX3_9lens_core4langNtB4_16LanguageDetector19supported_languages
FNDA:3,_RNvMs_NtCscx2lCY9pHX3_9lens_core4langNtB4_16LanguageDetector3new
FNDA:248,_RNCNvMs_NtCscx2lCY9pHX3_9lens_core4langNtB6_16LanguageDetector19supported_languages0B8_
FNDA:1,_RNvNtNtCscx2lCY9pHX3_9lens_core4lang5testss_16test_lsp_support
FNDA:1,_RNvNtNtCscx2lCY9pHX3_9lens_core4lang5testss_17test_search_boost
FNDA:1,_RNvNtNtCscx2lCY9pHX3_9lens_core4lang5testss_22test_content_detection
FNDA:1,_RNvNtNtCscx2lCY9pHX3_9lens_core4lang5testss_22test_language_detector
FNDA:1,_RNvNtNtCscx2lCY9pHX3_9lens_core4lang5testss_24test_supported_languages
FNDA:1,_RNvNtNtCscx2lCY9pHX3_9lens_core4lang5testss_28test_language_from_extension
FNF:22
FNH:17
DA:28,5
DA:29,5
DA:30,5
DA:31,4
DA:32,3
DA:33,3
DA:34,3
DA:35,3
DA:36,3
DA:37,2
DA:38,2
DA:39,1
DA:40,1
DA:41,1
DA:42,1
DA:43,1
DA:44,1
DA:45,1
DA:46,1
DA:47,1
DA:48,1
DA:49,1
DA:50,1
DA:51,1
DA:53,5
DA:56,48
DA:57,48
DA:58,3
DA:59,3
DA:60,3
DA:61,3
DA:62,3
DA:63,3
DA:64,3
DA:65,3
DA:66,3
DA:67,3
DA:68,3
DA:69,3
DA:70,3
DA:71,3
DA:72,3
DA:73,3
DA:74,0
DA:76,48
DA:79,5
DA:80,5
DA:81,1
DA:82,1
DA:83,1
DA:84,1
DA:85,0
DA:86,0
DA:87,0
DA:88,1
DA:90,5
DA:93,248
DA:94,248
DA:95,13
DA:96,15
DA:97,40
DA:98,15
DA:99,10
DA:100,6
DA:101,7
DA:102,31
DA:103,15
DA:104,9
DA:105,8
DA:106,12
DA:107,17
DA:108,14
DA:109,26
DA:110,10
DA:111,0
DA:113,248
DA:116,5
DA:117,5
DA:118,5
DA:121,4
DA:122,4
DA:123,1
DA:124,1
DA:125,0
DA:126,1
DA:127,0
DA:128,0
DA:129,1
DA:131,4
DA:134,0
DA:135,0
DA:136,0
DA:137,0
DA:138,0
DA:139,0
DA:140,0
DA:141,0
DA:142,0
DA:143,0
DA:145,0
DA:146,0
DA:147,0
DA:148,0
DA:149,0
DA:150,0
DA:151,0
DA:152,0
DA:153,0
DA:155,0
DA:156,0
DA:157,0
DA:158,0
DA:159,0
DA:160,0
DA:162,0
DA:163,0
DA:164,0
DA:165,0
DA:166,0
DA:167,0
DA:168,0
DA:170,0
DA:171,0
DA:172,0
DA:173,0
DA:174,0
DA:176,0
DA:178,0
DA:181,0
DA:182,0
DA:183,0
DA:204,3
DA:205,3
DA:208,48
DA:209,3
DA:210,3
DA:211,3
DA:212,3
DA:213,3
DA:214,3
DA:215,3
DA:216,3
DA:217,3
DA:218,3
DA:219,3
DA:220,3
DA:221,3
DA:222,3
DA:223,3
DA:224,3
DA:226,87
DA:227,87
DA:228,87
DA:231,3
DA:232,3
DA:235,4
DA:236,4
DA:237,4
DA:238,4
DA:239,4
DA:240,4
DA:241,4
DA:242,0
DA:243,0
DA:244,0
DA:245,4
DA:248,3
DA:250,3
DA:251,1
DA:252,2
DA:253,1
DA:254,1
DA:255,1
DA:256,0
DA:257,0
DA:258,0
DA:259,0
DA:261,0
DA:263,3
DA:266,1
DA:267,1
DA:268,248
DA:269,1
DA:270,1
DA:271,1
DA:274,0
DA:275,0
DA:276,0
DA:280,0
DA:281,0
DA:282,0
DA:286,0
DA:287,0
DA:288,0
DA:297,1
DA:298,1
DA:299,1
DA:300,1
DA:301,1
DA:302,1
DA:303,1
DA:306,1
DA:307,1
DA:309,1
DA:310,1
DA:311,1
DA:312,1
DA:313,1
DA:316,1
DA:317,1
DA:318,1
DA:319,1
DA:320,1
DA:321,1
DA:322,1
DA:325,1
DA:326,1
DA:328,1
DA:329,1
DA:331,1
DA:332,1
DA:334,1
DA:335,1
DA:336,1
DA:339,1
DA:340,1
DA:341,1
DA:342,1
DA:343,1
DA:344,1
DA:347,1
DA:348,1
DA:349,1
DA:351,1
DA:352,1
DA:353,1
DA:354,1
DA:355,1
BRF:0
BRH:0
LF:239
LH:172
end_of_record
SF:/home/nathan/Projects/lens/src/lib.rs
FN:63,_RNCNCNvCscx2lCY9pHX3_9lens_core10initialize00B5_
FN:58,_RNCNvCscx2lCY9pHX3_9lens_core10initialize0B3_
FN:132,_RNCNvNtCscx2lCY9pHX3_9lens_core5testss_24test_lens_config_default0B5_
FN:155,_RNCNvNtCscx2lCY9pHX3_9lens_core5testss_28test_initialize_in_test_mode0B5_
FN:58,_RNvCscx2lCY9pHX3_9lens_core10initialize
FN:107,_RNvXCscx2lCY9pHX3_9lens_coreNtB2_10LensConfigNtNtCs66KPHxksi63_4core7default7Default7default
FN:146,_RNvNtCscx2lCY9pHX3_9lens_core5testss_22test_lens_config_clone
FN:132,_RNvNtCscx2lCY9pHX3_9lens_core5testss_24test_lens_config_default
FN:170,_RNvNtCscx2lCY9pHX3_9lens_core5testss_25test_built_info_available
FN:155,_RNvNtCscx2lCY9pHX3_9lens_core5testss_28test_initialize_in_test_mode
FN:178,_RNvNtCscx2lCY9pHX3_9lens_core5testss_29test_lens_config_debug_format
FN:186,_RNvNtCscx2lCY9pHX3_9lens_core5testss_29test_lens_config_modification
FNDA:0,_RNCNCNvCscx2lCY9pHX3_9lens_core10initialize00B5_
FNDA:1,_RNCNvCscx2lCY9pHX3_9lens_core10initialize0B3_
FNDA:1,_RNCNvNtCscx2lCY9pHX3_9lens_core5testss_24test_lens_config_default0B5_
FNDA:1,_RNCNvNtCscx2lCY9pHX3_9lens_core5testss_28test_initialize_in_test_mode0B5_
FNDA:1,_RNvCscx2lCY9pHX3_9lens_core10initialize
FNDA:4,_RNvXCscx2lCY9pHX3_9lens_coreNtB2_10LensConfigNtNtCs66KPHxksi63_4core7default7Default7default
FNDA:1,_RNvNtCscx2lCY9pHX3_9lens_core5testss_22test_lens_config_clone
FNDA:1,_RNvNtCscx2lCY9pHX3_9lens_core5testss_24test_lens_config_default
FNDA:1,_RNvNtCscx2lCY9pHX3_9lens_core5testss_25test_built_info_available
FNDA:1,_RNvNtCscx2lCY9pHX3_9lens_core5testss_28test_initialize_in_test_mode
FNDA:1,_RNvNtCscx2lCY9pHX3_9lens_core5testss_29test_lens_config_debug_format
FNDA:1,_RNvNtCscx2lCY9pHX3_9lens_core5testss_29test_lens_config_modification
FNF:12
FNH:11
DA:58,1
DA:60,1
DA:61,1
DA:62,1
DA:63,1
DA:65,1
DA:68,1
DA:69,0
DA:71,1
DA:75,1
DA:76,0
DA:77,0
DA:78,1
DA:80,1
DA:81,1
DA:82,1
DA:83,1
DA:85,1
DA:86,1
DA:107,4
DA:108,4
DA:109,4
DA:110,4
DA:111,4
DA:112,4
DA:113,4
DA:114,4
DA:115,4
DA:116,4
DA:117,4
DA:118,4
DA:119,4
DA:120,4
DA:121,4
DA:122,4
DA:123,4
DA:132,1
DA:133,1
DA:135,1
DA:136,1
DA:137,1
DA:138,1
DA:139,1
DA:140,1
DA:141,1
DA:142,1
DA:143,1
DA:146,1
DA:147,1
DA:148,1
DA:150,1
DA:151,1
DA:152,1
DA:155,1
DA:157,1
DA:160,1
DA:163,1
DA:164,1
DA:165,1
DA:166,1
DA:167,1
DA:170,1
DA:172,1
DA:173,1
DA:174,1
DA:178,1
DA:179,1
DA:180,1
DA:181,1
DA:182,1
DA:183,1
DA:186,1
DA:187,1
DA:188,1
DA:189,1
DA:191,1
DA:192,1
DA:194,1
DA:195,1
DA:196,1
BRF:0
BRH:0
LF:88
LH:83
end_of_record
SF:/home/nathan/Projects/lens/src/lsp/client.rs
FN:497,_RNCNvMNtNtCscx2lCY9pHX3_9lens_core3lsp6clientNtB4_9LspClient4ping0B8_
FN:497,_RNvMNtNtCscx2lCY9pHX3_9lens_core3lsp6clientNtB2_9LspClient4ping
FN:53,_RNCNCNvMNtNtCscx2lCY9pHX3_9lens_core3lsp6clientNtB6_9LspClient22start_response_handler00Ba_
FN:193,_RNCNvMNtNtCscx2lCY9pHX3_9lens_core3lsp6clientNtB4_9LspClient10initialize0B8_
FN:348,_RNCNvMNtNtCscx2lCY9pHX3_9lens_core3lsp6clientNtB4_9LspClient12find_symbols0B8_
FN:180,_RNCNvMNtNtCscx2lCY9pHX3_9lens_core3lsp6clientNtB4_9LspClient12send_message0B8_
FN:135,_RNCNvMNtNtCscx2lCY9pHX3_9lens_core3lsp6clientNtB4_9LspClient12send_request0B8_
FN:283,_RNCNvMNtNtCscx2lCY9pHX3_9lens_core3lsp6clientNtB4_9LspClient14bounded_search0B8_
FN:375,_RNCNvMNtNtCscx2lCY9pHX3_9lens_core3lsp6clientNtB4_9LspClient14get_hover_info0B8_
FN:118,_RNCNvMNtNtCscx2lCY9pHX3_9lens_core3lsp6clientNtB4_9LspClient14handle_message0B8_
FN:333,_RNCNvMNtNtCscx2lCY9pHX3_9lens_core3lsp6clientNtB4_9LspClient15find_references0B8_
FN:300,_RNCNvMNtNtCscx2lCY9pHX3_9lens_core3lsp6clientNtB4_9LspClient16find_definitions0B8_
FN:170,_RNCNvMNtNtCscx2lCY9pHX3_9lens_core3lsp6clientNtB4_9LspClient17send_notification0B8_
FN:343,_RNCNvMNtNtCscx2lCY9pHX3_9lens_core3lsp6clientNtB4_9LspClient20find_implementations0B8_
FN:338,_RNCNvMNtNtCscx2lCY9pHX3_9lens_core3lsp6clientNtB4_9LspClient21find_type_definitions0B8_
FN:48,_RNCNvMNtNtCscx2lCY9pHX3_9lens_core3lsp6clientNtB4_9LspClient22start_response_handler0B8_
FN:380,_RNCNvMNtNtCscx2lCY9pHX3_9lens_core3lsp6clientNtB4_9LspClient23workspace_symbol_search0B8_
FN:30,_RNCNvMNtNtCscx2lCY9pHX3_9lens_core3lsp6clientNtB4_9LspClient3new0B8_
FN:469,_RNCNvMNtNtCscx2lCY9pHX3_9lens_core3lsp6clientNtB4_9LspClient8shutdown0B8_
FN:521,_RNvXs_NtNtCscx2lCY9pHX3_9lens_core3lsp6clientNtB4_9LspClientNtNtNtCs66KPHxksi63_4core3ops4drop4Drop4drop
FN:193,_RNvMNtNtCscx2lCY9pHX3_9lens_core3lsp6clientNtB2_9LspClient10initialize
FN:348,_RNvMNtNtCscx2lCY9pHX3_9lens_core3lsp6clientNtB2_9LspClient12find_symbols
FN:180,_RNvMNtNtCscx2lCY9pHX3_9lens_core3lsp6clientNtB2_9LspClient12send_message
FN:135,_RNvMNtNtCscx2lCY9pHX3_9lens_core3lsp6clientNtB2_9LspClient12send_request
FN:278,_RNvMNtNtCscx2lCY9pHX3_9lens_core3lsp6clientNtB2_9LspClient14bounded_search
FN:375,_RNvMNtNtCscx2lCY9pHX3_9lens_core3lsp6clientNtB2_9LspClient14get_hover_info
FN:115,_RNvMNtNtCscx2lCY9pHX3_9lens_core3lsp6clientNtB2_9LspClient14handle_message
FN:333,_RNvMNtNtCscx2lCY9pHX3_9lens_core3lsp6clientNtB2_9LspClient15find_references
FN:300,_RNvMNtNtCscx2lCY9pHX3_9lens_core3lsp6clientNtB2_9LspClient16find_definitions
FN:170,_RNvMNtNtCscx2lCY9pHX3_9lens_core3lsp6clientNtB2_9LspClient17send_notification
FN:427,_RNvMNtNtCscx2lCY9pHX3_9lens_core3lsp6clientNtB2_9LspClient17string_similarity
FN:410,_RNvMNtNtCscx2lCY9pHX3_9lens_core3lsp6clientNtB2_9LspClient20calculate_confidence
FN:343,_RNvMNtNtCscx2lCY9pHX3_9lens_core3lsp6clientNtB2_9LspClient20find_implementations
FN:442,_RNvMNtNtCscx2lCY9pHX3_9lens_core3lsp6clientNtB2_9LspClient20levenshtein_distance
FN:338,_RNvMNtNtCscx2lCY9pHX3_9lens_core3lsp6clientNtB2_9LspClient21find_type_definitions
FN:48,_RNvMNtNtCscx2lCY9pHX3_9lens_core3lsp6clientNtB2_9LspClient22start_response_handler
FN:380,_RNvMNtNtCscx2lCY9pHX3_9lens_core3lsp6clientNtB2_9LspClient23workspace_symbol_search
FN:30,_RNvMNtNtCscx2lCY9pHX3_9lens_core3lsp6clientNtB2_9LspClient3new
FN:469,_RNvMNtNtCscx2lCY9pHX3_9lens_core3lsp6clientNtB2_9LspClient8shutdown
FNDA:0,_RNCNvMNtNtCscx2lCY9pHX3_9lens_core3lsp6clientNtB4_9LspClient4ping0B8_
FNDA:0,_RNvMNtNtCscx2lCY9pHX3_9lens_core3lsp6clientNtB2_9LspClient4ping
FNDA:66,_RNCNCNvMNtNtCscx2lCY9pHX3_9lens_core3lsp6clientNtB6_9LspClient22start_response_handler00Ba_
FNDA:66,_RNCNvMNtNtCscx2lCY9pHX3_9lens_core3lsp6clientNtB4_9LspClient10initialize0B8_
FNDA:0,_RNCNvMNtNtCscx2lCY9pHX3_9lens_core3lsp6clientNtB4_9LspClient12find_symbols0B8_
FNDA:66,_RNCNvMNtNtCscx2lCY9pHX3_9lens_core3lsp6clientNtB4_9LspClient12send_message0B8_
FNDA:66,_RNCNvMNtNtCscx2lCY9pHX3_9lens_core3lsp6clientNtB4_9LspClient12send_request0B8_
FNDA:0,_RNCNvMNtNtCscx2lCY9pHX3_9lens_core3lsp6clientNtB4_9LspClient14bounded_search0B8_
FNDA:0,_RNCNvMNtNtCscx2lCY9pHX3_9lens_core3lsp6clientNtB4_9LspClient14get_hover_info0B8_
FNDA:0,_RNCNvMNtNtCscx2lCY9pHX3_9lens_core3lsp6clientNtB4_9LspClient14handle_message0B8_
FNDA:0,_RNCNvMNtNtCscx2lCY9pHX3_9lens_core3lsp6clientNtB4_9LspClient15find_references0B8_
FNDA:0,_RNCNvMNtNtCscx2lCY9pHX3_9lens_core3lsp6clientNtB4_9LspClient16find_definitions0B8_
FNDA:0,_RNCNvMNtNtCscx2lCY9pHX3_9lens_core3lsp6clientNtB4_9LspClient17send_notification0B8_
FNDA:0,_RNCNvMNtNtCscx2lCY9pHX3_9lens_core3lsp6clientNtB4_9LspClient20find_implementations0B8_
FNDA:0,_RNCNvMNtNtCscx2lCY9pHX3_9lens_core3lsp6clientNtB4_9LspClient21find_type_definitions0B8_
FNDA:66,_RNCNvMNtNtCscx2lCY9pHX3_9lens_core3lsp6clientNtB4_9LspClient22start_response_handler0B8_
FNDA:0,_RNCNvMNtNtCscx2lCY9pHX3_9lens_core3lsp6clientNtB4_9LspClient23workspace_symbol_search0B8_
FNDA:66,_RNCNvMNtNtCscx2lCY9pHX3_9lens_core3lsp6clientNtB4_9LspClient3new0B8_
FNDA:0,_RNCNvMNtNtCscx2lCY9pHX3_9lens_core3lsp6clientNtB4_9LspClient8shutdown0B8_
FNDA:66,_RNvXs_NtNtCscx2lCY9pHX3_9lens_core3lsp6clientNtB4_9LspClientNtNtNtCs66KPHxksi63_4core3ops4drop4Drop4drop
FNDA:66,_RNvMNtNtCscx2lCY9pHX3_9lens_core3lsp6clientNtB2_9LspClient10initialize
FNDA:0,_RNvMNtNtCscx2lCY9pHX3_9lens_core3lsp6clientNtB2_9LspClient12find_symbols
FNDA:66,_RNvMNtNtCscx2lCY9pHX3_9lens_core3lsp6clientNtB2_9LspClient12send_message
FNDA:66,_RNvMNtNtCscx2lCY9pHX3_9lens_core3lsp6clientNtB2_9LspClient12send_request
FNDA:0,_RNvMNtNtCscx2lCY9pHX3_9lens_core3lsp6clientNtB2_9LspClient14bounded_search
FNDA:0,_RNvMNtNtCscx2lCY9pHX3_9lens_core3lsp6clientNtB2_9LspClient14get_hover_info
FNDA:0,_RNvMNtNtCscx2lCY9pHX3_9lens_core3lsp6clientNtB2_9LspClient14handle_message
FNDA:0,_RNvMNtNtCscx2lCY9pHX3_9lens_core3lsp6clientNtB2_9LspClient15find_references
FNDA:0,_RNvMNtNtCscx2lCY9pHX3_9lens_core3lsp6clientNtB2_9LspClient16find_definitions
FNDA:0,_RNvMNtNtCscx2lCY9pHX3_9lens_core3lsp6clientNtB2_9LspClient17send_notification
FNDA:0,_RNvMNtNtCscx2lCY9pHX3_9lens_core3lsp6clientNtB2_9LspClient17string_similarity
FNDA:0,_RNvMNtNtCscx2lCY9pHX3_9lens_core3lsp6clientNtB2_9LspClient20calculate_confidence
FNDA:0,_RNvMNtNtCscx2lCY9pHX3_9lens_core3lsp6clientNtB2_9LspClient20find_implementations
FNDA:0,_RNvMNtNtCscx2lCY9pHX3_9lens_core3lsp6clientNtB2_9LspClient20levenshtein_distance
FNDA:0,_RNvMNtNtCscx2lCY9pHX3_9lens_core3lsp6clientNtB2_9LspClient21find_type_definitions
FNDA:66,_RNvMNtNtCscx2lCY9pHX3_9lens_core3lsp6clientNtB2_9LspClient22start_response_handler
FNDA:0,_RNvMNtNtCscx2lCY9pHX3_9lens_core3lsp6clientNtB2_9LspClient23workspace_symbol_search
FNDA:66,_RNvMNtNtCscx2lCY9pHX3_9lens_core3lsp6clientNtB2_9LspClient3new
FNDA:0,_RNvMNtNtCscx2lCY9pHX3_9lens_core3lsp6clientNtB2_9LspClient8shutdown
FNF:39
FNH:12
DA:30,66
DA:31,66
DA:32,66
DA:33,66
DA:34,66
DA:35,66
DA:36,66
DA:37,66
DA:38,66
DA:39,66
DA:40,66
DA:43,66
DA:45,66
DA:46,66
DA:48,66
DA:49,66
DA:50,66
DA:51,66
DA:53,66
DA:54,66
DA:55,66
DA:59,66
DA:60,0
DA:61,0
DA:62,66
DA:63,66
DA:64,66
DA:65,66
DA:67,0
DA:68,0
DA:69,0
DA:72,0
DA:74,0
DA:75,0
DA:76,0
DA:77,0
DA:78,0
DA:79,0
DA:81,0
DA:83,0
DA:84,0
DA:87,0
DA:88,0
DA:89,0
DA:90,0
DA:91,0
DA:92,0
DA:93,0
DA:94,0
DA:95,0
DA:96,0
DA:98,0
DA:99,0
DA:100,0
DA:104,66
DA:108,66
DA:109,66
DA:112,66
DA:113,66
DA:115,0
DA:116,0
DA:117,0
DA:118,0
DA:119,0
DA:121,0
DA:123,0
DA:124,0
DA:125,0
DA:126,0
DA:127,0
DA:128,0
DA:131,0
DA:133,0
DA:135,66
DA:136,66
DA:138,66
DA:142,66
DA:143,66
DA:147,66
DA:148,66
DA:149,66
DA:150,66
DA:151,66
DA:154,66
DA:157,66
DA:158,0
DA:159,0
DA:160,0
DA:161,0
DA:163,0
DA:165,0
DA:166,66
DA:168,66
DA:170,0
DA:171,0
DA:172,0
DA:173,0
DA:174,0
DA:177,0
DA:178,0
DA:180,66
DA:181,66
DA:182,66
DA:184,66
DA:185,66
DA:186,66
DA:187,66
DA:189,66
DA:190,66
DA:191,66
DA:193,66
DA:194,66
DA:195,66
DA:196,66
DA:197,66
DA:198,66
DA:199,66
DA:200,66
DA:201,66
DA:202,66
DA:203,66
DA:204,66
DA:205,66
DA:206,66
DA:207,66
DA:208,66
DA:209,66
DA:210,66
DA:211,66
DA:212,66
DA:213,66
DA:214,66
DA:215,66
DA:216,66
DA:217,66
DA:218,66
DA:219,66
DA:220,66
DA:221,66
DA:222,66
DA:223,66
DA:224,66
DA:225,66
DA:226,66
DA:227,66
DA:228,66
DA:229,66
DA:230,66
DA:231,66
DA:232,66
DA:233,66
DA:234,66
DA:235,66
DA:236,66
DA:237,66
DA:238,66
DA:239,66
DA:240,66
DA:241,66
DA:242,66
DA:244,66
DA:245,66
DA:246,66
DA:247,66
DA:248,66
DA:249,66
DA:250,66
DA:251,66
DA:252,66
DA:253,66
DA:254,66
DA:255,66
DA:256,66
DA:259,66
DA:261,0
DA:262,0
DA:263,0
DA:264,0
DA:267,0
DA:270,0
DA:271,0
DA:274,0
DA:275,0
DA:276,66
DA:278,0
DA:279,0
DA:280,0
DA:281,0
DA:282,0
DA:283,0
DA:284,0
DA:285,0
DA:286,0
DA:287,0
DA:289,0
DA:290,0
DA:291,0
DA:292,0
DA:293,0
DA:294,0
DA:295,0
DA:296,0
DA:298,0
DA:300,0
DA:303,0
DA:305,0
DA:306,0
DA:307,0
DA:308,0
DA:309,0
DA:310,0
DA:311,0
DA:312,0
DA:313,0
DA:314,0
DA:315,0
DA:316,0
DA:317,0
DA:318,0
DA:319,0
DA:320,0
DA:321,0
DA:322,0
DA:325,0
DA:326,0
DA:327,0
DA:330,0
DA:331,0
DA:333,0
DA:335,0
DA:336,0
DA:338,0
DA:340,0
DA:341,0
DA:343,0
DA:345,0
DA:346,0
DA:348,0
DA:349,0
DA:351,0
DA:352,0
DA:353,0
DA:354,0
DA:355,0
DA:356,0
DA:357,0
DA:358,0
DA:359,0
DA:360,0
DA:361,0
DA:362,0
DA:363,0
DA:364,0
DA:365,0
DA:366,0
DA:367,0
DA:368,0
DA:372,0
DA:373,0
DA:375,0
DA:377,0
DA:378,0
DA:380,0
DA:381,0
DA:382,0
DA:383,0
DA:384,0
DA:385,0
DA:386,0
DA:388,0
DA:389,0
DA:390,0
DA:391,0
DA:392,0
DA:394,0
DA:396,0
DA:397,0
DA:398,0
DA:399,0
DA:400,0
DA:401,0
DA:403,0
DA:404,0
DA:405,0
DA:408,0
DA:410,0
DA:411,0
DA:412,0
DA:414,0
DA:415,0
DA:416,0
DA:417,0
DA:418,0
DA:419,0
DA:422,0
DA:423,0
DA:425,0
DA:427,0
DA:429,0
DA:430,0
DA:432,0
DA:433,0
DA:434,0
DA:436,0
DA:437,0
DA:439,0
DA:440,0
DA:442,0
DA:443,0
DA:444,0
DA:445,0
DA:446,0
DA:448,0
DA:450,0
DA:451,0
DA:452,0
DA:453,0
DA:454,0
DA:455,0
DA:457,0
DA:458,0
DA:459,0
DA:460,0
DA:461,0
DA:462,0
DA:466,0
DA:467,0
DA:469,0
DA:471,0
DA:474,0
DA:475,0
DA:476,0
DA:478,0
DA:479,0
DA:480,0
DA:481,0
DA:482,0
DA:484,0
DA:485,0
DA:486,0
DA:487,0
DA:489,0
DA:490,0
DA:491,0
DA:493,0
DA:494,0
DA:497,0
DA:498,0
DA:499,0
DA:500,0
DA:501,0
DA:504,0
DA:505,0
DA:506,0
DA:508,0
DA:509,0
DA:510,0
DA:513,0
DA:514,0
DA:517,0
DA:521,66
DA:523,66
DA:528,66
DA:529,66
DA:530,0
DA:531,66
BRF:0
BRH:0
LF:384
LH:131
end_of_record
SF:/home/nathan/Projects/lens/src/lsp/hint.rs
FN:143,_RNvMs1_NtNtCscx2lCY9pHX3_9lens_core3lsp4hintNtB5_10CacheStats25meets_performance_targets
FN:483,_RNCNCNCNCNvMs3_NtNtCscx2lCY9pHX3_9lens_core3lsp4hintNtBd_9HintCache23start_invalidation_task0000Bh_
FN:324,_RNCNCNCNvMs3_NtNtCscx2lCY9pHX3_9lens_core3lsp4hintNtBb_9HintCache15invalidate_file000Bf_
FN:482,_RNCNCNCNvMs3_NtNtCscx2lCY9pHX3_9lens_core3lsp4hintNtBb_9HintCache23start_invalidation_task000Bf_
FN:323,_RNCNCNvMs3_NtNtCscx2lCY9pHX3_9lens_core3lsp4hintNtB9_9HintCache15invalidate_file00Bd_
FN:417,_RNCNCNvMs3_NtNtCscx2lCY9pHX3_9lens_core3lsp4hintNtB9_9HintCache18start_cleanup_task00Bd_
FN:457,_RNCNCNvMs3_NtNtCscx2lCY9pHX3_9lens_core3lsp4hintNtB9_9HintCache23start_invalidation_task00Bd_
FN:108,_RNCNvMs0_NtNtCscx2lCY9pHX3_9lens_core3lsp4hintNtB7_11FileTracker11has_changed0Bb_
FN:99,_RNCNvMs0_NtNtCscx2lCY9pHX3_9lens_core3lsp4hintNtB7_11FileTracker3new0Bb_
FN:248,_RNCNvMs3_NtNtCscx2lCY9pHX3_9lens_core3lsp4hintNtB7_9HintCache12get_internal0Bb_
FN:293,_RNCNvMs3_NtNtCscx2lCY9pHX3_9lens_core3lsp4hintNtB7_9HintCache12set_internal0Bb_
FN:318,_RNCNvMs3_NtNtCscx2lCY9pHX3_9lens_core3lsp4hintNtB7_9HintCache15invalidate_file0Bb_
FN:413,_RNCNvMs3_NtNtCscx2lCY9pHX3_9lens_core3lsp4hintNtB7_9HintCache18start_cleanup_task0Bb_
FN:452,_RNCNvMs3_NtNtCscx2lCY9pHX3_9lens_core3lsp4hintNtB7_9HintCache23start_invalidation_task0Bb_
FN:367,_RNCNvMs3_NtNtCscx2lCY9pHX3_9lens_core3lsp4hintNtB7_9HintCache24track_files_from_results0Bb_
FN:232,_RNCNvMs3_NtNtCscx2lCY9pHX3_9lens_core3lsp4hintNtB7_9HintCache3get0Bb_
FN:206,_RNCNvMs3_NtNtCscx2lCY9pHX3_9lens_core3lsp4hintNtB7_9HintCache3new0Bb_
FN:278,_RNCNvMs3_NtNtCscx2lCY9pHX3_9lens_core3lsp4hintNtB7_9HintCache3set0Bb_
FN:347,_RNCNvMs3_NtNtCscx2lCY9pHX3_9lens_core3lsp4hintNtB7_9HintCache5clear0Bb_
FN:362,_RNCNvMs3_NtNtCscx2lCY9pHX3_9lens_core3lsp4hintNtB7_9HintCache5stats0Bb_
FN:522,_RNCNvMs3_NtNtCscx2lCY9pHX3_9lens_core3lsp4hintNtB7_9HintCache8shutdown0Bb_
FN:385,_RNCNvMs3_NtNtCscx2lCY9pHX3_9lens_core3lsp4hintNtB7_9HintCache9evict_lru0Bb_
FN:540,_RNvXs4_NtNtCscx2lCY9pHX3_9lens_core3lsp4hintNtB5_9HintCacheNtNtNtCs66KPHxksi63_4core3ops4drop4Drop4drop
FN:1104,_RNvNtNtNtCscx2lCY9pHX3_9lens_core3lsp4hint5testss_15test_cache_drop
FN:882,_RNvNtNtNtCscx2lCY9pHX3_9lens_core3lsp4hint5testss_16test_cache_clear
FN:648,_RNvNtNtNtCscx2lCY9pHX3_9lens_core3lsp4hint5testss_17test_lru_eviction
FN:1076,_RNvNtNtNtCscx2lCY9pHX3_9lens_core3lsp4hint5testss_19test_cache_shutdown
FN:756,_RNvNtNtNtCscx2lCY9pHX3_9lens_core3lsp4hint5testss_20test_cached_hint_age
FN:619,_RNvNtNtNtCscx2lCY9pHX3_9lens_core3lsp4hint5testss_21test_cache_expiration
FN:684,_RNvNtNtNtCscx2lCY9pHX3_9lens_core3lsp4hint5testss_21test_hint_type_as_str
FN:799,_RNvNtNtNtCscx2lCY9pHX3_9lens_core3lsp4hint5testss_22test_cache_stats_clone
FN:739,_RNvNtNtNtCscx2lCY9pHX3_9lens_core3lsp4hint5testss_22test_cached_hint_touch
FN:696,_RNvNtNtNtCscx2lCY9pHX3_9lens_core3lsp4hint5testss_23test_hint_type_equality
FN:773,_RNvNtNtNtCscx2lCY9pHX3_9lens_core3lsp4hint5testss_25test_cache_stats_hit_rate
FN:702,_RNvNtNtNtCscx2lCY9pHX3_9lens_core3lsp4hint5testss_25test_cached_hint_creation
FN:1036,_RNvNtNtNtCscx2lCY9pHX3_9lens_core3lsp4hint5testss_25test_symbol_hint_creation
FN:915,_RNvNtNtNtCscx2lCY9pHX3_9lens_core3lsp4hint5testss_26test_cache_invalidate_file
FN:1194,_RNvNtNtNtCscx2lCY9pHX3_9lens_core3lsp4hint5testss_26test_empty_results_caching
FN:812,_RNvNtNtNtCscx2lCY9pHX3_9lens_core3lsp4hint5testss_26test_file_tracker_creation
FN:586,_RNvNtNtNtCscx2lCY9pHX3_9lens_core3lsp4hint5testss_27test_cache_basic_operations
FN:727,_RNvNtNtNtCscx2lCY9pHX3_9lens_core3lsp4hint5testss_27test_cached_hint_expiration
FN:984,_RNvNtNtNtCscx2lCY9pHX3_9lens_core3lsp4hint5testss_28test_cache_concurrent_access
FN:1124,_RNvNtNtNtCscx2lCY9pHX3_9lens_core3lsp4hint5testss_28test_large_cache_performance
FN:860,_RNvNtNtNtCscx2lCY9pHX3_9lens_core3lsp4hint5testss_30test_file_tracker_missing_file
FN:1112,_RNvNtNtNtCscx2lCY9pHX3_9lens_core3lsp4hint5testss_32test_cache_evict_lru_empty_cache
FN:960,_RNvNtNtNtCscx2lCY9pHX3_9lens_core3lsp4hint5testss_34test_cache_memory_usage_estimation
FN:833,_RNvNtNtNtCscx2lCY9pHX3_9lens_core3lsp4hint5testss_34test_file_tracker_change_detection
FN:1057,_RNvNtNtNtCscx2lCY9pHX3_9lens_core3lsp4hint5testss_37test_symbol_hint_with_optional_fields
FN:1162,_RNvNtNtNtCscx2lCY9pHX3_9lens_core3lsp4hint5testss_38test_cache_key_with_special_characters
FN:1003,_RNCNCNvNtNtNtCscx2lCY9pHX3_9lens_core3lsp4hint5testss_28test_cache_concurrent_access00Bb_
FN:1020,_RNCNCNvNtNtNtCscx2lCY9pHX3_9lens_core3lsp4hint5testss_28test_cache_concurrent_access0s_0Bb_
FN:1104,_RNCNvNtNtNtCscx2lCY9pHX3_9lens_core3lsp4hint5testss_15test_cache_drop0B9_
FN:882,_RNCNvNtNtNtCscx2lCY9pHX3_9lens_core3lsp4hint5testss_16test_cache_clear0B9_
FN:648,_RNCNvNtNtNtCscx2lCY9pHX3_9lens_core3lsp4hint5testss_17test_lru_eviction0B9_
FN:1076,_RNCNvNtNtNtCscx2lCY9pHX3_9lens_core3lsp4hint5testss_19test_cache_shutdown0B9_
FN:756,_RNCNvNtNtNtCscx2lCY9pHX3_9lens_core3lsp4hint5testss_20test_cached_hint_age0B9_
FN:619,_RNCNvNtNtNtCscx2lCY9pHX3_9lens_core3lsp4hint5testss_21test_cache_expiration0B9_
FN:684,_RNCNvNtNtNtCscx2lCY9pHX3_9lens_core3lsp4hint5testss_21test_hint_type_as_str0B9_
FN:799,_RNCNvNtNtNtCscx2lCY9pHX3_9lens_core3lsp4hint5testss_22test_cache_stats_clone0B9_
FN:739,_RNCNvNtNtNtCscx2lCY9pHX3_9lens_core3lsp4hint5testss_22test_cached_hint_touch0B9_
FN:696,_RNCNvNtNtNtCscx2lCY9pHX3_9lens_core3lsp4hint5testss_23test_hint_type_equality0B9_
FN:773,_RNCNvNtNtNtCscx2lCY9pHX3_9lens_core3lsp4hint5testss_25test_cache_stats_hit_rate0B9_
FN:702,_RNCNvNtNtNtCscx2lCY9pHX3_9lens_core3lsp4hint5testss_25test_cached_hint_creation0B9_
FN:1036,_RNCNvNtNtNtCscx2lCY9pHX3_9lens_core3lsp4hint5testss_25test_symbol_hint_creation0B9_
FN:915,_RNCNvNtNtNtCscx2lCY9pHX3_9lens_core3lsp4hint5testss_26test_cache_invalidate_file0B9_
FN:1194,_RNCNvNtNtNtCscx2lCY9pHX3_9lens_core3lsp4hint5testss_26test_empty_results_caching0B9_
FN:812,_RNCNvNtNtNtCscx2lCY9pHX3_9lens_core3lsp4hint5testss_26test_file_tracker_creation0B9_
FN:586,_RNCNvNtNtNtCscx2lCY9pHX3_9lens_core3lsp4hint5testss_27test_cache_basic_operations0B9_
FN:727,_RNCNvNtNtNtCscx2lCY9pHX3_9lens_core3lsp4hint5testss_27test_cached_hint_expiration0B9_
FN:984,_RNCNvNtNtNtCscx2lCY9pHX3_9lens_core3lsp4hint5testss_28test_cache_concurrent_access0B9_
FN:1124,_RNCNvNtNtNtCscx2lCY9pHX3_9lens_core3lsp4hint5testss_28test_large_cache_performance0B9_
FN:860,_RNCNvNtNtNtCscx2lCY9pHX3_9lens_core3lsp4hint5testss_30test_file_tracker_missing_file0B9_
FN:1112,_RNCNvNtNtNtCscx2lCY9pHX3_9lens_core3lsp4hint5testss_32test_cache_evict_lru_empty_cache0B9_
FN:960,_RNCNvNtNtNtCscx2lCY9pHX3_9lens_core3lsp4hint5testss_34test_cache_memory_usage_estimation0B9_
FN:833,_RNCNvNtNtNtCscx2lCY9pHX3_9lens_core3lsp4hint5testss_34test_file_tracker_change_detection0B9_
FN:1057,_RNCNvNtNtNtCscx2lCY9pHX3_9lens_core3lsp4hint5testss_37test_symbol_hint_with_optional_fields0B9_
FN:1162,_RNCNvNtNtNtCscx2lCY9pHX3_9lens_core3lsp4hint5testss_38test_cache_key_with_special_characters0B9_
FN:36,_RNvMNtNtCscx2lCY9pHX3_9lens_core3lsp4hintNtB2_8HintType6as_str
FN:108,_RNvMs0_NtNtCscx2lCY9pHX3_9lens_core3lsp4hintNtB5_11FileTracker11has_changed
FN:99,_RNvMs0_NtNtCscx2lCY9pHX3_9lens_core3lsp4hintNtB5_11FileTracker3new
FN:135,_RNvMs1_NtNtCscx2lCY9pHX3_9lens_core3lsp4hintNtB5_10CacheStats15update_hit_rate
FN:153,_RNvMs2_NtNtCscx2lCY9pHX3_9lens_core3lsp4hintNtB5_10CacheStats18calculate_hit_rate
FN:162,_RNvMs2_NtNtCscx2lCY9pHX3_9lens_core3lsp4hintNtB5_10CacheStats20update_lookup_timing
FN:173,_RNvMs2_NtNtCscx2lCY9pHX3_9lens_core3lsp4hintNtB5_10CacheStats21update_storage_timing
FN:248,_RNvMs3_NtNtCscx2lCY9pHX3_9lens_core3lsp4hintNtB5_9HintCache12get_internal
FN:293,_RNvMs3_NtNtCscx2lCY9pHX3_9lens_core3lsp4hintNtB5_9HintCache12set_internal
FN:318,_RNvMs3_NtNtCscx2lCY9pHX3_9lens_core3lsp4hintNtB5_9HintCache15invalidate_file
FN:413,_RNvMs3_NtNtCscx2lCY9pHX3_9lens_core3lsp4hintNtB5_9HintCache18start_cleanup_task
FN:516,_RNvMs3_NtNtCscx2lCY9pHX3_9lens_core3lsp4hintNtB5_9HintCache21estimate_memory_usage
FN:452,_RNvMs3_NtNtCscx2lCY9pHX3_9lens_core3lsp4hintNtB5_9HintCache23start_invalidation_task
FN:367,_RNvMs3_NtNtCscx2lCY9pHX3_9lens_core3lsp4hintNtB5_9HintCache24track_files_from_results
FN:232,_RNvMs3_NtNtCscx2lCY9pHX3_9lens_core3lsp4hintNtB5_9HintCache3get
FN:206,_RNvMs3_NtNtCscx2lCY9pHX3_9lens_core3lsp4hintNtB5_9HintCache3new
FN:278,_RNvMs3_NtNtCscx2lCY9pHX3_9lens_core3lsp4hintNtB5_9HintCache3set
FN:347,_RNvMs3_NtNtCscx2lCY9pHX3_9lens_core3lsp4hintNtB5_9HintCache5clear
FN:362,_RNvMs3_NtNtCscx2lCY9pHX3_9lens_core3lsp4hintNtB5_9HintCache5stats
FN:522,_RNvMs3_NtNtCscx2lCY9pHX3_9lens_core3lsp4hintNtB5_9HintCache8shutdown
FN:385,_RNvMs3_NtNtCscx2lCY9pHX3_9lens_core3lsp4hintNtB5_9HintCache9evict_lru
FN:559,_RNvMs5_NtNtCscx2lCY9pHX3_9lens_core3lsp4hintNtB5_10SymbolHint3new
FN:74,_RNvMs_NtNtCscx2lCY9pHX3_9lens_core3lsp4hintNtB4_10CachedHint10is_expired
FN:84,_RNvMs_NtNtCscx2lCY9pHX3_9lens_core3lsp4hintNtB4_10CachedHint11age_seconds
FN:62,_RNvMs_NtNtCscx2lCY9pHX3_9lens_core3lsp4hintNtB4_10CachedHint3new
FN:79,_RNvMs_NtNtCscx2lCY9pHX3_9lens_core3lsp4hintNtB4_10CachedHint5touch
FNDA:0,_RNvMs1_NtNtCscx2lCY9pHX3_9lens_core3lsp4hintNtB5_10CacheStats25meets_performance_targets
FNDA:0,_RNCNCNCNCNvMs3_NtNtCscx2lCY9pHX3_9lens_core3lsp4hintNtBd_9HintCache23start_invalidation_task0000Bh_
FNDA:2,_RNCNCNCNvMs3_NtNtCscx2lCY9pHX3_9lens_core3lsp4hintNtBb_9HintCache15invalidate_file000Bf_
FNDA:0,_RNCNCNCNvMs3_NtNtCscx2lCY9pHX3_9lens_core3lsp4hintNtBb_9HintCache23start_invalidation_task000Bf_
FNDA:2,_RNCNCNvMs3_NtNtCscx2lCY9pHX3_9lens_core3lsp4hintNtB9_9HintCache15invalidate_file00Bd_
FNDA:76,_RNCNCNvMs3_NtNtCscx2lCY9pHX3_9lens_core3lsp4hintNtB9_9HintCache18start_cleanup_task00Bd_
FNDA:76,_RNCNCNvMs3_NtNtCscx2lCY9pHX3_9lens_core3lsp4hintNtB9_9HintCache23start_invalidation_task00Bd_
FNDA:4,_RNCNvMs0_NtNtCscx2lCY9pHX3_9lens_core3lsp4hintNtB7_11FileTracker11has_changed0Bb_
FNDA:1032,_RNCNvMs0_NtNtCscx2lCY9pHX3_9lens_core3lsp4hintNtB7_11FileTracker3new0Bb_
FNDA:1030,_RNCNvMs3_NtNtCscx2lCY9pHX3_9lens_core3lsp4hintNtB7_9HintCache12get_internal0Bb_
FNDA:1029,_RNCNvMs3_NtNtCscx2lCY9pHX3_9lens_core3lsp4hintNtB7_9HintCache12set_internal0Bb_
FNDA:1,_RNCNvMs3_NtNtCscx2lCY9pHX3_9lens_core3lsp4hintNtB7_9HintCache15invalidate_file0Bb_
FNDA:79,_RNCNvMs3_NtNtCscx2lCY9pHX3_9lens_core3lsp4hintNtB7_9HintCache18start_cleanup_task0Bb_
FNDA:79,_RNCNvMs3_NtNtCscx2lCY9pHX3_9lens_core3lsp4hintNtB7_9HintCache23start_invalidation_task0Bb_
FNDA:1029,_RNCNvMs3_NtNtCscx2lCY9pHX3_9lens_core3lsp4hintNtB7_9HintCache24track_files_from_results0Bb_
FNDA:1030,_RNCNvMs3_NtNtCscx2lCY9pHX3_9lens_core3lsp4hintNtB7_9HintCache3get0Bb_
FNDA:79,_RNCNvMs3_NtNtCscx2lCY9pHX3_9lens_core3lsp4hintNtB7_9HintCache3new0Bb_
FNDA:1029,_RNCNvMs3_NtNtCscx2lCY9pHX3_9lens_core3lsp4hintNtB7_9HintCache3set0Bb_
FNDA:1,_RNCNvMs3_NtNtCscx2lCY9pHX3_9lens_core3lsp4hintNtB7_9HintCache5clear0Bb_
FNDA:10,_RNCNvMs3_NtNtCscx2lCY9pHX3_9lens_core3lsp4hintNtB7_9HintCache5stats0Bb_
FNDA:1,_RNCNvMs3_NtNtCscx2lCY9pHX3_9lens_core3lsp4hintNtB7_9HintCache8shutdown0Bb_
FNDA:2,_RNCNvMs3_NtNtCscx2lCY9pHX3_9lens_core3lsp4hintNtB7_9HintCache9evict_lru0Bb_
FNDA:79,_RNvXs4_NtNtCscx2lCY9pHX3_9lens_core3lsp4hintNtB5_9HintCacheNtNtNtCs66KPHxksi63_4core3ops4drop4Drop4drop
FNDA:1,_RNvNtNtNtCscx2lCY9pHX3_9lens_core3lsp4hint5testss_15test_cache_drop
FNDA:1,_RNvNtNtNtCscx2lCY9pHX3_9lens_core3lsp4hint5testss_16test_cache_clear
FNDA:1,_RNvNtNtNtCscx2lCY9pHX3_9lens_core3lsp4hint5testss_17test_lru_eviction
FNDA:1,_RNvNtNtNtCscx2lCY9pHX3_9lens_core3lsp4hint5testss_19test_cache_shutdown
FNDA:1,_RNvNtNtNtCscx2lCY9pHX3_9lens_core3lsp4hint5testss_20test_cached_hint_age
FNDA:1,_RNvNtNtNtCscx2lCY9pHX3_9lens_core3lsp4hint5testss_21test_cache_expiration
FNDA:1,_RNvNtNtNtCscx2lCY9pHX3_9lens_core3lsp4hint5testss_21test_hint_type_as_str
FNDA:1,_RNvNtNtNtCscx2lCY9pHX3_9lens_core3lsp4hint5testss_22test_cache_stats_clone
FNDA:1,_RNvNtNtNtCscx2lCY9pHX3_9lens_core3lsp4hint5testss_22test_cached_hint_touch
FNDA:1,_RNvNtNtNtCscx2lCY9pHX3_9lens_core3lsp4hint5testss_23test_hint_type_equality
FNDA:1,_RNvNtNtNtCscx2lCY9pHX3_9lens_core3lsp4hint5testss_25test_cache_stats_hit_rate
FNDA:1,_RNvNtNtNtCscx2lCY9pHX3_9lens_core3lsp4hint5testss_25test_cached_hint_creation
FNDA:1,_RNvNtNtNtCscx2lCY9pHX3_9lens_core3lsp4hint5testss_25test_symbol_hint_creation
FNDA:1,_RNvNtNtNtCscx2lCY9pHX3_9lens_core3lsp4hint5testss_26test_cache_invalidate_file
FNDA:1,_RNvNtNtNtCscx2lCY9pHX3_9lens_core3lsp4hint5testss_26test_empty_results_caching
FNDA:1,_RNvNtNtNtCscx2lCY9pHX3_9lens_core3lsp4hint5testss_26test_file_tracker_creation
FNDA:1,_RNvNtNtNtCscx2lCY9pHX3_9lens_core3lsp4hint5testss_27test_cache_basic_operations
FNDA:1,_RNvNtNtNtCscx2lCY9pHX3_9lens_core3lsp4hint5testss_27test_cached_hint_expiration
FNDA:1,_RNvNtNtNtCscx2lCY9pHX3_9lens_core3lsp4hint5testss_28test_cache_concurrent_access
FNDA:1,_RNvNtNtNtCscx2lCY9pHX3_9lens_core3lsp4hint5testss_28test_large_cache_performance
FNDA:1,_RNvNtNtNtCscx2lCY9pHX3_9lens_core3lsp4hint5testss_30test_file_tracker_missing_file
FNDA:1,_RNvNtNtNtCscx2lCY9pHX3_9lens_core3lsp4hint5testss_32test_cache_evict_lru_empty_cache
FNDA:1,_RNvNtNtNtCscx2lCY9pHX3_9lens_core3lsp4hint5testss_34test_cache_memory_usage_estimation
FNDA:1,_RNvNtNtNtCscx2lCY9pHX3_9lens_core3lsp4hint5testss_34test_file_tracker_change_detection
FNDA:1,_RNvNtNtNtCscx2lCY9pHX3_9lens_core3lsp4hint5testss_37test_symbol_hint_with_optional_fields
FNDA:1,_RNvNtNtNtCscx2lCY9pHX3_9lens_core3lsp4hint5testss_38test_cache_key_with_special_characters
FNDA:10,_RNCNCNvNtNtNtCscx2lCY9pHX3_9lens_core3lsp4hint5testss_28test_cache_concurrent_access00Bb_
FNDA:10,_RNCNCNvNtNtNtCscx2lCY9pHX3_9lens_core3lsp4hint5testss_28test_cache_concurrent_access0s_0Bb_
FNDA:1,_RNCNvNtNtNtCscx2lCY9pHX3_9lens_core3lsp4hint5testss_15test_cache_drop0B9_
FNDA:1,_RNCNvNtNtNtCscx2lCY9pHX3_9lens_core3lsp4hint5testss_16test_cache_clear0B9_
FNDA:1,_RNCNvNtNtNtCscx2lCY9pHX3_9lens_core3lsp4hint5testss_17test_lru_eviction0B9_
FNDA:1,_RNCNvNtNtNtCscx2lCY9pHX3_9lens_core3lsp4hint5testss_19test_cache_shutdown0B9_
FNDA:1,_RNCNvNtNtNtCscx2lCY9pHX3_9lens_core3lsp4hint5testss_20test_cached_hint_age0B9_
FNDA:1,_RNCNvNtNtNtCscx2lCY9pHX3_9lens_core3lsp4hint5testss_21test_cache_expiration0B9_
FNDA:1,_RNCNvNtNtNtCscx2lCY9pHX3_9lens_core3lsp4hint5testss_21test_hint_type_as_str0B9_
FNDA:1,_RNCNvNtNtNtCscx2lCY9pHX3_9lens_core3lsp4hint5testss_22test_cache_stats_clone0B9_
FNDA:1,_RNCNvNtNtNtCscx2lCY9pHX3_9lens_core3lsp4hint5testss_22test_cached_hint_touch0B9_
FNDA:1,_RNCNvNtNtNtCscx2lCY9pHX3_9lens_core3lsp4hint5testss_23test_hint_type_equality0B9_
FNDA:1,_RNCNvNtNtNtCscx2lCY9pHX3_9lens_core3lsp4hint5testss_25test_cache_stats_hit_rate0B9_
FNDA:1,_RNCNvNtNtNtCscx2lCY9pHX3_9lens_core3lsp4hint5testss_25test_cached_hint_creation0B9_
FNDA:1,_RNCNvNtNtNtCscx2lCY9pHX3_9lens_core3lsp4hint5testss_25test_symbol_hint_creation0B9_
FNDA:1,_RNCNvNtNtNtCscx2lCY9pHX3_9lens_core3lsp4hint5testss_26test_cache_invalidate_file0B9_
FNDA:1,_RNCNvNtNtNtCscx2lCY9pHX3_9lens_core3lsp4hint5testss_26test_empty_results_caching0B9_
FNDA:1,_RNCNvNtNtNtCscx2lCY9pHX3_9lens_core3lsp4hint5testss_26test_file_tracker_creation0B9_
FNDA:1,_RNCNvNtNtNtCscx2lCY9pHX3_9lens_core3lsp4hint5testss_27test_cache_basic_operations0B9_
FNDA:1,_RNCNvNtNtNtCscx2lCY9pHX3_9lens_core3lsp4hint5testss_27test_cached_hint_expiration0B9_
FNDA:1,_RNCNvNtNtNtCscx2lCY9pHX3_9lens_core3lsp4hint5testss_28test_cache_concurrent_access0B9_
FNDA:1,_RNCNvNtNtNtCscx2lCY9pHX3_9lens_core3lsp4hint5testss_28test_large_cache_performance0B9_
FNDA:1,_RNCNvNtNtNtCscx2lCY9pHX3_9lens_core3lsp4hint5testss_30test_file_tracker_missing_file0B9_
FNDA:1,_RNCNvNtNtNtCscx2lCY9pHX3_9lens_core3lsp4hint5testss_32test_cache_evict_lru_empty_cache0B9_
FNDA:1,_RNCNvNtNtNtCscx2lCY9pHX3_9lens_core3lsp4hint5testss_34test_cache_memory_usage_estimation0B9_
FNDA:1,_RNCNvNtNtNtCscx2lCY9pHX3_9lens_core3lsp4hint5testss_34test_file_tracker_change_detection0B9_
FNDA:1,_RNCNvNtNtNtCscx2lCY9pHX3_9lens_core3lsp4hint5testss_37test_symbol_hint_with_optional_fields0B9_
FNDA:1,_RNCNvNtNtNtCscx2lCY9pHX3_9lens_core3lsp4hint5testss_38test_cache_key_with_special_characters0B9_
FNDA:8,_RNvMNtNtCscx2lCY9pHX3_9lens_core3lsp4hintNtB2_8HintType6as_str
FNDA:4,_RNvMs0_NtNtCscx2lCY9pHX3_9lens_core3lsp4hintNtB5_11FileTracker11has_changed
FNDA:1032,_RNvMs0_NtNtCscx2lCY9pHX3_9lens_core3lsp4hintNtB5_11FileTracker3new
FNDA:4,_RNvMs1_NtNtCscx2lCY9pHX3_9lens_core3lsp4hintNtB5_10CacheStats15update_hit_rate
FNDA:1030,_RNvMs2_NtNtCscx2lCY9pHX3_9lens_core3lsp4hintNtB5_10CacheStats18calculate_hit_rate
FNDA:1030,_RNvMs2_NtNtCscx2lCY9pHX3_9lens_core3lsp4hintNtB5_10CacheStats20update_lookup_timing
FNDA:1029,_RNvMs2_NtNtCscx2lCY9pHX3_9lens_core3lsp4hintNtB5_10CacheStats21update_storage_timing
FNDA:1030,_RNvMs3_NtNtCscx2lCY9pHX3_9lens_core3lsp4hintNtB5_9HintCache12get_internal
FNDA:1029,_RNvMs3_NtNtCscx2lCY9pHX3_9lens_core3lsp4hintNtB5_9HintCache12set_internal
FNDA:1,_RNvMs3_NtNtCscx2lCY9pHX3_9lens_core3lsp4hintNtB5_9HintCache15invalidate_file
FNDA:79,_RNvMs3_NtNtCscx2lCY9pHX3_9lens_core3lsp4hintNtB5_9HintCache18start_cleanup_task
FNDA:1031,_RNvMs3_NtNtCscx2lCY9pHX3_9lens_core3lsp4hintNtB5_9HintCache21estimate_memory_usage
FNDA:79,_RNvMs3_NtNtCscx2lCY9pHX3_9lens_core3lsp4hintNtB5_9HintCache23start_invalidation_task
FNDA:1029,_RNvMs3_NtNtCscx2lCY9pHX3_9lens_core3lsp4hintNtB5_9HintCache24track_files_from_results
FNDA:1030,_RNvMs3_NtNtCscx2lCY9pHX3_9lens_core3lsp4hintNtB5_9HintCache3get
FNDA:79,_RNvMs3_NtNtCscx2lCY9pHX3_9lens_core3lsp4hintNtB5_9HintCache3new
FNDA:1029,_RNvMs3_NtNtCscx2lCY9pHX3_9lens_core3lsp4hintNtB5_9HintCache3set
FNDA:1,_RNvMs3_NtNtCscx2lCY9pHX3_9lens_core3lsp4hintNtB5_9HintCache5clear
FNDA:10,_RNvMs3_NtNtCscx2lCY9pHX3_9lens_core3lsp4hintNtB5_9HintCache5stats
FNDA:1,_RNvMs3_NtNtCscx2lCY9pHX3_9lens_core3lsp4hintNtB5_9HintCache8shutdown
FNDA:2,_RNvMs3_NtNtCscx2lCY9pHX3_9lens_core3lsp4hintNtB5_9HintCache9evict_lru
FNDA:15,_RNvMs5_NtNtCscx2lCY9pHX3_9lens_core3lsp4hintNtB5_10SymbolHint3new
FNDA:1046,_RNvMs_NtNtCscx2lCY9pHX3_9lens_core3lsp4hintNtB4_10CachedHint10is_expired
FNDA:3,_RNvMs_NtNtCscx2lCY9pHX3_9lens_core3lsp4hintNtB4_10CachedHint11age_seconds
FNDA:1033,_RNvMs_NtNtCscx2lCY9pHX3_9lens_core3lsp4hintNtB4_10CachedHint3new
FNDA:1025,_RNvMs_NtNtCscx2lCY9pHX3_9lens_core3lsp4hintNtB4_10CachedHint5touch
FNF:103
FNH:100
DA:36,8
DA:37,8
DA:38,1
DA:39,1
DA:40,1
DA:41,1
DA:42,1
DA:43,1
DA:44,1
DA:45,1
DA:47,8
DA:62,1033
DA:63,1033
DA:64,1033
DA:65,1033
DA:66,1033
DA:67,1033
DA:68,1033
DA:69,1033
DA:70,1033
DA:71,1033
DA:72,1033
DA:74,1046
DA:75,1046
DA:76,1046
DA:77,1046
DA:79,1025
DA:80,1025
DA:81,1025
DA:82,1025
DA:84,3
DA:85,3
DA:86,3
DA:87,3
DA:99,1032
DA:100,1032
DA:102,3
DA:103,3
DA:104,3
DA:106,1032
DA:108,4
DA:109,4
DA:110,3
DA:111,3
DA:112,3
DA:113,3
DA:115,1
DA:117,4
DA:135,4
DA:136,4
DA:137,4
DA:138,3
DA:139,3
DA:140,4
DA:143,0
DA:147,0
DA:148,0
DA:153,1030
DA:154,1030
DA:155,0
DA:157,1030
DA:159,1030
DA:162,1030
DA:164,1030
DA:165,9
DA:166,1021
DA:167,1021
DA:168,1021
DA:169,1021
DA:170,1030
DA:173,1029
DA:175,1029
DA:176,11
DA:177,1018
DA:178,1018
DA:179,1018
DA:180,1018
DA:181,1029
DA:206,79
DA:207,79
DA:208,79
DA:209,79
DA:211,79
DA:212,79
DA:213,79
DA:214,79
DA:215,79
DA:216,79
DA:217,79
DA:218,79
DA:219,79
DA:222,79
DA:225,79
DA:227,79
DA:228,79
DA:229,79
DA:232,1030
DA:233,1030
DA:234,1030
DA:235,1030
DA:239,1030
DA:240,1030
DA:241,1030
DA:244,1030
DA:245,1030
DA:248,1030
DA:249,1030
DA:251,1030
DA:252,1025
DA:253,1025
DA:255,1
DA:256,1
DA:257,1
DA:258,1
DA:259,1
DA:262,1024
DA:263,1024
DA:264,1024
DA:265,1024
DA:266,1024
DA:270,5
DA:271,5
DA:272,5
DA:275,1030
DA:278,1029
DA:279,1029
DA:280,1029
DA:281,1029
DA:285,1029
DA:286,1029
DA:289,1029
DA:290,1029
DA:293,1029
DA:295,1029
DA:296,1
DA:297,1028
DA:299,1029
DA:302,1029
DA:304,1029
DA:308,1029
DA:309,1029
DA:310,1029
DA:313,1029
DA:314,1029
DA:315,1029
DA:318,1
DA:319,1
DA:320,1
DA:323,2
DA:324,2
DA:325,2
DA:326,2
DA:328,2
DA:329,1
DA:330,1
DA:332,2
DA:333,2
DA:336,1
DA:337,1
DA:338,1
DA:339,1
DA:340,1
DA:341,0
DA:343,1
DA:344,1
DA:347,1
DA:348,1
DA:349,1
DA:352,1
DA:353,1
DA:354,1
DA:357,1
DA:358,1
DA:359,1
DA:362,10
DA:363,10
DA:364,10
DA:367,1029
DA:368,1029
DA:370,2057
DA:371,1028
DA:373,1028
DA:374,1028
DA:375,0
DA:376,0
DA:377,0
DA:378,0
DA:379,1028
DA:380,0
DA:382,1029
DA:385,2
DA:386,2
DA:387,1
DA:388,1
DA:391,1
DA:392,1
DA:394,2
DA:395,2
DA:396,1
DA:397,1
DA:398,1
DA:401,1
DA:402,1
DA:404,1
DA:405,1
DA:406,1
DA:408,1
DA:409,0
DA:410,2
DA:413,79
DA:414,79
DA:415,79
DA:417,79
DA:418,76
DA:421,145
DA:423,69
DA:426,69
DA:427,19
DA:428,0
DA:429,19
DA:433,69
DA:434,69
DA:435,0
DA:436,0
DA:437,0
DA:440,69
DA:441,0
DA:442,0
DA:443,0
DA:444,69
DA:448,79
DA:449,79
DA:452,79
DA:453,79
DA:454,79
DA:455,79
DA:457,79
DA:458,76
DA:461,145
DA:463,69
DA:464,69
DA:467,69
DA:468,0
DA:469,0
DA:470,0
DA:473,69
DA:474,0
DA:476,0
DA:478,0
DA:479,0
DA:482,0
DA:483,0
DA:484,0
DA:485,0
DA:487,0
DA:488,0
DA:489,0
DA:491,0
DA:492,0
DA:495,0
DA:496,0
DA:497,0
DA:498,0
DA:501,0
DA:502,0
DA:503,0
DA:504,0
DA:506,0
DA:507,0
DA:508,69
DA:512,79
DA:513,79
DA:516,1031
DA:518,1031
DA:519,1031
DA:522,1
DA:523,1
DA:525,1
DA:526,1
DA:527,1
DA:529,1
DA:530,1
DA:531,1
DA:533,1
DA:535,1
DA:536,1
DA:540,79
DA:541,79
DA:542,79
DA:559,15
DA:560,15
DA:561,15
DA:562,15
DA:563,15
DA:564,15
DA:565,15
DA:566,15
DA:567,15
DA:568,15
DA:569,15
DA:570,15
DA:571,15
DA:572,15
DA:573,15
DA:574,15
DA:575,15
DA:576,15
DA:577,15
DA:586,1
DA:587,1
DA:588,1
DA:591,1
DA:594,1
DA:595,1
DA:596,1
DA:597,1
DA:598,1
DA:599,1
DA:600,1
DA:601,1
DA:602,1
DA:603,1
DA:605,1
DA:607,1
DA:608,1
DA:609,1
DA:612,1
DA:613,1
DA:614,1
DA:615,1
DA:616,1
DA:619,1
DA:620,1
DA:621,1
DA:623,1
DA:624,1
DA:625,1
DA:626,1
DA:627,1
DA:628,1
DA:629,1
DA:630,1
DA:631,1
DA:632,1
DA:635,1
DA:638,1
DA:641,1
DA:644,1
DA:645,1
DA:648,1
DA:649,1
DA:650,1
DA:652,1
DA:653,1
DA:654,1
DA:655,1
DA:656,1
DA:657,1
DA:658,1
DA:659,1
DA:660,1
DA:661,1
DA:664,1
DA:665,1
DA:666,1
DA:669,1
DA:670,1
DA:671,1
DA:674,1
DA:675,1
DA:678,1
DA:679,1
DA:680,1
DA:681,1
DA:684,1
DA:685,1
DA:686,1
DA:687,1
DA:688,1
DA:689,1
DA:690,1
DA:691,1
DA:692,1
DA:693,1
DA:696,1
DA:697,1
DA:698,1
DA:699,1
DA:702,1
DA:703,1
DA:704,1
DA:705,1
DA:706,1
DA:707,1
DA:708,1
DA:709,1
DA:710,1
DA:711,1
DA:712,1
DA:714,1
DA:715,1
DA:717,1
DA:719,1
DA:720,1
DA:721,1
DA:722,1
DA:723,1
DA:724,1
DA:727,1
DA:728,1
DA:729,1
DA:732,1
DA:733,1
DA:735,1
DA:736,1
DA:739,1
DA:740,1
DA:741,1
DA:742,1
DA:744,1
DA:745,1
DA:748,1
DA:749,1
DA:751,1
DA:752,1
DA:753,1
DA:756,1
DA:757,1
DA:758,1
DA:759,1
DA:761,1
DA:762,1
DA:765,1
DA:766,1
DA:768,1
DA:769,1
DA:770,1
DA:773,1
DA:774,1
DA:777,1
DA:778,1
DA:781,1
DA:782,1
DA:783,1
DA:786,1
DA:787,1
DA:788,1
DA:789,1
DA:792,1
DA:793,1
DA:794,1
DA:795,1
DA:796,1
DA:799,1
DA:800,1
DA:801,1
DA:802,1
DA:803,1
DA:805,1
DA:806,1
DA:807,1
DA:808,1
DA:809,1
DA:812,1
DA:816,1
DA:817,1
DA:821,1
DA:822,1
DA:825,1
DA:827,1
DA:828,1
DA:829,1
DA:830,1
DA:833,1
DA:837,1
DA:838,1
DA:842,1
DA:843,1
DA:846,1
DA:847,1
DA:850,1
DA:851,1
DA:852,1
DA:853,1
DA:854,1
DA:855,1
DA:856,1
DA:857,1
DA:860,1
DA:861,1
DA:862,1
DA:865,1
DA:869,1
DA:870,1
DA:872,1
DA:875,1
DA:878,1
DA:879,1
DA:882,1
DA:883,1
DA:884,1
DA:885,1
DA:886,1
DA:887,1
DA:888,1
DA:889,1
DA:890,1
DA:891,1
DA:892,1
DA:893,1
DA:896,1
DA:897,1
DA:899,1
DA:900,1
DA:903,1
DA:905,1
DA:906,1
DA:907,1
DA:910,1
DA:911,1
DA:912,1
DA:915,1
DA:916,1
DA:918,1
DA:919,1
DA:920,1
DA:921,1
DA:922,1
DA:923,1
DA:924,1
DA:925,1
DA:926,1
DA:927,1
DA:929,1
DA:930,1
DA:931,1
DA:932,1
DA:933,1
DA:934,1
DA:935,1
DA:936,1
DA:937,1
DA:938,1
DA:941,1
DA:942,1
DA:945,1
DA:946,1
DA:948,1
DA:951,1
DA:952,1
DA:954,1
DA:955,1
DA:956,1
DA:957,1
DA:960,1
DA:961,1
DA:963,1
DA:964,1
DA:966,1
DA:967,1
DA:968,1
DA:969,1
DA:970,1
DA:971,1
DA:972,1
DA:973,1
DA:974,1
DA:975,1
DA:977,1
DA:979,1
DA:980,1
DA:981,1
DA:984,1
DA:985,1
DA:987,1
DA:988,1
DA:989,1
DA:990,1
DA:991,1
DA:992,1
DA:993,1
DA:994,1
DA:995,1
DA:996,1
DA:999,1
DA:1000,11
DA:1001,10
DA:1002,10
DA:1003,10
DA:1004,10
DA:1005,10
DA:1006,10
DA:1009,11
DA:1010,10
DA:1013,1
DA:1014,1
DA:1017,1
DA:1018,11
DA:1019,10
DA:1020,10
DA:1021,10
DA:1022,10
DA:1023,10
DA:1026,11
DA:1027,10
DA:1028,10
DA:1031,1
DA:1032,1
DA:1033,1
DA:1036,1
DA:1037,1
DA:1038,1
DA:1039,1
DA:1040,1
DA:1046,1
DA:1047,1
DA:1048,1
DA:1049,1
DA:1050,1
DA:1051,1
DA:1052,1
DA:1053,1
DA:1054,1
DA:1057,1
DA:1058,1
DA:1059,1
DA:1060,1
DA:1061,1
DA:1067,1
DA:1068,1
DA:1070,1
DA:1071,1
DA:1072,1
DA:1073,1
DA:1076,1
DA:1077,1
DA:1080,1
DA:1081,1
DA:1082,1
DA:1083,1
DA:1084,1
DA:1085,1
DA:1086,1
DA:1087,1
DA:1088,1
DA:1089,1
DA:1091,1
DA:1093,1
DA:1094,1
DA:1097,1
DA:1100,1
DA:1101,1
DA:1104,1
DA:1105,1
DA:1108,1
DA:1109,1
DA:1112,1
DA:1113,1
DA:1116,1
DA:1118,1
DA:1119,1
DA:1120,1
DA:1121,1
DA:1124,1
DA:1125,1
DA:1126,1
DA:1128,1
DA:1129,1
DA:1130,1
DA:1131,1
DA:1132,1
DA:1133,1
DA:1134,1
DA:1135,1
DA:1136,1
DA:1137,1
DA:1140,1001
DA:1141,1000
DA:1144,1
DA:1145,1
DA:1148,1
DA:1149,1001
DA:1150,1000
DA:1153,1
DA:1154,1
DA:1156,1
DA:1157,1
DA:1158,1
DA:1159,1
DA:1162,1
DA:1163,1
DA:1165,1
DA:1166,1
DA:1167,1
DA:1168,1
DA:1169,1
DA:1170,1
DA:1171,1
DA:1172,1
DA:1173,1
DA:1174,1
DA:1176,1
DA:1177,1
DA:1178,1
DA:1179,1
DA:1180,1
DA:1181,1
DA:1182,1
DA:1183,1
DA:1186,8
DA:1187,7
DA:1188,7
DA:1189,7
DA:1190,1
DA:1191,1
DA:1194,1
DA:1195,1
DA:1196,1
DA:1199,1
DA:1200,1
DA:1202,1
DA:1203,1
DA:1205,1
DA:1206,1
DA:1207,1
DA:1208,1
BRF:0
BRH:0
LF:806
LH:760
end_of_record
SF:/home/nathan/Projects/lens/src/lsp/manager.rs
FN:368,_RNCNvMNtNtCscx2lCY9pHX3_9lens_core3lsp7managerNtB4_10LspManager17get_routing_stats0B8_
FN:373,_RNCNvMNtNtCscx2lCY9pHX3_9lens_core3lsp7managerNtB4_10LspManager19check_server_health0B8_
FN:363,_RNCNvMNtNtCscx2lCY9pHX3_9lens_core3lsp7managerNtB4_10LspManager9get_stats0B8_
FN:368,_RNvMNtNtCscx2lCY9pHX3_9lens_core3lsp7managerNtB2_10LspManager17get_routing_stats
FN:373,_RNvMNtNtCscx2lCY9pHX3_9lens_core3lsp7managerNtB2_10LspManager19check_server_health
FN:363,_RNvMNtNtCscx2lCY9pHX3_9lens_core3lsp7managerNtB2_10LspManager9get_stats
FN:431,_RNvXs0_NtNtCscx2lCY9pHX3_9lens_core3lsp7managerNtB7_11QueryIntentNtNtCs8Ty2CzGA6U3_5alloc6string8ToString9to_string
FN:423,_RNvXs_NtNtCscx2lCY9pHX3_9lens_core3lsp7managerNtB4_10LspManagerNtNtNtCs66KPHxksi63_4core3ops4drop4Drop4drop
FN:314,_RNCNCNvMNtNtCscx2lCY9pHX3_9lens_core3lsp7managerNtB6_10LspManager22execute_bounded_search00Ba_
FN:353,_RNCNCNvMNtNtCscx2lCY9pHX3_9lens_core3lsp7managerNtB6_10LspManager22execute_bounded_search0s_0Ba_
FN:229,_RNCNvMNtNtCscx2lCY9pHX3_9lens_core3lsp7managerNtB4_10LspManager10lsp_search0B8_
FN:88,_RNCNvMNtNtCscx2lCY9pHX3_9lens_core3lsp7managerNtB4_10LspManager12start_server0B8_
FN:56,_RNCNvMNtNtCscx2lCY9pHX3_9lens_core3lsp7managerNtB4_10LspManager18initialize_servers0B8_
FN:173,_RNCNvMNtNtCscx2lCY9pHX3_9lens_core3lsp7managerNtB4_10LspManager19should_route_to_lsp0B8_
FN:300,_RNCNvMNtNtCscx2lCY9pHX3_9lens_core3lsp7managerNtB4_10LspManager22execute_bounded_search0B8_
FN:196,_RNCNvMNtNtCscx2lCY9pHX3_9lens_core3lsp7managerNtB4_10LspManager28lsp_search_with_safety_floor0B8_
FN:34,_RNCNvMNtNtCscx2lCY9pHX3_9lens_core3lsp7managerNtB4_10LspManager3new0B8_
FN:103,_RNCNvMNtNtCscx2lCY9pHX3_9lens_core3lsp7managerNtB4_10LspManager6search0B8_
FN:392,_RNCNvMNtNtCscx2lCY9pHX3_9lens_core3lsp7managerNtB4_10LspManager8shutdown0B8_
FN:229,_RNvMNtNtCscx2lCY9pHX3_9lens_core3lsp7managerNtB2_10LspManager10lsp_search
FN:88,_RNvMNtNtCscx2lCY9pHX3_9lens_core3lsp7managerNtB2_10LspManager12start_server
FN:56,_RNvMNtNtCscx2lCY9pHX3_9lens_core3lsp7managerNtB2_10LspManager18initialize_servers
FN:173,_RNvMNtNtCscx2lCY9pHX3_9lens_core3lsp7managerNtB2_10LspManager19should_route_to_lsp
FN:295,_RNvMNtNtCscx2lCY9pHX3_9lens_core3lsp7managerNtB2_10LspManager22execute_bounded_search
FN:279,_RNvMNtNtCscx2lCY9pHX3_9lens_core3lsp7managerNtB2_10LspManager24determine_target_servers
FN:359,_RNvMNtNtCscx2lCY9pHX3_9lens_core3lsp7managerNtB2_10LspManager26get_available_server_types
FN:196,_RNvMNtNtCscx2lCY9pHX3_9lens_core3lsp7managerNtB2_10LspManager28lsp_search_with_safety_floor
FN:34,_RNvMNtNtCscx2lCY9pHX3_9lens_core3lsp7managerNtB2_10LspManager3new
FN:103,_RNvMNtNtCscx2lCY9pHX3_9lens_core3lsp7managerNtB2_10LspManager6search
FN:392,_RNvMNtNtCscx2lCY9pHX3_9lens_core3lsp7managerNtB2_10LspManager8shutdown
FNDA:0,_RNCNvMNtNtCscx2lCY9pHX3_9lens_core3lsp7managerNtB4_10LspManager17get_routing_stats0B8_
FNDA:0,_RNCNvMNtNtCscx2lCY9pHX3_9lens_core3lsp7managerNtB4_10LspManager19check_server_health0B8_
FNDA:0,_RNCNvMNtNtCscx2lCY9pHX3_9lens_core3lsp7managerNtB4_10LspManager9get_stats0B8_
FNDA:0,_RNvMNtNtCscx2lCY9pHX3_9lens_core3lsp7managerNtB2_10LspManager17get_routing_stats
FNDA:0,_RNvMNtNtCscx2lCY9pHX3_9lens_core3lsp7managerNtB2_10LspManager19check_server_health
FNDA:0,_RNvMNtNtCscx2lCY9pHX3_9lens_core3lsp7managerNtB2_10LspManager9get_stats
FNDA:0,_RNvXs0_NtNtCscx2lCY9pHX3_9lens_core3lsp7managerNtB7_11QueryIntentNtNtCs8Ty2CzGA6U3_5alloc6string8ToString9to_string
FNDA:66,_RNvXs_NtNtCscx2lCY9pHX3_9lens_core3lsp7managerNtB4_10LspManagerNtNtNtCs66KPHxksi63_4core3ops4drop4Drop4drop
FNDA:0,_RNCNCNvMNtNtCscx2lCY9pHX3_9lens_core3lsp7managerNtB6_10LspManager22execute_bounded_search00Ba_
FNDA:0,_RNCNCNvMNtNtCscx2lCY9pHX3_9lens_core3lsp7managerNtB6_10LspManager22execute_bounded_search0s_0Ba_
FNDA:0,_RNCNvMNtNtCscx2lCY9pHX3_9lens_core3lsp7managerNtB4_10LspManager10lsp_search0B8_
FNDA:264,_RNCNvMNtNtCscx2lCY9pHX3_9lens_core3lsp7managerNtB4_10LspManager12start_server0B8_
FNDA:66,_RNCNvMNtNtCscx2lCY9pHX3_9lens_core3lsp7managerNtB4_10LspManager18initialize_servers0B8_
FNDA:0,_RNCNvMNtNtCscx2lCY9pHX3_9lens_core3lsp7managerNtB4_10LspManager19should_route_to_lsp0B8_
FNDA:0,_RNCNvMNtNtCscx2lCY9pHX3_9lens_core3lsp7managerNtB4_10LspManager22execute_bounded_search0B8_
FNDA:0,_RNCNvMNtNtCscx2lCY9pHX3_9lens_core3lsp7managerNtB4_10LspManager28lsp_search_with_safety_floor0B8_
FNDA:66,_RNCNvMNtNtCscx2lCY9pHX3_9lens_core3lsp7managerNtB4_10LspManager3new0B8_
FNDA:0,_RNCNvMNtNtCscx2lCY9pHX3_9lens_core3lsp7managerNtB4_10LspManager6search0B8_
FNDA:0,_RNCNvMNtNtCscx2lCY9pHX3_9lens_core3lsp7managerNtB4_10LspManager8shutdown0B8_
FNDA:0,_RNvMNtNtCscx2lCY9pHX3_9lens_core3lsp7managerNtB2_10LspManager10lsp_search
FNDA:264,_RNvMNtNtCscx2lCY9pHX3_9lens_core3lsp7managerNtB2_10LspManager12start_server
FNDA:66,_RNvMNtNtCscx2lCY9pHX3_9lens_core3lsp7managerNtB2_10LspManager18initialize_servers
FNDA:0,_RNvMNtNtCscx2lCY9pHX3_9lens_core3lsp7managerNtB2_10LspManager19should_route_to_lsp
FNDA:0,_RNvMNtNtCscx2lCY9pHX3_9lens_core3lsp7managerNtB2_10LspManager22execute_bounded_search
FNDA:0,_RNvMNtNtCscx2lCY9pHX3_9lens_core3lsp7managerNtB2_10LspManager24determine_target_servers
FNDA:0,_RNvMNtNtCscx2lCY9pHX3_9lens_core3lsp7managerNtB2_10LspManager26get_available_server_types
FNDA:0,_RNvMNtNtCscx2lCY9pHX3_9lens_core3lsp7managerNtB2_10LspManager28lsp_search_with_safety_floor
FNDA:66,_RNvMNtNtCscx2lCY9pHX3_9lens_core3lsp7managerNtB2_10LspManager3new
FNDA:0,_RNvMNtNtCscx2lCY9pHX3_9lens_core3lsp7managerNtB2_10LspManager6search
FNDA:0,_RNvMNtNtCscx2lCY9pHX3_9lens_core3lsp7managerNtB2_10LspManager8shutdown
FNF:30
FNH:7
DA:34,66
DA:35,66
DA:37,66
DA:38,66
DA:39,66
DA:41,66
DA:42,66
DA:43,66
DA:44,66
DA:45,66
DA:46,66
DA:47,66
DA:48,66
DA:51,66
DA:53,66
DA:54,66
DA:56,66
DA:57,66
DA:58,66
DA:59,66
DA:60,66
DA:61,66
DA:64,330
DA:65,264
DA:66,0
DA:67,0
DA:68,0
DA:69,0
DA:71,264
DA:72,264
DA:78,66
DA:79,66
DA:82,0
DA:84,66
DA:85,66
DA:86,66
DA:88,264
DA:89,264
DA:92,264
DA:95,66
DA:98,66
DA:100,0
DA:101,264
DA:103,0
DA:104,0
DA:105,0
DA:109,0
DA:110,0
DA:114,0
DA:116,0
DA:117,0
DA:118,0
DA:119,0
DA:123,0
DA:124,0
DA:125,0
DA:126,0
DA:127,0
DA:131,0
DA:133,0
DA:135,0
DA:136,0
DA:138,0
DA:141,0
DA:144,0
DA:145,0
DA:146,0
DA:147,0
DA:148,0
DA:149,0
DA:150,0
DA:151,0
DA:154,0
DA:158,0
DA:159,0
DA:162,0
DA:163,0
DA:164,0
DA:165,0
DA:166,0
DA:167,0
DA:168,0
DA:169,0
DA:170,0
DA:171,0
DA:173,0
DA:175,0
DA:176,0
DA:177,0
DA:180,0
DA:181,0
DA:182,0
DA:183,0
DA:184,0
DA:185,0
DA:186,0
DA:189,0
DA:190,0
DA:196,0
DA:197,0
DA:199,0
DA:201,0
DA:202,0
DA:205,0
DA:206,0
DA:208,0
DA:210,0
DA:211,0
DA:212,0
DA:215,0
DA:217,0
DA:219,0
DA:220,0
DA:225,0
DA:227,0
DA:229,0
DA:230,0
DA:233,0
DA:234,0
DA:235,0
DA:238,0
DA:239,0
DA:242,0
DA:243,0
DA:244,0
DA:245,0
DA:246,0
DA:247,0
DA:248,0
DA:249,0
DA:250,0
DA:251,0
DA:254,0
DA:256,0
DA:257,0
DA:258,0
DA:261,0
DA:264,0
DA:266,0
DA:268,0
DA:269,0
DA:270,0
DA:271,0
DA:272,0
DA:273,0
DA:274,0
DA:275,0
DA:276,0
DA:277,0
DA:279,0
DA:280,0
DA:282,0
DA:283,0
DA:284,0
DA:285,0
DA:286,0
DA:287,0
DA:288,0
DA:289,0
DA:292,0
DA:293,0
DA:295,0
DA:296,0
DA:297,0
DA:298,0
DA:299,0
DA:300,0
DA:301,0
DA:302,0
DA:305,0
DA:307,0
DA:308,0
DA:309,0
DA:310,0
DA:311,0
DA:312,0
DA:314,0
DA:315,0
DA:316,0
DA:318,0
DA:319,0
DA:323,0
DA:324,0
DA:325,0
DA:326,0
DA:327,0
DA:328,0
DA:330,0
DA:331,0
DA:332,0
DA:333,0
DA:335,0
DA:336,0
DA:338,0
DA:339,0
DA:342,0
DA:348,0
DA:349,0
DA:350,0
DA:353,0
DA:355,0
DA:356,0
DA:359,0
DA:360,0
DA:361,0
DA:363,0
DA:364,0
DA:365,0
DA:368,0
DA:369,0
DA:370,0
DA:373,0
DA:374,0
DA:376,0
DA:377,0
DA:379,0
DA:380,0
DA:382,0
DA:383,0
DA:384,0
DA:389,0
DA:390,0
DA:392,0
DA:393,0
DA:396,0
DA:397,0
DA:398,0
DA:399,0
DA:403,0
DA:404,0
DA:405,0
DA:406,0
DA:407,0
DA:408,0
DA:410,0
DA:415,0
DA:417,0
DA:418,0
DA:419,0
DA:423,66
DA:425,66
DA:426,66
DA:431,0
DA:432,0
DA:433,0
DA:434,0
DA:435,0
DA:436,0
DA:437,0
DA:438,0
DA:439,0
DA:440,0
DA:441,0
DA:442,0
DA:443,0
BRF:0
BRH:0
LF:269
LH:43
end_of_record
SF:/home/nathan/Projects/lens/src/lsp/mod.rs
FN:65,_RNvMNtCscx2lCY9pHX3_9lens_core3lspNtB2_13LspServerType15file_extensions
FN:136,_RNvMs_NtCscx2lCY9pHX3_9lens_core3lspNtB4_11QueryIntent14is_exact_query
FN:141,_RNvMs_NtCscx2lCY9pHX3_9lens_core3lspNtB4_11QueryIntent19is_structural_query
FN:56,_RNvMNtCscx2lCY9pHX3_9lens_core3lspNtB2_13LspServerType14server_command
FN:45,_RNvMNtCscx2lCY9pHX3_9lens_core3lspNtB2_13LspServerType19from_file_extension
FN:241,_RNvMs3_NtCscx2lCY9pHX3_9lens_core3lspNtB5_8LspState10initialize
FN:234,_RNvMs3_NtCscx2lCY9pHX3_9lens_core3lspNtB5_8LspState3new
FN:247,_RNvMs3_NtCscx2lCY9pHX3_9lens_core3lspNtB5_8LspState6search
FN:266,_RNvMs3_NtCscx2lCY9pHX3_9lens_core3lspNtB5_8LspState8shutdown
FN:123,_RNvMs_NtCscx2lCY9pHX3_9lens_core3lspNtB4_11QueryIntent15is_lsp_eligible
FN:131,_RNvMs_NtCscx2lCY9pHX3_9lens_core3lspNtB4_11QueryIntent21requires_safety_floor
FN:101,_RNvMs_NtCscx2lCY9pHX3_9lens_core3lspNtB4_11QueryIntent8classify
FN:155,_RNvXs0_NtCscx2lCY9pHX3_9lens_core3lspNtB5_15TraversalBoundsNtNtCs66KPHxksi63_4core7default7Default7default
FN:190,_RNvXs1_NtCscx2lCY9pHX3_9lens_core3lspNtB5_17LspSearchResponseNtNtCs66KPHxksi63_4core7default7Default7default
FN:215,_RNvXs2_NtCscx2lCY9pHX3_9lens_core3lspNtB5_9LspConfigNtNtCs66KPHxksi63_4core7default7Default7default
FN:241,_RNCNvMs3_NtCscx2lCY9pHX3_9lens_core3lspNtB7_8LspState10initialize0B9_
FN:247,_RNCNvMs3_NtCscx2lCY9pHX3_9lens_core3lspNtB7_8LspState6search0B9_
FN:266,_RNCNvMs3_NtCscx2lCY9pHX3_9lens_core3lspNtB7_8LspState8shutdown0B9_
FN:300,_RNvNtNtCscx2lCY9pHX3_9lens_core3lsp5testss_24test_lsp_eligible_intent
FN:280,_RNvNtNtCscx2lCY9pHX3_9lens_core3lsp5testss_31test_server_type_from_extension
FN:289,_RNvNtNtCscx2lCY9pHX3_9lens_core3lsp5testss_32test_query_intent_classification
FNDA:0,_RNvMNtCscx2lCY9pHX3_9lens_core3lspNtB2_13LspServerType15file_extensions
FNDA:0,_RNvMs_NtCscx2lCY9pHX3_9lens_core3lspNtB4_11QueryIntent14is_exact_query
FNDA:0,_RNvMs_NtCscx2lCY9pHX3_9lens_core3lspNtB4_11QueryIntent19is_structural_query
FNDA:264,_RNvMNtCscx2lCY9pHX3_9lens_core3lspNtB2_13LspServerType14server_command
FNDA:5,_RNvMNtCscx2lCY9pHX3_9lens_core3lspNtB2_13LspServerType19from_file_extension
FNDA:52,_RNvMs3_NtCscx2lCY9pHX3_9lens_core3lspNtB5_8LspState10initialize
FNDA:52,_RNvMs3_NtCscx2lCY9pHX3_9lens_core3lspNtB5_8LspState3new
FNDA:0,_RNvMs3_NtCscx2lCY9pHX3_9lens_core3lspNtB5_8LspState6search
FNDA:0,_RNvMs3_NtCscx2lCY9pHX3_9lens_core3lspNtB5_8LspState8shutdown
FNDA:203,_RNvMs_NtCscx2lCY9pHX3_9lens_core3lspNtB4_11QueryIntent15is_lsp_eligible
FNDA:0,_RNvMs_NtCscx2lCY9pHX3_9lens_core3lspNtB4_11QueryIntent21requires_safety_floor
FNDA:77,_RNvMs_NtCscx2lCY9pHX3_9lens_core3lspNtB4_11QueryIntent8classify
FNDA:68,_RNvXs0_NtCscx2lCY9pHX3_9lens_core3lspNtB5_15TraversalBoundsNtNtCs66KPHxksi63_4core7default7Default7default
FNDA:0,_RNvXs1_NtCscx2lCY9pHX3_9lens_core3lspNtB5_17LspSearchResponseNtNtCs66KPHxksi63_4core7default7Default7default
FNDA:66,_RNvXs2_NtCscx2lCY9pHX3_9lens_core3lspNtB5_9LspConfigNtNtCs66KPHxksi63_4core7default7Default7default
FNDA:52,_RNCNvMs3_NtCscx2lCY9pHX3_9lens_core3lspNtB7_8LspState10initialize0B9_
FNDA:0,_RNCNvMs3_NtCscx2lCY9pHX3_9lens_core3lspNtB7_8LspState6search0B9_
FNDA:0,_RNCNvMs3_NtCscx2lCY9pHX3_9lens_core3lspNtB7_8LspState8shutdown0B9_
FNDA:1,_RNvNtNtCscx2lCY9pHX3_9lens_core3lsp5testss_24test_lsp_eligible_intent
FNDA:1,_RNvNtNtCscx2lCY9pHX3_9lens_core3lsp5testss_31test_server_type_from_extension
FNDA:1,_RNvNtNtCscx2lCY9pHX3_9lens_core3lsp5testss_32test_query_intent_classification
FNF:21
FNH:12
DA:45,5
DA:46,5
DA:47,5
DA:48,4
DA:49,4
DA:50,3
DA:51,2
DA:52,1
DA:54,5
DA:56,264
DA:57,264
DA:58,66
DA:59,66
DA:60,66
DA:61,66
DA:63,264
DA:65,0
DA:66,0
DA:67,0
DA:68,0
DA:69,0
DA:70,0
DA:71,0
DA:73,0
DA:101,77
DA:102,77
DA:105,77
DA:106,1
DA:107,76
DA:108,1
DA:109,75
DA:110,1
DA:111,74
DA:112,2
DA:113,72
DA:114,1
DA:115,71
DA:116,1
DA:118,70
DA:120,77
DA:123,203
DA:124,203
DA:125,203
DA:131,0
DA:132,0
DA:133,0
DA:136,0
DA:137,0
DA:138,0
DA:141,0
DA:142,0
DA:143,0
DA:155,68
DA:156,68
DA:157,68
DA:158,68
DA:159,68
DA:160,68
DA:161,68
DA:190,0
DA:191,0
DA:192,0
DA:193,0
DA:194,0
DA:195,0
DA:196,0
DA:197,0
DA:198,0
DA:199,0
DA:200,0
DA:215,66
DA:216,66
DA:217,66
DA:218,66
DA:219,66
DA:220,66
DA:221,66
DA:222,66
DA:223,66
DA:224,66
DA:234,52
DA:235,52
DA:236,52
DA:237,52
DA:238,52
DA:239,52
DA:241,52
DA:242,52
DA:243,52
DA:244,52
DA:245,52
DA:247,0
DA:248,0
DA:249,0
DA:250,0
DA:252,0
DA:253,0
DA:254,0
DA:255,0
DA:256,0
DA:257,0
DA:258,0
DA:259,0
DA:260,0
DA:261,0
DA:264,0
DA:266,0
DA:267,0
DA:268,0
DA:269,0
DA:270,0
DA:271,0
DA:272,0
DA:280,1
DA:281,1
DA:282,1
DA:283,1
DA:284,1
DA:285,1
DA:286,1
DA:289,1
DA:290,1
DA:291,1
DA:292,1
DA:293,1
DA:294,1
DA:295,1
DA:296,1
DA:297,1
DA:300,1
DA:301,1
DA:302,1
DA:303,1
DA:304,1
DA:305,1
BRF:0
BRH:0
LF:138
LH:86
end_of_record
SF:/home/nathan/Projects/lens/src/lsp/router.rs
FN:821,_RNvNtNtNtCscx2lCY9pHX3_9lens_core3lsp6router5tests21cleanup_router_safely
FN:810,_RNvNtNtNtCscx2lCY9pHX3_9lens_core3lsp6router5tests27create_isolated_test_router
FN:794,_RNvNtNtNtCscx2lCY9pHX3_9lens_core3lsp6router5tests30create_test_router_with_config
FN:1723,_RNvNtNtNtCscx2lCY9pHX3_9lens_core3lsp6router5testss_19test_bfs_edge_types
FN:1086,_RNvNtNtNtCscx2lCY9pHX3_9lens_core3lsp6router5testss_20test_router_creation
FN:1172,_RNvNtNtNtCscx2lCY9pHX3_9lens_core3lsp6router5testss_21test_adaptive_routing
FN:1848,_RNvNtNtNtCscx2lCY9pHX3_9lens_core3lsp6router5testss_22test_bfs_node_equality
FN:1514,_RNvNtNtNtCscx2lCY9pHX3_9lens_core3lsp6router5testss_22test_high_load_routing
FN:1249,_RNvNtNtNtCscx2lCY9pHX3_9lens_core3lsp6router5testss_23test_concurrent_routing
FN:1878,_RNvNtNtNtCscx2lCY9pHX3_9lens_core3lsp6router5testss_23test_edge_type_equality
FN:1212,_RNvNtNtNtCscx2lCY9pHX3_9lens_core3lsp6router5testss_23test_routing_statistics
FN:1388,_RNvNtNtNtCscx2lCY9pHX3_9lens_core3lsp6router5testss_23test_safety_constraints
FN:1750,_RNvNtNtNtCscx2lCY9pHX3_9lens_core3lsp6router5testss_24test_bfs_cycle_detection
FN:1789,_RNvNtNtNtCscx2lCY9pHX3_9lens_core3lsp6router5testss_24test_bfs_empty_neighbors
FN:1336,_RNvNtNtNtCscx2lCY9pHX3_9lens_core3lsp6router5testss_24test_empty_query_routing
FN:1193,_RNvNtNtNtCscx2lCY9pHX3_9lens_core3lsp6router5testss_25test_lsp_result_reporting
FN:1841,_RNvNtNtNtCscx2lCY9pHX3_9lens_core3lsp6router5testss_25test_symbol_type_equality
FN:1463,_RNvNtNtNtCscx2lCY9pHX3_9lens_core3lsp6router5testss_26test_pattern_cache_cleanup
FN:954,_RNvNtNtNtCscx2lCY9pHX3_9lens_core3lsp6router5testss_26test_query_pattern_caching
FN:1430,_RNvNtNtNtCscx2lCY9pHX3_9lens_core3lsp6router5testss_27test_complexity_calculation
FN:1111,_RNvNtNtNtCscx2lCY9pHX3_9lens_core3lsp6router5testss_27test_router_basic_decisions
FN:1482,_RNvNtNtNtCscx2lCY9pHX3_9lens_core3lsp6router5testss_27test_routing_stats_accuracy
FN:1366,_RNvNtNtNtCscx2lCY9pHX3_9lens_core3lsp6router5testss_27test_unicode_query_handling
FN:1098,_RNvNtNtNtCscx2lCY9pHX3_9lens_core3lsp6router5testss_28test_routing_config_defaults
FN:867,_RNvNtNtNtCscx2lCY9pHX3_9lens_core3lsp6router5testss_28test_routing_reason_variants
FN:1350,_RNvNtNtNtCscx2lCY9pHX3_9lens_core3lsp6router5testss_28test_very_long_query_routing
FN:1677,_RNvNtNtNtCscx2lCY9pHX3_9lens_core3lsp6router5testss_29test_bfs_symbol_relationships
FN:1404,_RNvNtNtNtCscx2lCY9pHX3_9lens_core3lsp6router5testss_30test_adaptive_adjustment_logic
FN:891,_RNvNtNtNtCscx2lCY9pHX3_9lens_core3lsp6router5testss_30test_intent_stats_routing_rate
FN:1307,_RNvNtNtNtCscx2lCY9pHX3_9lens_core3lsp6router5testss_30test_pattern_cache_performance
FN:851,_RNvNtNtNtCscx2lCY9pHX3_9lens_core3lsp6router5testss_30test_routing_decision_creation
FN:1651,_RNvNtNtNtCscx2lCY9pHX3_9lens_core3lsp6router5testss_31test_bounded_bfs_todo_md_bounds
FN:1153,_RNvNtNtNtCscx2lCY9pHX3_9lens_core3lsp6router5testss_31test_detailed_routing_decisions
FN:1053,_RNvNtNtNtCscx2lCY9pHX3_9lens_core3lsp6router5testss_31test_estimate_lsp_effectiveness
FN:1122,_RNvNtNtNtCscx2lCY9pHX3_9lens_core3lsp6router5testss_31test_intent_eligibility_routing
FN:936,_RNvNtNtNtCscx2lCY9pHX3_9lens_core3lsp6router5testss_31test_intent_stats_mixed_results
FN:1564,_RNvNtNtNtCscx2lCY9pHX3_9lens_core3lsp6router5testss_32test_bounded_bfs_traversal_basic
FN:1276,_RNvNtNtNtCscx2lCY9pHX3_9lens_core3lsp6router5testss_32test_concurrent_result_reporting
FN:922,_RNvNtNtNtCscx2lCY9pHX3_9lens_core3lsp6router5testss_33test_intent_stats_failure_updates
FN:904,_RNvNtNtNtCscx2lCY9pHX3_9lens_core3lsp6router5testss_33test_intent_stats_success_updates
FN:1234,_RNvNtNtNtCscx2lCY9pHX3_9lens_core3lsp6router5testss_34test_routing_stats_target_checking
FN:1022,_RNvNtNtNtCscx2lCY9pHX3_9lens_core3lsp6router5testss_36test_calculate_complexity_edge_cases
FN:1624,_RNvNtNtNtCscx2lCY9pHX3_9lens_core3lsp6router5testss_37test_bounded_bfs_traversal_node_limit
FN:1595,_RNvNtNtNtCscx2lCY9pHX3_9lens_core3lsp6router5testss_38test_bounded_bfs_traversal_depth_limit
FN:997,_RNvNtNtNtCscx2lCY9pHX3_9lens_core3lsp6router5testss_45test_detect_identifier_patterns_comprehensive
FN:969,_RNvNtNtNtCscx2lCY9pHX3_9lens_core3lsp6router5testss_45test_detect_structural_patterns_comprehensive
FN:230,_RNCNvMs1_NtNtCscx2lCY9pHX3_9lens_core3lsp6routerNtB7_9LspRouter12should_route0Bb_
FN:385,_RNCNvMs1_NtNtCscx2lCY9pHX3_9lens_core3lsp6routerNtB7_9LspRouter16get_intent_stats0Bb_
FN:642,_RNCNvMs1_NtNtCscx2lCY9pHX3_9lens_core3lsp6routerNtB7_9LspRouter17get_lsp_neighbors0Bb_
FN:520,_RNCNvMs1_NtNtCscx2lCY9pHX3_9lens_core3lsp6routerNtB7_9LspRouter17get_routing_stats0Bb_
FN:503,_RNCNvMs1_NtNtCscx2lCY9pHX3_9lens_core3lsp6routerNtB7_9LspRouter17report_lsp_result0Bb_
FN:348,_RNCNvMs1_NtNtCscx2lCY9pHX3_9lens_core3lsp6routerNtB7_9LspRouter20calculate_complexity0Bb_
FN:480,_RNCNvMs1_NtNtCscx2lCY9pHX3_9lens_core3lsp6routerNtB7_9LspRouter20update_routing_stats0Bb_
FN:287,_RNCNvMs1_NtNtCscx2lCY9pHX3_9lens_core3lsp6routerNtB7_9LspRouter21analyze_query_pattern0Bb_
FN:544,_RNCNvMs1_NtNtCscx2lCY9pHX3_9lens_core3lsp6routerNtB7_9LspRouter21bounded_bfs_traversal0Bb_
FN:245,_RNCNvMs1_NtNtCscx2lCY9pHX3_9lens_core3lsp6routerNtB7_9LspRouter21make_routing_decision0Bb_
FN:435,_RNCNvMs1_NtNtCscx2lCY9pHX3_9lens_core3lsp6routerNtB7_9LspRouter26apply_adaptive_adjustments0Bb_
FN:330,_RNCNvMs1_NtNtCscx2lCY9pHX3_9lens_core3lsp6routerNtB7_9LspRouter26detect_identifier_patterns0Bb_
FN:330,_RNCNvMs1_NtNtCscx2lCY9pHX3_9lens_core3lsp6routerNtB7_9LspRouter26detect_identifier_patternss_0Bb_
FN:325,_RNCNvMs1_NtNtCscx2lCY9pHX3_9lens_core3lsp6routerNtB7_9LspRouter26detect_structural_patterns0Bb_
FN:390,_RNCNvMs1_NtNtCscx2lCY9pHX3_9lens_core3lsp6routerNtB7_9LspRouter34calculate_base_routing_probability0Bb_
FN:199,_RNvXs0_NtNtCscx2lCY9pHX3_9lens_core3lsp6routerNtB5_9LspRouterNtNtNtCs66KPHxksi63_4core3ops4drop4Drop4drop
FN:1521,_RNCNCNvNtNtNtCscx2lCY9pHX3_9lens_core3lsp6router5testss_22test_high_load_routing00Bb_
FN:1256,_RNCNCNvNtNtNtCscx2lCY9pHX3_9lens_core3lsp6router5testss_23test_concurrent_routing00Bb_
FN:1780,_RNCNCNvNtNtNtCscx2lCY9pHX3_9lens_core3lsp6router5testss_24test_bfs_cycle_detection00Bb_
FN:1283,_RNCNCNvNtNtNtCscx2lCY9pHX3_9lens_core3lsp6router5testss_32test_concurrent_result_reporting00Bb_
FN:821,_RNCNvNtNtNtCscx2lCY9pHX3_9lens_core3lsp6router5tests21cleanup_router_safely0B9_
FN:1723,_RNCNvNtNtNtCscx2lCY9pHX3_9lens_core3lsp6router5testss_19test_bfs_edge_types0B9_
FN:1172,_RNCNvNtNtNtCscx2lCY9pHX3_9lens_core3lsp6router5testss_21test_adaptive_routing0B9_
FN:1848,_RNCNvNtNtNtCscx2lCY9pHX3_9lens_core3lsp6router5testss_22test_bfs_node_equality0B9_
FN:1514,_RNCNvNtNtNtCscx2lCY9pHX3_9lens_core3lsp6router5testss_22test_high_load_routing0B9_
FN:1249,_RNCNvNtNtNtCscx2lCY9pHX3_9lens_core3lsp6router5testss_23test_concurrent_routing0B9_
FN:1878,_RNCNvNtNtNtCscx2lCY9pHX3_9lens_core3lsp6router5testss_23test_edge_type_equality0B9_
FN:1212,_RNCNvNtNtNtCscx2lCY9pHX3_9lens_core3lsp6router5testss_23test_routing_statistics0B9_
FN:1388,_RNCNvNtNtNtCscx2lCY9pHX3_9lens_core3lsp6router5testss_23test_safety_constraints0B9_
FN:1750,_RNCNvNtNtNtCscx2lCY9pHX3_9lens_core3lsp6router5testss_24test_bfs_cycle_detection0B9_
FN:1789,_RNCNvNtNtNtCscx2lCY9pHX3_9lens_core3lsp6router5testss_24test_bfs_empty_neighbors0B9_
FN:1336,_RNCNvNtNtNtCscx2lCY9pHX3_9lens_core3lsp6router5testss_24test_empty_query_routing0B9_
FN:1193,_RNCNvNtNtNtCscx2lCY9pHX3_9lens_core3lsp6router5testss_25test_lsp_result_reporting0B9_
FN:1841,_RNCNvNtNtNtCscx2lCY9pHX3_9lens_core3lsp6router5testss_25test_symbol_type_equality0B9_
FN:1463,_RNCNvNtNtNtCscx2lCY9pHX3_9lens_core3lsp6router5testss_26test_pattern_cache_cleanup0B9_
FN:954,_RNCNvNtNtNtCscx2lCY9pHX3_9lens_core3lsp6router5testss_26test_query_pattern_caching0B9_
FN:1111,_RNCNvNtNtNtCscx2lCY9pHX3_9lens_core3lsp6router5testss_27test_router_basic_decisions0B9_
FN:1482,_RNCNvNtNtNtCscx2lCY9pHX3_9lens_core3lsp6router5testss_27test_routing_stats_accuracy0B9_
FN:1366,_RNCNvNtNtNtCscx2lCY9pHX3_9lens_core3lsp6router5testss_27test_unicode_query_handling0B9_
FN:1350,_RNCNvNtNtNtCscx2lCY9pHX3_9lens_core3lsp6router5testss_28test_very_long_query_routing0B9_
FN:1677,_RNCNvNtNtNtCscx2lCY9pHX3_9lens_core3lsp6router5testss_29test_bfs_symbol_relationships0B9_
FN:1404,_RNCNvNtNtNtCscx2lCY9pHX3_9lens_core3lsp6router5testss_30test_adaptive_adjustment_logic0B9_
FN:1307,_RNCNvNtNtNtCscx2lCY9pHX3_9lens_core3lsp6router5testss_30test_pattern_cache_performance0B9_
FN:1651,_RNCNvNtNtNtCscx2lCY9pHX3_9lens_core3lsp6router5testss_31test_bounded_bfs_todo_md_bounds0B9_
FN:1153,_RNCNvNtNtNtCscx2lCY9pHX3_9lens_core3lsp6router5testss_31test_detailed_routing_decisions0B9_
FN:1122,_RNCNvNtNtNtCscx2lCY9pHX3_9lens_core3lsp6router5testss_31test_intent_eligibility_routing0B9_
FN:1564,_RNCNvNtNtNtCscx2lCY9pHX3_9lens_core3lsp6router5testss_32test_bounded_bfs_traversal_basic0B9_
FN:1276,_RNCNvNtNtNtCscx2lCY9pHX3_9lens_core3lsp6router5testss_32test_concurrent_result_reporting0B9_
FN:1624,_RNCNvNtNtNtCscx2lCY9pHX3_9lens_core3lsp6router5testss_37test_bounded_bfs_traversal_node_limit0B9_
FN:1595,_RNCNvNtNtNtCscx2lCY9pHX3_9lens_core3lsp6router5testss_38test_bounded_bfs_traversal_depth_limit0B9_
FN:109,_RNvMNtNtCscx2lCY9pHX3_9lens_core3lsp6routerNtB2_11IntentStats12routing_rate
FN:123,_RNvMNtNtCscx2lCY9pHX3_9lens_core3lsp6routerNtB2_11IntentStats14update_failure
FN:117,_RNvMNtNtCscx2lCY9pHX3_9lens_core3lsp6routerNtB2_11IntentStats14update_success
FN:129,_RNvMNtNtCscx2lCY9pHX3_9lens_core3lsp6routerNtB2_11IntentStats18update_avg_latency
FN:136,_RNvMNtNtCscx2lCY9pHX3_9lens_core3lsp6routerNtB2_11IntentStats24recalculate_success_rate
FN:230,_RNvMs1_NtNtCscx2lCY9pHX3_9lens_core3lsp6routerNtB5_9LspRouter12should_route
FN:385,_RNvMs1_NtNtCscx2lCY9pHX3_9lens_core3lsp6routerNtB5_9LspRouter16get_intent_stats
FN:642,_RNvMs1_NtNtCscx2lCY9pHX3_9lens_core3lsp6routerNtB5_9LspRouter17get_lsp_neighbors
FN:520,_RNvMs1_NtNtCscx2lCY9pHX3_9lens_core3lsp6routerNtB5_9LspRouter17get_routing_stats
FN:503,_RNvMs1_NtNtCscx2lCY9pHX3_9lens_core3lsp6routerNtB5_9LspRouter17report_lsp_result
FN:337,_RNvMs1_NtNtCscx2lCY9pHX3_9lens_core3lsp6routerNtB5_9LspRouter20calculate_complexity
FN:480,_RNvMs1_NtNtCscx2lCY9pHX3_9lens_core3lsp6routerNtB5_9LspRouter20update_routing_stats
FN:287,_RNvMs1_NtNtCscx2lCY9pHX3_9lens_core3lsp6routerNtB5_9LspRouter21analyze_query_pattern
FN:540,_RNvMs1_NtNtCscx2lCY9pHX3_9lens_core3lsp6routerNtB5_9LspRouter21bounded_bfs_traversal
FN:245,_RNvMs1_NtNtCscx2lCY9pHX3_9lens_core3lsp6routerNtB5_9LspRouter21make_routing_decision
FN:456,_RNvMs1_NtNtCscx2lCY9pHX3_9lens_core3lsp6routerNtB5_9LspRouter24apply_safety_constraints
FN:435,_RNvMs1_NtNtCscx2lCY9pHX3_9lens_core3lsp6routerNtB5_9LspRouter26apply_adaptive_adjustments
FN:328,_RNvMs1_NtNtCscx2lCY9pHX3_9lens_core3lsp6routerNtB5_9LspRouter26detect_identifier_patterns
FN:318,_RNvMs1_NtNtCscx2lCY9pHX3_9lens_core3lsp6routerNtB5_9LspRouter26detect_structural_patterns
FN:359,_RNvMs1_NtNtCscx2lCY9pHX3_9lens_core3lsp6routerNtB5_9LspRouter26estimate_lsp_effectiveness
FN:390,_RNvMs1_NtNtCscx2lCY9pHX3_9lens_core3lsp6routerNtB5_9LspRouter34calculate_base_routing_probability
FN:211,_RNvMs1_NtNtCscx2lCY9pHX3_9lens_core3lsp6routerNtB5_9LspRouter3new
FN:782,_RNvMs2_NtNtCscx2lCY9pHX3_9lens_core3lsp6routerNtB5_12RoutingStats16is_within_target
FN:184,_RNvXs_NtNtCscx2lCY9pHX3_9lens_core3lsp6routerNtB4_13RoutingConfigNtNtCs66KPHxksi63_4core7default7Default7default
FNDA:5,_RNvNtNtNtCscx2lCY9pHX3_9lens_core3lsp6router5tests21cleanup_router_safely
FNDA:5,_RNvNtNtNtCscx2lCY9pHX3_9lens_core3lsp6router5tests27create_isolated_test_router
FNDA:4,_RNvNtNtNtCscx2lCY9pHX3_9lens_core3lsp6router5tests30create_test_router_with_config
FNDA:1,_RNvNtNtNtCscx2lCY9pHX3_9lens_core3lsp6router5testss_19test_bfs_edge_types
FNDA:1,_RNvNtNtNtCscx2lCY9pHX3_9lens_core3lsp6router5testss_20test_router_creation
FNDA:1,_RNvNtNtNtCscx2lCY9pHX3_9lens_core3lsp6router5testss_21test_adaptive_routing
FNDA:1,_RNvNtNtNtCscx2lCY9pHX3_9lens_core3lsp6router5testss_22test_bfs_node_equality
FNDA:1,_RNvNtNtNtCscx2lCY9pHX3_9lens_core3lsp6router5testss_22test_high_load_routing
FNDA:1,_RNvNtNtNtCscx2lCY9pHX3_9lens_core3lsp6router5testss_23test_concurrent_routing
FNDA:1,_RNvNtNtNtCscx2lCY9pHX3_9lens_core3lsp6router5testss_23test_edge_type_equality
FNDA:1,_RNvNtNtNtCscx2lCY9pHX3_9lens_core3lsp6router5testss_23test_routing_statistics
FNDA:1,_RNvNtNtNtCscx2lCY9pHX3_9lens_core3lsp6router5testss_23test_safety_constraints
FNDA:1,_RNvNtNtNtCscx2lCY9pHX3_9lens_core3lsp6router5testss_24test_bfs_cycle_detection
FNDA:1,_RNvNtNtNtCscx2lCY9pHX3_9lens_core3lsp6router5testss_24test_bfs_empty_neighbors
FNDA:1,_RNvNtNtNtCscx2lCY9pHX3_9lens_core3lsp6router5testss_24test_empty_query_routing
FNDA:1,_RNvNtNtNtCscx2lCY9pHX3_9lens_core3lsp6router5testss_25test_lsp_result_reporting
FNDA:1,_RNvNtNtNtCscx2lCY9pHX3_9lens_core3lsp6router5testss_25test_symbol_type_equality
FNDA:1,_RNvNtNtNtCscx2lCY9pHX3_9lens_core3lsp6router5testss_26test_pattern_cache_cleanup
FNDA:1,_RNvNtNtNtCscx2lCY9pHX3_9lens_core3lsp6router5testss_26test_query_pattern_caching
FNDA:1,_RNvNtNtNtCscx2lCY9pHX3_9lens_core3lsp6router5testss_27test_complexity_calculation
FNDA:1,_RNvNtNtNtCscx2lCY9pHX3_9lens_core3lsp6router5testss_27test_router_basic_decisions
FNDA:1,_RNvNtNtNtCscx2lCY9pHX3_9lens_core3lsp6router5testss_27test_routing_stats_accuracy
FNDA:1,_RNvNtNtNtCscx2lCY9pHX3_9lens_core3lsp6router5testss_27test_unicode_query_handling
FNDA:1,_RNvNtNtNtCscx2lCY9pHX3_9lens_core3lsp6router5testss_28test_routing_config_defaults
FNDA:1,_RNvNtNtNtCscx2lCY9pHX3_9lens_core3lsp6router5testss_28test_routing_reason_variants
FNDA:1,_RNvNtNtNtCscx2lCY9pHX3_9lens_core3lsp6router5testss_28test_very_long_query_routing
FNDA:1,_RNvNtNtNtCscx2lCY9pHX3_9lens_core3lsp6router5testss_29test_bfs_symbol_relationships
FNDA:1,_RNvNtNtNtCscx2lCY9pHX3_9lens_core3lsp6router5testss_30test_adaptive_adjustment_logic
FNDA:1,_RNvNtNtNtCscx2lCY9pHX3_9lens_core3lsp6router5testss_30test_intent_stats_routing_rate
FNDA:1,_RNvNtNtNtCscx2lCY9pHX3_9lens_core3lsp6router5testss_30test_pattern_cache_performance
FNDA:1,_RNvNtNtNtCscx2lCY9pHX3_9lens_core3lsp6router5testss_30test_routing_decision_creation
FNDA:1,_RNvNtNtNtCscx2lCY9pHX3_9lens_core3lsp6router5testss_31test_bounded_bfs_todo_md_bounds
FNDA:1,_RNvNtNtNtCscx2lCY9pHX3_9lens_core3lsp6router5testss_31test_detailed_routing_decisions
FNDA:1,_RNvNtNtNtCscx2lCY9pHX3_9lens_core3lsp6router5testss_31test_estimate_lsp_effectiveness
FNDA:1,_RNvNtNtNtCscx2lCY9pHX3_9lens_core3lsp6router5testss_31test_intent_eligibility_routing
FNDA:1,_RNvNtNtNtCscx2lCY9pHX3_9lens_core3lsp6router5testss_31test_intent_stats_mixed_results
FNDA:1,_RNvNtNtNtCscx2lCY9pHX3_9lens_core3lsp6router5testss_32test_bounded_bfs_traversal_basic
FNDA:1,_RNvNtNtNtCscx2lCY9pHX3_9lens_core3lsp6router5testss_32test_concurrent_result_reporting
FNDA:1,_RNvNtNtNtCscx2lCY9pHX3_9lens_core3lsp6router5testss_33test_intent_stats_failure_updates
FNDA:1,_RNvNtNtNtCscx2lCY9pHX3_9lens_core3lsp6router5testss_33test_intent_stats_success_updates
FNDA:1,_RNvNtNtNtCscx2lCY9pHX3_9lens_core3lsp6router5testss_34test_routing_stats_target_checking
FNDA:1,_RNvNtNtNtCscx2lCY9pHX3_9lens_core3lsp6router5testss_36test_calculate_complexity_edge_cases
FNDA:1,_RNvNtNtNtCscx2lCY9pHX3_9lens_core3lsp6router5testss_37test_bounded_bfs_traversal_node_limit
FNDA:1,_RNvNtNtNtCscx2lCY9pHX3_9lens_core3lsp6router5testss_38test_bounded_bfs_traversal_depth_limit
FNDA:1,_RNvNtNtNtCscx2lCY9pHX3_9lens_core3lsp6router5testss_45test_detect_identifier_patterns_comprehensive
FNDA:1,_RNvNtNtNtCscx2lCY9pHX3_9lens_core3lsp6router5testss_45test_detect_structural_patterns_comprehensive
FNDA:143,_RNCNvMs1_NtNtCscx2lCY9pHX3_9lens_core3lsp6routerNtB7_9LspRouter12should_route0Bb_
FNDA:131,_RNCNvMs1_NtNtCscx2lCY9pHX3_9lens_core3lsp6routerNtB7_9LspRouter16get_intent_stats0Bb_
FNDA:24,_RNCNvMs1_NtNtCscx2lCY9pHX3_9lens_core3lsp6routerNtB7_9LspRouter17get_lsp_neighbors0Bb_
FNDA:8,_RNCNvMs1_NtNtCscx2lCY9pHX3_9lens_core3lsp6routerNtB7_9LspRouter17get_routing_stats0Bb_
FNDA:33,_RNCNvMs1_NtNtCscx2lCY9pHX3_9lens_core3lsp6routerNtB7_9LspRouter17report_lsp_result0Bb_
FNDA:4949,_RNCNvMs1_NtNtCscx2lCY9pHX3_9lens_core3lsp6routerNtB7_9LspRouter20calculate_complexity0Bb_
FNDA:143,_RNCNvMs1_NtNtCscx2lCY9pHX3_9lens_core3lsp6routerNtB7_9LspRouter20update_routing_stats0Bb_
FNDA:251,_RNCNvMs1_NtNtCscx2lCY9pHX3_9lens_core3lsp6routerNtB7_9LspRouter21analyze_query_pattern0Bb_
FNDA:13,_RNCNvMs1_NtNtCscx2lCY9pHX3_9lens_core3lsp6routerNtB7_9LspRouter21bounded_bfs_traversal0Bb_
FNDA:163,_RNCNvMs1_NtNtCscx2lCY9pHX3_9lens_core3lsp6routerNtB7_9LspRouter21make_routing_decision0Bb_
FNDA:132,_RNCNvMs1_NtNtCscx2lCY9pHX3_9lens_core3lsp6routerNtB7_9LspRouter26apply_adaptive_adjustments0Bb_
FNDA:8124,_RNCNvMs1_NtNtCscx2lCY9pHX3_9lens_core3lsp6routerNtB7_9LspRouter26detect_identifier_patterns0Bb_
FNDA:137,_RNCNvMs1_NtNtCscx2lCY9pHX3_9lens_core3lsp6routerNtB7_9LspRouter26detect_identifier_patternss_0Bb_
FNDA:3745,_RNCNvMs1_NtNtCscx2lCY9pHX3_9lens_core3lsp6routerNtB7_9LspRouter26detect_structural_patterns0Bb_
FNDA:131,_RNCNvMs1_NtNtCscx2lCY9pHX3_9lens_core3lsp6routerNtB7_9LspRouter34calculate_base_routing_probability0Bb_
FNDA:93,_RNvXs0_NtNtCscx2lCY9pHX3_9lens_core3lsp6routerNtB5_9LspRouterNtNtNtCs66KPHxksi63_4core3ops4drop4Drop4drop
FNDA:100,_RNCNCNvNtNtNtCscx2lCY9pHX3_9lens_core3lsp6router5testss_22test_high_load_routing00Bb_
FNDA:10,_RNCNCNvNtNtNtCscx2lCY9pHX3_9lens_core3lsp6router5testss_23test_concurrent_routing00Bb_
FNDA:3,_RNCNCNvNtNtNtCscx2lCY9pHX3_9lens_core3lsp6router5testss_24test_bfs_cycle_detection00Bb_
FNDA:10,_RNCNCNvNtNtNtCscx2lCY9pHX3_9lens_core3lsp6router5testss_32test_concurrent_result_reporting00Bb_
FNDA:5,_RNCNvNtNtNtCscx2lCY9pHX3_9lens_core3lsp6router5tests21cleanup_router_safely0B9_
FNDA:1,_RNCNvNtNtNtCscx2lCY9pHX3_9lens_core3lsp6router5testss_19test_bfs_edge_types0B9_
FNDA:1,_RNCNvNtNtNtCscx2lCY9pHX3_9lens_core3lsp6router5testss_21test_adaptive_routing0B9_
FNDA:1,_RNCNvNtNtNtCscx2lCY9pHX3_9lens_core3lsp6router5testss_22test_bfs_node_equality0B9_
FNDA:1,_RNCNvNtNtNtCscx2lCY9pHX3_9lens_core3lsp6router5testss_22test_high_load_routing0B9_
FNDA:1,_RNCNvNtNtNtCscx2lCY9pHX3_9lens_core3lsp6router5testss_23test_concurrent_routing0B9_
FNDA:1,_RNCNvNtNtNtCscx2lCY9pHX3_9lens_core3lsp6router5testss_23test_edge_type_equality0B9_
FNDA:1,_RNCNvNtNtNtCscx2lCY9pHX3_9lens_core3lsp6router5testss_23test_routing_statistics0B9_
FNDA:1,_RNCNvNtNtNtCscx2lCY9pHX3_9lens_core3lsp6router5testss_23test_safety_constraints0B9_
FNDA:1,_RNCNvNtNtNtCscx2lCY9pHX3_9lens_core3lsp6router5testss_24test_bfs_cycle_detection0B9_
FNDA:1,_RNCNvNtNtNtCscx2lCY9pHX3_9lens_core3lsp6router5testss_24test_bfs_empty_neighbors0B9_
FNDA:1,_RNCNvNtNtNtCscx2lCY9pHX3_9lens_core3lsp6router5testss_24test_empty_query_routing0B9_
FNDA:1,_RNCNvNtNtNtCscx2lCY9pHX3_9lens_core3lsp6router5testss_25test_lsp_result_reporting0B9_
FNDA:1,_RNCNvNtNtNtCscx2lCY9pHX3_9lens_core3lsp6router5testss_25test_symbol_type_equality0B9_
FNDA:1,_RNCNvNtNtNtCscx2lCY9pHX3_9lens_core3lsp6router5testss_26test_pattern_cache_cleanup0B9_
FNDA:1,_RNCNvNtNtNtCscx2lCY9pHX3_9lens_core3lsp6router5testss_26test_query_pattern_caching0B9_
FNDA:1,_RNCNvNtNtNtCscx2lCY9pHX3_9lens_core3lsp6router5testss_27test_router_basic_decisions0B9_
FNDA:1,_RNCNvNtNtNtCscx2lCY9pHX3_9lens_core3lsp6router5testss_27test_routing_stats_accuracy0B9_
FNDA:1,_RNCNvNtNtNtCscx2lCY9pHX3_9lens_core3lsp6router5testss_27test_unicode_query_handling0B9_
FNDA:1,_RNCNvNtNtNtCscx2lCY9pHX3_9lens_core3lsp6router5testss_28test_very_long_query_routing0B9_
FNDA:1,_RNCNvNtNtNtCscx2lCY9pHX3_9lens_core3lsp6router5testss_29test_bfs_symbol_relationships0B9_
FNDA:1,_RNCNvNtNtNtCscx2lCY9pHX3_9lens_core3lsp6router5testss_30test_adaptive_adjustment_logic0B9_
FNDA:1,_RNCNvNtNtNtCscx2lCY9pHX3_9lens_core3lsp6router5testss_30test_pattern_cache_performance0B9_
FNDA:1,_RNCNvNtNtNtCscx2lCY9pHX3_9lens_core3lsp6router5testss_31test_bounded_bfs_todo_md_bounds0B9_
FNDA:1,_RNCNvNtNtNtCscx2lCY9pHX3_9lens_core3lsp6router5testss_31test_detailed_routing_decisions0B9_
FNDA:1,_RNCNvNtNtNtCscx2lCY9pHX3_9lens_core3lsp6router5testss_31test_intent_eligibility_routing0B9_
FNDA:1,_RNCNvNtNtNtCscx2lCY9pHX3_9lens_core3lsp6router5testss_32test_bounded_bfs_traversal_basic0B9_
FNDA:1,_RNCNvNtNtNtCscx2lCY9pHX3_9lens_core3lsp6router5testss_32test_concurrent_result_reporting0B9_
FNDA:1,_RNCNvNtNtNtCscx2lCY9pHX3_9lens_core3lsp6router5testss_37test_bounded_bfs_traversal_node_limit0B9_
FNDA:1,_RNCNvNtNtNtCscx2lCY9pHX3_9lens_core3lsp6router5testss_38test_bounded_bfs_traversal_depth_limit0B9_
FNDA:3,_RNvMNtNtCscx2lCY9pHX3_9lens_core3lsp6routerNtB2_11IntentStats12routing_rate
FNDA:9,_RNvMNtNtCscx2lCY9pHX3_9lens_core3lsp6routerNtB2_11IntentStats14update_failure
FNDA:33,_RNvMNtNtCscx2lCY9pHX3_9lens_core3lsp6routerNtB2_11IntentStats14update_success
FNDA:42,_RNvMNtNtCscx2lCY9pHX3_9lens_core3lsp6routerNtB2_11IntentStats18update_avg_latency
FNDA:42,_RNvMNtNtCscx2lCY9pHX3_9lens_core3lsp6routerNtB2_11IntentStats24recalculate_success_rate
FNDA:143,_RNvMs1_NtNtCscx2lCY9pHX3_9lens_core3lsp6routerNtB5_9LspRouter12should_route
FNDA:131,_RNvMs1_NtNtCscx2lCY9pHX3_9lens_core3lsp6routerNtB5_9LspRouter16get_intent_stats
FNDA:24,_RNvMs1_NtNtCscx2lCY9pHX3_9lens_core3lsp6routerNtB5_9LspRouter17get_lsp_neighbors
FNDA:8,_RNvMs1_NtNtCscx2lCY9pHX3_9lens_core3lsp6routerNtB5_9LspRouter17get_routing_stats
FNDA:33,_RNvMs1_NtNtCscx2lCY9pHX3_9lens_core3lsp6routerNtB5_9LspRouter17report_lsp_result
FNDA:231,_RNvMs1_NtNtCscx2lCY9pHX3_9lens_core3lsp6routerNtB5_9LspRouter20calculate_complexity
FNDA:143,_RNvMs1_NtNtCscx2lCY9pHX3_9lens_core3lsp6routerNtB5_9LspRouter20update_routing_stats
FNDA:251,_RNvMs1_NtNtCscx2lCY9pHX3_9lens_core3lsp6routerNtB5_9LspRouter21analyze_query_pattern
FNDA:13,_RNvMs1_NtNtCscx2lCY9pHX3_9lens_core3lsp6routerNtB5_9LspRouter21bounded_bfs_traversal
FNDA:163,_RNvMs1_NtNtCscx2lCY9pHX3_9lens_core3lsp6routerNtB5_9LspRouter21make_routing_decision
FNDA:131,_RNvMs1_NtNtCscx2lCY9pHX3_9lens_core3lsp6routerNtB5_9LspRouter24apply_safety_constraints
FNDA:132,_RNvMs1_NtNtCscx2lCY9pHX3_9lens_core3lsp6routerNtB5_9LspRouter26apply_adaptive_adjustments
FNDA:459,_RNvMs1_NtNtCscx2lCY9pHX3_9lens_core3lsp6routerNtB5_9LspRouter26detect_identifier_patterns
FNDA:462,_RNvMs1_NtNtCscx2lCY9pHX3_9lens_core3lsp6routerNtB5_9LspRouter26detect_structural_patterns
FNDA:226,_RNvMs1_NtNtCscx2lCY9pHX3_9lens_core3lsp6routerNtB5_9LspRouter26estimate_lsp_effectiveness
FNDA:131,_RNvMs1_NtNtCscx2lCY9pHX3_9lens_core3lsp6routerNtB5_9LspRouter34calculate_base_routing_probability
FNDA:93,_RNvMs1_NtNtCscx2lCY9pHX3_9lens_core3lsp6routerNtB5_9LspRouter3new
FNDA:2,_RNvMs2_NtNtCscx2lCY9pHX3_9lens_core3lsp6routerNtB5_12RoutingStats16is_within_target
FNDA:98,_RNvXs_NtNtCscx2lCY9pHX3_9lens_core3lsp6routerNtB4_13RoutingConfigNtNtCs66KPHxksi63_4core7default7Default7default
FNF:120
FNH:120
DA:109,3
DA:110,3
DA:111,1
DA:113,2
DA:115,3
DA:117,33
DA:118,33
DA:119,33
DA:120,33
DA:121,33
DA:123,9
DA:124,9
DA:125,9
DA:126,9
DA:127,9
DA:129,42
DA:130,42
DA:131,42
DA:132,42
DA:133,42
DA:134,42
DA:136,42
DA:137,42
DA:138,42
DA:139,42
DA:140,42
DA:141,42
DA:184,98
DA:185,98
DA:186,98
DA:187,98
DA:188,98
DA:189,98
DA:190,98
DA:191,98
DA:192,98
DA:193,98
DA:194,98
DA:199,93
DA:201,93
DA:202,93
DA:203,93
DA:207,93
DA:211,93
DA:212,93
DA:213,93
DA:214,93
DA:215,93
DA:216,93
DA:218,93
DA:219,93
DA:220,93
DA:221,93
DA:222,93
DA:223,93
DA:224,93
DA:225,93
DA:226,93
DA:227,93
DA:230,143
DA:231,143
DA:233,143
DA:234,0
DA:239,143
DA:241,143
DA:242,143
DA:245,163
DA:246,163
DA:249,163
DA:250,32
DA:251,32
DA:252,32
DA:253,32
DA:254,32
DA:255,32
DA:256,131
DA:259,131
DA:262,131
DA:265,131
DA:268,131
DA:271,131
DA:273,131
DA:274,131
DA:276,0
DA:279,131
DA:280,131
DA:281,131
DA:282,131
DA:283,131
DA:284,131
DA:285,163
DA:287,251
DA:290,251
DA:291,251
DA:292,33
DA:293,218
DA:297,218
DA:298,218
DA:299,218
DA:300,218
DA:302,218
DA:303,218
DA:304,218
DA:305,218
DA:306,218
DA:307,218
DA:311,218
DA:312,218
DA:315,218
DA:316,251
DA:318,462
DA:319,462
DA:320,462
DA:321,462
DA:322,462
DA:324,462
DA:325,3745
DA:326,462
DA:328,459
DA:330,8124
DA:331,459
DA:332,459
DA:334,459
DA:335,459
DA:337,231
DA:338,231
DA:341,231
DA:344,231
DA:345,231
DA:348,4949
DA:349,231
DA:352,231
DA:353,6
DA:354,225
DA:356,231
DA:357,231
DA:359,226
DA:360,226
DA:363,226
DA:364,82
DA:365,144
DA:368,226
DA:369,163
DA:370,163
DA:373,226
DA:374,222
DA:375,222
DA:378,226
DA:379,3
DA:380,223
DA:382,226
DA:383,226
DA:385,131
DA:386,131
DA:387,131
DA:388,131
DA:390,131
DA:391,131
DA:394,131
DA:395,99
DA:396,27
DA:397,2
DA:398,3
DA:399,0
DA:403,131
DA:404,85
DA:405,85
DA:406,131
DA:407,63
DA:408,68
DA:411,131
DA:414,131
DA:415,1
DA:416,130
DA:419,131
DA:420,42
DA:421,0
DA:422,42
DA:423,42
DA:424,42
DA:427,42
DA:428,0
DA:429,42
DA:430,89
DA:432,131
DA:433,131
DA:435,132
DA:436,132
DA:437,132
DA:438,132
DA:440,132
DA:443,132
DA:444,1
DA:445,1
DA:446,1
DA:448,131
DA:449,102
DA:450,102
DA:451,102
DA:453,132
DA:454,132
DA:456,131
DA:458,131
DA:459,131
DA:460,100
DA:461,31
DA:462,0
DA:463,31
DA:464,9
DA:466,22
DA:470,0
DA:471,0
DA:472,0
DA:473,0
DA:475,0
DA:478,131
DA:480,143
DA:481,143
DA:482,112
DA:483,112
DA:486,143
DA:487,143
DA:488,143
DA:489,143
DA:490,112
DA:491,112
DA:494,143
DA:495,143
DA:496,143
DA:497,143
DA:498,143
DA:499,143
DA:500,143
DA:503,33
DA:504,33
DA:505,33
DA:507,33
DA:508,27
DA:509,27
DA:510,6
DA:511,6
DA:513,33
DA:514,0
DA:517,33
DA:520,8
DA:521,8
DA:522,8
DA:523,8
DA:525,8
DA:527,8
DA:528,8
DA:529,8
DA:530,8
DA:531,8
DA:532,8
DA:533,8
DA:534,8
DA:540,13
DA:541,13
DA:542,13
DA:543,13
DA:544,13
DA:545,13
DA:546,13
DA:548,13
DA:549,13
DA:550,13
DA:551,13
DA:552,13
DA:555,13
DA:556,13
DA:557,13
DA:558,13
DA:560,13
DA:561,13
DA:563,13
DA:564,0
DA:568,36
DA:569,24
DA:572,24
DA:573,0
DA:574,0
DA:575,0
DA:576,24
DA:579,24
DA:580,0
DA:581,0
DA:582,0
DA:583,24
DA:587,24
DA:588,24
DA:589,0
DA:590,0
DA:591,0
DA:595,51
DA:597,28
DA:598,0
DA:599,28
DA:602,28
DA:603,1
DA:604,1
DA:605,27
DA:608,27
DA:609,27
DA:610,27
DA:611,27
DA:614,27
DA:615,13
DA:616,14
DA:619,24
DA:620,1
DA:621,23
DA:624,13
DA:625,0
DA:629,13
DA:630,13
DA:631,13
DA:632,13
DA:633,13
DA:634,13
DA:635,13
DA:636,13
DA:642,24
DA:644,24
DA:645,0
DA:646,24
DA:648,24
DA:651,24
DA:654,11
DA:656,6
DA:657,5
DA:658,5
DA:659,5
DA:660,5
DA:661,5
DA:662,5
DA:663,5
DA:664,5
DA:665,5
DA:666,5
DA:667,5
DA:668,10
DA:669,10
DA:670,10
DA:671,10
DA:672,10
DA:673,10
DA:674,10
DA:675,10
DA:676,10
DA:677,10
DA:678,10
DA:679,10
DA:680,10
DA:682,11
DA:683,2
DA:684,2
DA:685,2
DA:686,2
DA:687,2
DA:688,2
DA:689,2
DA:690,2
DA:691,2
DA:692,2
DA:693,9
DA:696,6
DA:697,6
DA:698,6
DA:699,6
DA:700,6
DA:701,6
DA:702,6
DA:703,6
DA:704,6
DA:705,6
DA:706,6
DA:707,6
DA:708,6
DA:710,3
DA:711,3
DA:712,3
DA:713,3
DA:714,3
DA:715,3
DA:716,3
DA:717,3
DA:718,3
DA:719,3
DA:720,3
DA:721,3
DA:722,3
DA:724,1
DA:725,1
DA:726,1
DA:727,1
DA:728,1
DA:729,1
DA:730,1
DA:731,1
DA:732,1
DA:733,1
DA:734,1
DA:735,1
DA:736,1
DA:738,1
DA:739,1
DA:740,1
DA:741,1
DA:742,1
DA:743,1
DA:744,1
DA:745,1
DA:746,1
DA:747,1
DA:748,1
DA:749,1
DA:750,1
DA:752,2
DA:753,2
DA:754,2
DA:755,2
DA:756,2
DA:757,2
DA:758,2
DA:759,2
DA:760,2
DA:761,2
DA:762,2
DA:763,2
DA:764,2
DA:767,24
DA:768,24
DA:782,2
DA:783,2
DA:784,2
DA:794,4
DA:795,4
DA:796,4
DA:797,4
DA:798,4
DA:799,4
DA:800,4
DA:801,4
DA:802,4
DA:804,4
DA:805,4
DA:806,4
DA:807,4
DA:810,5
DA:812,5
DA:814,5
DA:815,5
DA:816,5
DA:817,5
DA:818,5
DA:821,5
DA:823,5
DA:826,5
DA:827,5
DA:828,5
DA:832,5
DA:833,5
DA:838,5
DA:839,5
DA:843,5
DA:846,5
DA:847,5
DA:851,1
DA:852,1
DA:853,1
DA:854,1
DA:855,1
DA:856,1
DA:857,1
DA:859,1
DA:860,1
DA:861,1
DA:862,1
DA:863,1
DA:867,1
DA:868,1
DA:869,1
DA:870,1
DA:871,1
DA:872,1
DA:873,1
DA:874,1
DA:875,1
DA:876,1
DA:877,1
DA:878,1
DA:882,11
DA:883,10
DA:884,10
DA:885,10
DA:887,1
DA:891,1
DA:892,1
DA:893,1
DA:895,1
DA:896,1
DA:897,1
DA:899,1
DA:900,1
DA:901,1
DA:904,1
DA:905,1
DA:908,1
DA:909,1
DA:910,1
DA:911,1
DA:912,1
DA:915,1
DA:916,1
DA:917,1
DA:918,1
DA:919,1
DA:922,1
DA:923,1
DA:926,1
DA:927,1
DA:929,1
DA:930,1
DA:931,1
DA:932,1
DA:933,1
DA:936,1
DA:937,1
DA:940,1
DA:941,1
DA:942,1
DA:943,1
DA:944,1
DA:946,1
DA:947,1
DA:948,1
DA:949,1
DA:950,1
DA:954,1
DA:955,1
DA:958,1
DA:959,1
DA:962,1
DA:963,1
DA:964,1
DA:965,1
DA:969,1
DA:971,1
DA:972,1
DA:973,1
DA:974,1
DA:975,1
DA:976,1
DA:977,1
DA:978,1
DA:979,1
DA:980,1
DA:981,1
DA:982,1
DA:985,1
DA:986,1
DA:989,1
DA:990,1
DA:991,1
DA:992,1
DA:993,1
DA:997,1
DA:999,1
DA:1000,1
DA:1001,1
DA:1002,1
DA:1003,1
DA:1004,1
DA:1005,1
DA:1008,1
DA:1009,1
DA:1010,1
DA:1013,1
DA:1014,1
DA:1015,1
DA:1016,1
DA:1017,1
DA:1018,1
DA:1022,1
DA:1024,1
DA:1027,1
DA:1030,1
DA:1033,1
DA:1034,1
DA:1035,1
DA:1038,1
DA:1039,1
DA:1042,1
DA:1043,1
DA:1044,1
DA:1047,1
DA:1048,1
DA:1049,1
DA:1053,1
DA:1055,1
DA:1056,1
DA:1059,1
DA:1060,1
DA:1063,1
DA:1064,1
DA:1067,1
DA:1068,1
DA:1071,1
DA:1072,1
DA:1075,1
DA:1076,1
DA:1077,1
DA:1080,1
DA:1081,1
DA:1082,1
DA:1086,1
DA:1087,1
DA:1088,1
DA:1090,1
DA:1091,1
DA:1093,1
DA:1094,1
DA:1095,1
DA:1098,1
DA:1099,1
DA:1100,1
DA:1101,1
DA:1102,1
DA:1103,1
DA:1104,1
DA:1105,1
DA:1106,1
DA:1107,1
DA:1111,1
DA:1112,1
DA:1115,1
DA:1116,1
DA:1117,1
DA:1118,1
DA:1122,1
DA:1123,1
DA:1126,1
DA:1127,1
DA:1128,1
DA:1129,1
DA:1130,1
DA:1131,1
DA:1132,1
DA:1133,1
DA:1134,1
DA:1137,9
DA:1138,8
DA:1140,8
DA:1141,0
DA:1142,8
DA:1146,1
DA:1147,1
DA:1148,1
DA:1149,1
DA:1153,1
DA:1154,1
DA:1157,1
DA:1158,1
DA:1159,1
DA:1160,1
DA:1161,1
DA:1164,1
DA:1166,1
DA:1167,1
DA:1168,1
DA:1172,1
DA:1173,1
DA:1176,11
DA:1177,10
DA:1178,10
DA:1179,10
DA:1180,0
DA:1183,1
DA:1184,1
DA:1186,1
DA:1187,1
DA:1188,1
DA:1189,1
DA:1193,1
DA:1194,1
DA:1197,1
DA:1198,1
DA:1199,1
DA:1201,1
DA:1202,1
DA:1203,1
DA:1204,1
DA:1205,1
DA:1206,1
DA:1207,1
DA:1208,1
DA:1212,1
DA:1213,1
DA:1216,1
DA:1217,1
DA:1218,1
DA:1219,1
DA:1220,1
DA:1223,6
DA:1224,5
DA:1225,5
DA:1228,1
DA:1229,1
DA:1230,1
DA:1231,1
DA:1234,1
DA:1235,1
DA:1236,1
DA:1237,1
DA:1238,1
DA:1239,1
DA:1240,1
DA:1241,1
DA:1243,1
DA:1244,1
DA:1245,1
DA:1249,1
DA:1250,1
DA:1251,1
DA:1254,11
DA:1255,10
DA:1256,10
DA:1257,10
DA:1258,10
DA:1259,10
DA:1260,10
DA:1264,11
DA:1265,10
DA:1267,10
DA:1270,1
DA:1271,1
DA:1272,1
DA:1276,1
DA:1277,1
DA:1278,1
DA:1281,11
DA:1282,10
DA:1283,10
DA:1284,10
DA:1285,10
DA:1286,10
DA:1287,10
DA:1288,10
DA:1292,11
DA:1293,10
DA:1296,1
DA:1297,1
DA:1298,1
DA:1299,1
DA:1300,1
DA:1301,1
DA:1302,1
DA:1303,1
DA:1307,1
DA:1308,1
DA:1309,1
DA:1311,1
DA:1312,1
DA:1313,1
DA:1314,1
DA:1315,1
DA:1319,7
DA:1320,6
DA:1324,1
DA:1325,7
DA:1326,6
DA:1328,1
DA:1331,1
DA:1332,1
DA:1336,1
DA:1337,1
DA:1340,1
DA:1341,1
DA:1342,1
DA:1345,1
DA:1346,1
DA:1347,1
DA:1350,1
DA:1351,1
DA:1352,1
DA:1354,1
DA:1356,1
DA:1358,1
DA:1359,1
DA:1362,1
DA:1363,1
DA:1366,1
DA:1367,1
DA:1368,1
DA:1370,1
DA:1371,1
DA:1372,1
DA:1373,1
DA:1376,6
DA:1377,5
DA:1378,5
DA:1379,1
DA:1380,5
DA:1381,5
DA:1382,5
DA:1383,1
DA:1384,1
DA:1388,1
DA:1389,1
DA:1390,1
DA:1391,1
DA:1394,1
DA:1395,1
DA:1397,1
DA:1398,1
DA:1399,1
DA:1400,1
DA:1404,1
DA:1405,1
DA:1408,21
DA:1409,20
DA:1411,20
DA:1412,4
DA:1413,16
DA:1417,1
DA:1418,1
DA:1419,1
DA:1420,1
DA:1423,1
DA:1424,1
DA:1425,1
DA:1426,1
DA:1430,1
DA:1432,1
DA:1435,1
DA:1436,1
DA:1441,1
DA:1442,1
DA:1443,1
DA:1446,1
DA:1447,1
DA:1448,1
DA:1451,1
DA:1452,1
DA:1453,1
DA:1456,1
DA:1457,1
DA:1458,1
DA:1459,1
DA:1463,1
DA:1464,1
DA:1467,101
DA:1468,100
DA:1469,100
DA:1473,1
DA:1474,1
DA:1478,1
DA:1482,1
DA:1483,1
DA:1486,1
DA:1487,11
DA:1488,10
DA:1489,10
DA:1490,10
DA:1491,10
DA:1493,10
DA:1494,0
DA:1497,1
DA:1498,1
DA:1499,1
DA:1500,1
DA:1503,1
DA:1504,1
DA:1505,1
DA:1506,1
DA:1507,1
DA:1508,1
DA:1509,1
DA:1510,1
DA:1514,1
DA:1515,1
DA:1516,1
DA:1519,101
DA:1520,100
DA:1521,100
DA:1522,100
DA:1523,34
DA:1524,66
DA:1525,33
DA:1527,33
DA:1530,100
DA:1531,25
DA:1532,75
DA:1533,25
DA:1534,50
DA:1535,25
DA:1537,25
DA:1540,100
DA:1541,100
DA:1542,100
DA:1546,1
DA:1547,101
DA:1548,100
DA:1549,75
DA:1550,75
DA:1553,1
DA:1554,1
DA:1555,1
DA:1558,1
DA:1559,1
DA:1560,1
DA:1564,1
DA:1565,1
DA:1566,1
DA:1567,1
DA:1568,1
DA:1569,1
DA:1570,1
DA:1572,1
DA:1573,1
DA:1574,1
DA:1575,1
DA:1576,1
DA:1577,1
DA:1578,1
DA:1580,1
DA:1583,1
DA:1584,1
DA:1587,1
DA:1588,1
DA:1591,1
DA:1592,1
DA:1595,1
DA:1596,1
DA:1597,1
DA:1598,1
DA:1599,1
DA:1600,1
DA:1601,1
DA:1603,1
DA:1604,1
DA:1605,1
DA:1606,1
DA:1607,1
DA:1608,1
DA:1609,1
DA:1611,1
DA:1614,1
DA:1617,1
DA:1620,1
DA:1621,1
DA:1624,1
DA:1625,1
DA:1626,1
DA:1627,1
DA:1628,1
DA:1629,1
DA:1630,1
DA:1632,1
DA:1633,1
DA:1634,1
DA:1635,1
DA:1636,1
DA:1637,1
DA:1638,1
DA:1640,1
DA:1643,1
DA:1644,1
DA:1647,1
DA:1648,1
DA:1651,1
DA:1652,1
DA:1655,1
DA:1656,1
DA:1657,1
DA:1658,1
DA:1659,1
DA:1661,1
DA:1662,1
DA:1663,1
DA:1664,1
DA:1665,1
DA:1666,1
DA:1667,1
DA:1669,1
DA:1672,1
DA:1673,1
DA:1674,1
DA:1677,1
DA:1678,1
DA:1679,1
DA:1682,1
DA:1683,1
DA:1684,1
DA:1685,1
DA:1686,1
DA:1687,1
DA:1688,1
DA:1691,7
DA:1692,6
DA:1693,6
DA:1694,6
DA:1695,6
DA:1696,6
DA:1697,6
DA:1698,6
DA:1699,1
DA:1700,6
DA:1701,1
DA:1702,1
DA:1703,6
DA:1704,1
DA:1705,1
DA:1706,6
DA:1707,6
DA:1708,6
DA:1709,6
DA:1710,1
DA:1711,12
DA:1712,6
DA:1713,6
DA:1714,1
DA:1715,1
DA:1716,1
DA:1717,1
DA:1718,1
DA:1719,1
DA:1720,1
DA:1723,1
DA:1724,1
DA:1725,1
DA:1727,1
DA:1728,1
DA:1729,1
DA:1730,1
DA:1731,1
DA:1732,1
DA:1733,1
DA:1735,1
DA:1738,1
DA:1740,1
DA:1741,1
DA:1742,1
DA:1743,1
DA:1744,1
DA:1745,1
DA:1746,1
DA:1747,1
DA:1750,1
DA:1751,1
DA:1752,1
DA:1753,1
DA:1754,1
DA:1755,1
DA:1756,1
DA:1758,1
DA:1759,1
DA:1760,1
DA:1761,1
DA:1762,1
DA:1763,1
DA:1764,1
DA:1766,1
DA:1769,1
DA:1770,4
DA:1771,3
DA:1772,3
DA:1773,0
DA:1779,1
DA:1780,3
DA:1781,1
DA:1783,3
DA:1784,2
DA:1785,1
DA:1786,1
DA:1789,1
DA:1791,1
DA:1792,1
DA:1793,1
DA:1794,1
DA:1795,1
DA:1796,1
DA:1799,1
DA:1800,1
DA:1801,1
DA:1802,1
DA:1803,1
DA:1804,1
DA:1805,1
DA:1808,1
DA:1809,1
DA:1810,1
DA:1811,1
DA:1812,0
DA:1814,0
DA:1815,0
DA:1816,0
DA:1817,0
DA:1818,0
DA:1819,0
DA:1820,0
DA:1821,0
DA:1827,1
DA:1828,1
DA:1829,1
DA:1830,1
DA:1833,1
DA:1836,1
DA:1837,1
DA:1838,1
DA:1841,1
DA:1842,1
DA:1843,1
DA:1844,1
DA:1845,1
DA:1848,1
DA:1849,1
DA:1850,1
DA:1851,1
DA:1852,1
DA:1853,1
DA:1854,1
DA:1855,1
DA:1857,1
DA:1858,1
DA:1859,1
DA:1860,1
DA:1861,1
DA:1862,1
DA:1863,1
DA:1865,1
DA:1866,1
DA:1867,1
DA:1868,1
DA:1869,1
DA:1870,1
DA:1871,1
DA:1873,1
DA:1874,1
DA:1875,1
DA:1878,1
DA:1879,1
DA:1880,1
DA:1881,1
DA:1882,1
BRF:0
BRH:0
LF:1271
LH:1224
end_of_record
SF:/home/nathan/Projects/lens/src/lsp/server_process.rs
FN:100,_RNCNvMNtNtCscx2lCY9pHX3_9lens_core3lsp14server_processNtB4_16LspServerProcess17wait_with_timeout0B8_
FN:163,_RNCNvMNtNtCscx2lCY9pHX3_9lens_core3lsp14server_processNtB4_16LspServerProcess7restart0B8_
FN:100,_RNvMNtNtCscx2lCY9pHX3_9lens_core3lsp14server_processNtB2_16LspServerProcess17wait_with_timeout
FN:163,_RNvMNtNtCscx2lCY9pHX3_9lens_core3lsp14server_processNtB2_16LspServerProcess7restart
FN:246,_RNvXs_NtNtCscx2lCY9pHX3_9lens_core3lsp14server_processNtB4_16LspServerProcessNtNtNtCs66KPHxksi63_4core3ops4drop4Drop4drop
FN:261,_RNCNvNtNtNtCscx2lCY9pHX3_9lens_core3lsp14server_process5testss_19test_command_exists0B9_
FN:270,_RNCNvNtNtNtCscx2lCY9pHX3_9lens_core3lsp14server_process5testss_22test_process_lifecycle0B9_
FN:70,_RNCNCNvMNtNtCscx2lCY9pHX3_9lens_core3lsp14server_processNtB6_16LspServerProcess14command_exists00Ba_
FN:31,_RNCNCNvMNtNtCscx2lCY9pHX3_9lens_core3lsp14server_processNtB6_16LspServerProcess3new00Ba_
FN:184,_RNCNvMNtNtCscx2lCY9pHX3_9lens_core3lsp14server_processNtB4_16LspServerProcess12health_check0B8_
FN:53,_RNCNvMNtNtCscx2lCY9pHX3_9lens_core3lsp14server_processNtB4_16LspServerProcess14command_exists0B8_
FN:211,_RNCNvMNtNtCscx2lCY9pHX3_9lens_core3lsp14server_processNtB4_16LspServerProcess17get_process_stats0B8_
FN:23,_RNCNvMNtNtCscx2lCY9pHX3_9lens_core3lsp14server_processNtB4_16LspServerProcess3new0B8_
FN:105,_RNCNvMNtNtCscx2lCY9pHX3_9lens_core3lsp14server_processNtB4_16LspServerProcess8shutdown0B8_
FN:261,_RNvNtNtNtCscx2lCY9pHX3_9lens_core3lsp14server_process5testss_19test_command_exists
FN:270,_RNvNtNtNtCscx2lCY9pHX3_9lens_core3lsp14server_process5testss_22test_process_lifecycle
FN:86,_RNvMNtNtCscx2lCY9pHX3_9lens_core3lsp14server_processNtB2_16LspServerProcess10is_running
FN:184,_RNvMNtNtCscx2lCY9pHX3_9lens_core3lsp14server_processNtB2_16LspServerProcess12health_check
FN:53,_RNvMNtNtCscx2lCY9pHX3_9lens_core3lsp14server_processNtB2_16LspServerProcess14command_exists
FN:211,_RNvMNtNtCscx2lCY9pHX3_9lens_core3lsp14server_processNtB2_16LspServerProcess17get_process_stats
FN:23,_RNvMNtNtCscx2lCY9pHX3_9lens_core3lsp14server_processNtB2_16LspServerProcess3new
FN:95,_RNvMNtNtCscx2lCY9pHX3_9lens_core3lsp14server_processNtB2_16LspServerProcess3pid
FN:76,_RNvMNtNtCscx2lCY9pHX3_9lens_core3lsp14server_processNtB2_16LspServerProcess5stdin
FN:81,_RNvMNtNtCscx2lCY9pHX3_9lens_core3lsp14server_processNtB2_16LspServerProcess6stdout
FN:105,_RNvMNtNtCscx2lCY9pHX3_9lens_core3lsp14server_processNtB2_16LspServerProcess8shutdown
FNDA:0,_RNCNvMNtNtCscx2lCY9pHX3_9lens_core3lsp14server_processNtB4_16LspServerProcess17wait_with_timeout0B8_
FNDA:0,_RNCNvMNtNtCscx2lCY9pHX3_9lens_core3lsp14server_processNtB4_16LspServerProcess7restart0B8_
FNDA:0,_RNvMNtNtCscx2lCY9pHX3_9lens_core3lsp14server_processNtB2_16LspServerProcess17wait_with_timeout
FNDA:0,_RNvMNtNtCscx2lCY9pHX3_9lens_core3lsp14server_processNtB2_16LspServerProcess7restart
FNDA:67,_RNvXs_NtNtCscx2lCY9pHX3_9lens_core3lsp14server_processNtB4_16LspServerProcessNtNtNtCs66KPHxksi63_4core3ops4drop4Drop4drop
FNDA:1,_RNCNvNtNtNtCscx2lCY9pHX3_9lens_core3lsp14server_process5testss_19test_command_exists0B9_
FNDA:1,_RNCNvNtNtNtCscx2lCY9pHX3_9lens_core3lsp14server_process5testss_22test_process_lifecycle0B9_
FNDA:0,_RNCNCNvMNtNtCscx2lCY9pHX3_9lens_core3lsp14server_processNtB6_16LspServerProcess14command_exists00Ba_
FNDA:0,_RNCNCNvMNtNtCscx2lCY9pHX3_9lens_core3lsp14server_processNtB6_16LspServerProcess3new00Ba_
FNDA:1,_RNCNvMNtNtCscx2lCY9pHX3_9lens_core3lsp14server_processNtB4_16LspServerProcess12health_check0B8_
FNDA:267,_RNCNvMNtNtCscx2lCY9pHX3_9lens_core3lsp14server_processNtB4_16LspServerProcess14command_exists0B8_
FNDA:1,_RNCNvMNtNtCscx2lCY9pHX3_9lens_core3lsp14server_processNtB4_16LspServerProcess17get_process_stats0B8_
FNDA:265,_RNCNvMNtNtCscx2lCY9pHX3_9lens_core3lsp14server_processNtB4_16LspServerProcess3new0B8_
FNDA:1,_RNCNvMNtNtCscx2lCY9pHX3_9lens_core3lsp14server_processNtB4_16LspServerProcess8shutdown0B8_
FNDA:1,_RNvNtNtNtCscx2lCY9pHX3_9lens_core3lsp14server_process5testss_19test_command_exists
FNDA:1,_RNvNtNtNtCscx2lCY9pHX3_9lens_core3lsp14server_process5testss_22test_process_lifecycle
FNDA:71,_RNvMNtNtCscx2lCY9pHX3_9lens_core3lsp14server_processNtB2_16LspServerProcess10is_running
FNDA:1,_RNvMNtNtCscx2lCY9pHX3_9lens_core3lsp14server_processNtB2_16LspServerProcess12health_check
FNDA:267,_RNvMNtNtCscx2lCY9pHX3_9lens_core3lsp14server_processNtB2_16LspServerProcess14command_exists
FNDA:1,_RNvMNtNtCscx2lCY9pHX3_9lens_core3lsp14server_processNtB2_16LspServerProcess17get_process_stats
FNDA:265,_RNvMNtNtCscx2lCY9pHX3_9lens_core3lsp14server_processNtB2_16LspServerProcess3new
FNDA:2,_RNvMNtNtCscx2lCY9pHX3_9lens_core3lsp14server_processNtB2_16LspServerProcess3pid
FNDA:66,_RNvMNtNtCscx2lCY9pHX3_9lens_core3lsp14server_processNtB2_16LspServerProcess5stdin
FNDA:66,_RNvMNtNtCscx2lCY9pHX3_9lens_core3lsp14server_processNtB2_16LspServerProcess6stdout
FNDA:1,_RNvMNtNtCscx2lCY9pHX3_9lens_core3lsp14server_processNtB2_16LspServerProcess8shutdown
FNF:25
FNH:19
DA:23,265
DA:24,265
DA:27,265
DA:28,198
DA:29,67
DA:31,67
DA:33,67
DA:34,67
DA:35,67
DA:36,67
DA:37,67
DA:38,67
DA:40,67
DA:42,67
DA:44,67
DA:45,67
DA:46,67
DA:47,67
DA:48,67
DA:49,67
DA:50,265
DA:53,267
DA:54,267
DA:55,267
DA:56,267
DA:57,267
DA:59,267
DA:60,267
DA:63,0
DA:64,0
DA:65,0
DA:66,0
DA:67,0
DA:68,0
DA:70,0
DA:73,267
DA:76,66
DA:77,66
DA:78,66
DA:81,66
DA:82,66
DA:83,66
DA:86,71
DA:87,71
DA:88,68
DA:89,3
DA:90,0
DA:92,71
DA:95,2
DA:96,2
DA:97,2
DA:100,0
DA:101,0
DA:102,0
DA:105,1
DA:106,1
DA:107,0
DA:108,0
DA:109,1
DA:111,1
DA:114,1
DA:116,1
DA:117,1
DA:118,1
DA:119,1
DA:120,1
DA:121,1
DA:123,1
DA:124,1
DA:125,1
DA:126,0
DA:129,1
DA:130,1
DA:131,1
DA:132,1
DA:133,1
DA:135,0
DA:136,0
DA:139,0
DA:144,0
DA:145,0
DA:146,0
DA:148,0
DA:150,0
DA:152,0
DA:153,0
DA:154,0
DA:157,0
DA:159,0
DA:160,1
DA:163,0
DA:164,0
DA:167,0
DA:170,0
DA:171,0
DA:172,0
DA:173,0
DA:174,0
DA:175,0
DA:177,0
DA:179,0
DA:180,0
DA:181,0
DA:184,1
DA:185,1
DA:186,0
DA:187,0
DA:188,0
DA:189,0
DA:190,0
DA:191,0
DA:192,0
DA:193,1
DA:195,1
DA:196,1
DA:197,1
DA:198,0
DA:201,1
DA:202,1
DA:203,1
DA:204,1
DA:205,1
DA:206,1
DA:207,1
DA:208,1
DA:211,1
DA:213,1
DA:214,1
DA:215,1
DA:216,1
DA:218,1
DA:219,0
DA:220,1
DA:222,1
DA:223,1
DA:225,1
DA:226,1
DA:227,1
DA:228,1
DA:230,0
DA:232,1
DA:246,67
DA:247,67
DA:248,0
DA:250,0
DA:251,67
DA:252,67
DA:261,1
DA:263,1
DA:266,1
DA:267,1
DA:270,1
DA:272,1
DA:274,1
DA:275,1
DA:278,1
DA:279,1
DA:280,1
DA:283,1
DA:286,1
DA:288,1
DA:289,1
BRF:0
BRH:0
LF:175
LH:119
end_of_record
SF:/home/nathan/Projects/lens/src/metrics.rs
FN:263,_RNvMNtCscx2lCY9pHX3_9lens_core7metricsNtB2_16MetricsCollector15generate_report
FN:275,_RNvMNtCscx2lCY9pHX3_9lens_core7metricsNtB2_16MetricsCollector20check_sla_compliance
FN:317,_RNvMNtCscx2lCY9pHX3_9lens_core7metricsNtB2_16MetricsCollector24generate_recommendations
FN:285,_RNvMNtCscx2lCY9pHX3_9lens_core7metricsNtB2_16MetricsCollector27calculate_performance_grade
FN:552,_RNvNtCscx2lCY9pHX3_9lens_core7metrics22get_prometheus_metrics
FN:557,_RNvNtCscx2lCY9pHX3_9lens_core7metrics23record_prometheus_query
FN:566,_RNvNtCscx2lCY9pHX3_9lens_core7metrics32update_prometheus_system_metrics
FN:178,_RNCNvMNtCscx2lCY9pHX3_9lens_core7metricsNtB4_16MetricsCollector26update_performance_metrics0B6_
FN:545,_RNCNvNtCscx2lCY9pHX3_9lens_core7metrics23init_prometheus_metrics0B5_
FN:761,_RNvNtNtCscx2lCY9pHX3_9lens_core7metrics5testss_18test_reset_metrics
FN:616,_RNvNtNtCscx2lCY9pHX3_9lens_core7metrics5testss_24test_record_failed_query
FN:783,_RNvNtNtCscx2lCY9pHX3_9lens_core7metrics5testss_25test_sla_metrics_creation
FN:960,_RNvNtNtCscx2lCY9pHX3_9lens_core7metrics5testss_26test_language_distribution
FN:579,_RNvNtNtCscx2lCY9pHX3_9lens_core7metrics5testss_26test_metrics_collector_new
FN:899,_RNvNtNtCscx2lCY9pHX3_9lens_core7metrics5testss_27test_health_status_variants
FN:848,_RNvNtNtCscx2lCY9pHX3_9lens_core7metrics5testss_27test_performance_gate_equal
FN:679,_RNvNtNtCscx2lCY9pHX3_9lens_core7metrics5testss_27test_update_quality_metrics
FN:598,_RNvNtNtCscx2lCY9pHX3_9lens_core7metrics5testss_28test_record_successful_query
FN:629,_RNvNtNtCscx2lCY9pHX3_9lens_core7metrics5testss_29test_multiple_queries_average
FN:591,_RNvNtNtCscx2lCY9pHX3_9lens_core7metrics5testss_30test_metrics_collector_default
FN:816,_RNvNtNtCscx2lCY9pHX3_9lens_core7metrics5testss_31test_performance_gate_less_than
FN:912,_RNvNtNtCscx2lCY9pHX3_9lens_core7metrics5testss_31test_performance_grade_variants
FN:646,_RNvNtNtCscx2lCY9pHX3_9lens_core7metrics5testss_31test_update_performance_metrics
FN:704,_RNvNtNtCscx2lCY9pHX3_9lens_core7metrics5testss_33test_update_system_health_healthy
FN:833,_RNvNtNtCscx2lCY9pHX3_9lens_core7metrics5testss_34test_performance_gate_greater_than
FN:725,_RNvNtNtCscx2lCY9pHX3_9lens_core7metrics5testss_34test_update_system_health_degraded
FN:806,_RNvNtNtCscx2lCY9pHX3_9lens_core7metrics5testss_35test_sla_metrics_compliance_failure
FN:796,_RNvNtNtCscx2lCY9pHX3_9lens_core7metrics5testss_35test_sla_metrics_compliance_success
FN:743,_RNvNtNtCscx2lCY9pHX3_9lens_core7metrics5testss_35test_update_system_health_unhealthy
FN:925,_RNvNtNtCscx2lCY9pHX3_9lens_core7metrics5testss_37test_system_metrics_timestamp_updates
FN:666,_RNvNtNtCscx2lCY9pHX3_9lens_core7metrics5testss_37test_update_performance_metrics_empty
FN:940,_RNvNtNtCscx2lCY9pHX3_9lens_core7metrics5testss_38test_query_distribution_multiple_types
FN:863,_RNvNtNtCscx2lCY9pHX3_9lens_core7metrics5testss_40test_performance_gate_less_than_or_equal
FN:881,_RNvNtNtCscx2lCY9pHX3_9lens_core7metrics5testss_43test_performance_gate_greater_than_or_equal
FN:237,_RNvMNtCscx2lCY9pHX3_9lens_core7metricsNtB2_16MetricsCollector11get_metrics
FN:135,_RNvMNtCscx2lCY9pHX3_9lens_core7metricsNtB2_16MetricsCollector12record_query
FN:342,_RNvMNtCscx2lCY9pHX3_9lens_core7metricsNtB2_16MetricsCollector13get_cpu_usage
FN:337,_RNvMNtCscx2lCY9pHX3_9lens_core7metricsNtB2_16MetricsCollector16get_memory_usage
FN:215,_RNvMNtCscx2lCY9pHX3_9lens_core7metricsNtB2_16MetricsCollector20update_system_health
FN:198,_RNvMNtCscx2lCY9pHX3_9lens_core7metricsNtB2_16MetricsCollector22update_quality_metrics
FN:169,_RNvMNtCscx2lCY9pHX3_9lens_core7metricsNtB2_16MetricsCollector26update_performance_metrics
FN:85,_RNvMNtCscx2lCY9pHX3_9lens_core7metricsNtB2_16MetricsCollector3new
FN:242,_RNvMNtCscx2lCY9pHX3_9lens_core7metricsNtB2_16MetricsCollector5reset
FN:428,_RNvMs0_NtCscx2lCY9pHX3_9lens_core7metricsNtB5_10SlaMetrics12is_compliant
FN:416,_RNvMs0_NtCscx2lCY9pHX3_9lens_core7metricsNtB5_10SlaMetrics3new
FN:455,_RNvMs1_NtCscx2lCY9pHX3_9lens_core7metricsNtB5_15PerformanceGate3new
FN:465,_RNvMs1_NtCscx2lCY9pHX3_9lens_core7metricsNtB5_15PerformanceGate8evaluate
FN:498,_RNvNtCscx2lCY9pHX3_9lens_core7metrics23init_prometheus_metrics
FN:398,_RNvXs_NtCscx2lCY9pHX3_9lens_core7metricsNtB4_16MetricsCollectorNtNtCs66KPHxksi63_4core7default7Default7default
FNDA:0,_RNvMNtCscx2lCY9pHX3_9lens_core7metricsNtB2_16MetricsCollector15generate_report
FNDA:0,_RNvMNtCscx2lCY9pHX3_9lens_core7metricsNtB2_16MetricsCollector20check_sla_compliance
FNDA:0,_RNvMNtCscx2lCY9pHX3_9lens_core7metricsNtB2_16MetricsCollector24generate_recommendations
FNDA:0,_RNvMNtCscx2lCY9pHX3_9lens_core7metricsNtB2_16MetricsCollector27calculate_performance_grade
FNDA:0,_RNvNtCscx2lCY9pHX3_9lens_core7metrics22get_prometheus_metrics
FNDA:0,_RNvNtCscx2lCY9pHX3_9lens_core7metrics23record_prometheus_query
FNDA:0,_RNvNtCscx2lCY9pHX3_9lens_core7metrics32update_prometheus_system_metrics
FNDA:4,_RNCNvMNtCscx2lCY9pHX3_9lens_core7metricsNtB4_16MetricsCollector26update_performance_metrics0B6_
FNDA:0,_RNCNvNtCscx2lCY9pHX3_9lens_core7metrics23init_prometheus_metrics0B5_
FNDA:1,_RNvNtNtCscx2lCY9pHX3_9lens_core7metrics5testss_18test_reset_metrics
FNDA:1,_RNvNtNtCscx2lCY9pHX3_9lens_core7metrics5testss_24test_record_failed_query
FNDA:1,_RNvNtNtCscx2lCY9pHX3_9lens_core7metrics5testss_25test_sla_metrics_creation
FNDA:1,_RNvNtNtCscx2lCY9pHX3_9lens_core7metrics5testss_26test_language_distribution
FNDA:1,_RNvNtNtCscx2lCY9pHX3_9lens_core7metrics5testss_26test_metrics_collector_new
FNDA:1,_RNvNtNtCscx2lCY9pHX3_9lens_core7metrics5testss_27test_health_status_variants
FNDA:1,_RNvNtNtCscx2lCY9pHX3_9lens_core7metrics5testss_27test_performance_gate_equal
FNDA:1,_RNvNtNtCscx2lCY9pHX3_9lens_core7metrics5testss_27test_update_quality_metrics
FNDA:1,_RNvNtNtCscx2lCY9pHX3_9lens_core7metrics5testss_28test_record_successful_query
FNDA:1,_RNvNtNtCscx2lCY9pHX3_9lens_core7metrics5testss_29test_multiple_queries_average
FNDA:1,_RNvNtNtCscx2lCY9pHX3_9lens_core7metrics5testss_30test_metrics_collector_default
FNDA:1,_RNvNtNtCscx2lCY9pHX3_9lens_core7metrics5testss_31test_performance_gate_less_than
FNDA:1,_RNvNtNtCscx2lCY9pHX3_9lens_core7metrics5testss_31test_performance_grade_variants
FNDA:1,_RNvNtNtCscx2lCY9pHX3_9lens_core7metrics5testss_31test_update_performance_metrics
FNDA:1,_RNvNtNtCscx2lCY9pHX3_9lens_core7metrics5testss_33test_update_system_health_healthy
FNDA:1,_RNvNtNtCscx2lCY9pHX3_9lens_core7metrics5testss_34test_performance_gate_greater_than
FNDA:1,_RNvNtNtCscx2lCY9pHX3_9lens_core7metrics5testss_34test_update_system_health_degraded
FNDA:1,_RNvNtNtCscx2lCY9pHX3_9lens_core7metrics5testss_35test_sla_metrics_compliance_failure
FNDA:1,_RNvNtNtCscx2lCY9pHX3_9lens_core7metrics5testss_35test_sla_metrics_compliance_success
FNDA:1,_RNvNtNtCscx2lCY9pHX3_9lens_core7metrics5testss_35test_update_system_health_unhealthy
FNDA:1,_RNvNtNtCscx2lCY9pHX3_9lens_core7metrics5testss_37test_system_metrics_timestamp_updates
FNDA:1,_RNvNtNtCscx2lCY9pHX3_9lens_core7metrics5testss_37test_update_performance_metrics_empty
FNDA:1,_RNvNtNtCscx2lCY9pHX3_9lens_core7metrics5testss_38test_query_distribution_multiple_types
FNDA:1,_RNvNtNtCscx2lCY9pHX3_9lens_core7metrics5testss_40test_performance_gate_less_than_or_equal
FNDA:1,_RNvNtNtCscx2lCY9pHX3_9lens_core7metrics5testss_43test_performance_gate_greater_than_or_equal
FNDA:17,_RNvMNtCscx2lCY9pHX3_9lens_core7metricsNtB2_16MetricsCollector11get_metrics
FNDA:20,_RNvMNtCscx2lCY9pHX3_9lens_core7metricsNtB2_16MetricsCollector12record_query
FNDA:1,_RNvMNtCscx2lCY9pHX3_9lens_core7metricsNtB2_16MetricsCollector13get_cpu_usage
FNDA:1,_RNvMNtCscx2lCY9pHX3_9lens_core7metricsNtB2_16MetricsCollector16get_memory_usage
FNDA:3,_RNvMNtCscx2lCY9pHX3_9lens_core7metricsNtB2_16MetricsCollector20update_system_health
FNDA:1,_RNvMNtCscx2lCY9pHX3_9lens_core7metricsNtB2_16MetricsCollector22update_quality_metrics
FNDA:2,_RNvMNtCscx2lCY9pHX3_9lens_core7metricsNtB2_16MetricsCollector26update_performance_metrics
FNDA:79,_RNvMNtCscx2lCY9pHX3_9lens_core7metricsNtB2_16MetricsCollector3new
FNDA:1,_RNvMNtCscx2lCY9pHX3_9lens_core7metricsNtB2_16MetricsCollector5reset
FNDA:2,_RNvMs0_NtCscx2lCY9pHX3_9lens_core7metricsNtB5_10SlaMetrics12is_compliant
FNDA:3,_RNvMs0_NtCscx2lCY9pHX3_9lens_core7metricsNtB5_10SlaMetrics3new
FNDA:5,_RNvMs1_NtCscx2lCY9pHX3_9lens_core7metricsNtB5_15PerformanceGate3new
FNDA:12,_RNvMs1_NtCscx2lCY9pHX3_9lens_core7metricsNtB5_15PerformanceGate8evaluate
FNDA:1,_RNvNtCscx2lCY9pHX3_9lens_core7metrics23init_prometheus_metrics
FNDA:1,_RNvXs_NtCscx2lCY9pHX3_9lens_core7metricsNtB4_16MetricsCollectorNtNtCs66KPHxksi63_4core7default7Default7default
FNF:49
FNH:41
DA:85,79
DA:86,79
DA:87,79
DA:88,79
DA:89,79
DA:90,79
DA:91,79
DA:92,79
DA:93,79
DA:94,79
DA:95,79
DA:96,79
DA:97,79
DA:98,79
DA:99,79
DA:100,79
DA:101,79
DA:102,79
DA:103,79
DA:104,79
DA:105,79
DA:106,79
DA:107,79
DA:108,79
DA:109,79
DA:110,79
DA:111,79
DA:112,79
DA:113,79
DA:114,79
DA:115,79
DA:116,79
DA:117,79
DA:118,79
DA:119,79
DA:120,79
DA:121,79
DA:122,79
DA:123,79
DA:124,79
DA:125,79
DA:127,79
DA:128,79
DA:129,79
DA:130,79
DA:131,79
DA:132,79
DA:135,20
DA:136,20
DA:137,20
DA:138,20
DA:141,20
DA:142,20
DA:143,18
DA:144,18
DA:145,2
DA:146,2
DA:149,20
DA:152,20
DA:153,20
DA:156,20
DA:157,8
DA:158,12
DA:161,20
DA:162,20
DA:165,20
DA:166,20
DA:169,2
DA:170,2
DA:171,2
DA:173,2
DA:174,1
DA:175,1
DA:177,1
DA:178,4
DA:181,1
DA:182,1
DA:183,1
DA:184,1
DA:187,1
DA:188,1
DA:189,1
DA:190,1
DA:193,1
DA:194,1
DA:195,2
DA:198,1
DA:199,1
DA:201,1
DA:202,1
DA:203,1
DA:204,1
DA:205,1
DA:206,1
DA:207,1
DA:208,1
DA:209,1
DA:211,1
DA:212,1
DA:215,3
DA:216,3
DA:218,3
DA:219,3
DA:220,3
DA:223,3
DA:224,1
DA:225,2
DA:226,1
DA:228,1
DA:231,3
DA:232,1
DA:233,2
DA:234,3
DA:237,17
DA:238,17
DA:239,17
DA:242,1
DA:243,1
DA:244,1
DA:245,1
DA:247,1
DA:248,1
DA:249,1
DA:250,1
DA:251,1
DA:252,1
DA:253,1
DA:254,1
DA:256,1
DA:257,1
DA:259,1
DA:260,1
DA:263,0
DA:264,0
DA:265,0
DA:267,0
DA:268,0
DA:269,0
DA:270,0
DA:271,0
DA:272,0
DA:273,0
DA:275,0
DA:276,0
DA:279,0
DA:280,0
DA:281,0
DA:283,0
DA:285,0
DA:286,0
DA:288,0
DA:289,0
DA:290,0
DA:291,0
DA:292,0
DA:293,0
DA:295,0
DA:298,0
DA:299,0
DA:301,0
DA:304,0
DA:306,0
DA:307,0
DA:308,0
DA:309,0
DA:310,0
DA:311,0
DA:313,0
DA:315,0
DA:317,0
DA:318,0
DA:319,0
DA:321,0
DA:322,0
DA:323,0
DA:325,0
DA:326,0
DA:327,0
DA:329,0
DA:330,0
DA:331,0
DA:333,0
DA:334,0
DA:337,1
DA:339,1
DA:340,1
DA:342,1
DA:344,1
DA:345,1
DA:398,1
DA:399,1
DA:400,1
DA:416,3
DA:417,3
DA:418,3
DA:419,3
DA:420,3
DA:421,3
DA:422,3
DA:423,3
DA:424,3
DA:425,3
DA:426,3
DA:428,2
DA:429,2
DA:430,1
DA:431,1
DA:432,2
DA:455,5
DA:456,5
DA:457,5
DA:458,5
DA:459,5
DA:460,5
DA:461,5
DA:462,5
DA:463,5
DA:465,12
DA:466,12
DA:467,12
DA:468,2
DA:469,3
DA:470,2
DA:471,3
DA:472,2
DA:474,12
DA:475,12
DA:498,1
DA:502,1
DA:505,1
DA:506,0
DA:507,0
DA:508,1
DA:510,1
DA:511,1
DA:514,0
DA:516,1
DA:519,1
DA:520,0
DA:522,1
DA:525,1
DA:526,0
DA:528,1
DA:531,0
DA:533,1
DA:536,0
DA:538,1
DA:541,0
DA:544,1
DA:545,1
DA:547,1
DA:548,1
DA:549,1
DA:552,0
DA:553,0
DA:554,0
DA:557,0
DA:558,0
DA:559,0
DA:560,0
DA:561,0
DA:562,0
DA:563,0
DA:566,0
DA:567,0
DA:568,0
DA:569,0
DA:570,0
DA:571,0
DA:572,0
DA:579,1
DA:580,1
DA:581,1
DA:583,1
DA:584,1
DA:585,1
DA:586,1
DA:587,1
DA:588,1
DA:591,1
DA:592,1
DA:593,1
DA:594,1
DA:595,1
DA:598,1
DA:599,1
DA:601,1
DA:603,1
DA:604,1
DA:605,1
DA:606,1
DA:607,1
DA:610,1
DA:612,1
DA:613,1
DA:616,1
DA:617,1
DA:619,1
DA:621,1
DA:622,1
DA:623,1
DA:624,1
DA:625,1
DA:626,1
DA:629,1
DA:630,1
DA:632,1
DA:633,1
DA:635,1
DA:636,1
DA:637,1
DA:638,1
DA:640,1
DA:641,1
DA:642,1
DA:643,1
DA:646,1
DA:647,1
DA:650,1
DA:651,1
DA:652,1
DA:653,1
DA:654,1
DA:656,1
DA:658,1
DA:659,1
DA:660,1
DA:661,1
DA:662,1
DA:663,1
DA:666,1
DA:667,1
DA:670,1
DA:672,1
DA:673,1
DA:674,1
DA:675,1
DA:676,1
DA:679,1
DA:680,1
DA:682,1
DA:683,1
DA:684,1
DA:685,1
DA:686,1
DA:687,1
DA:688,1
DA:689,1
DA:690,1
DA:691,1
DA:692,1
DA:694,1
DA:696,1
DA:697,1
DA:698,1
DA:699,1
DA:700,1
DA:701,1
DA:704,1
DA:705,1
DA:707,1
DA:708,1
DA:709,1
DA:710,1
DA:711,1
DA:712,1
DA:714,1
DA:716,1
DA:717,1
DA:718,1
DA:719,1
DA:720,1
DA:721,1
DA:722,1
DA:725,1
DA:726,1
DA:728,1
DA:729,1
DA:730,1
DA:731,1
DA:732,1
DA:733,1
DA:735,1
DA:737,1
DA:738,1
DA:739,1
DA:740,1
DA:743,1
DA:744,1
DA:746,1
DA:747,1
DA:748,1
DA:749,1
DA:750,1
DA:751,1
DA:753,1
DA:755,1
DA:756,1
DA:757,1
DA:758,1
DA:761,1
DA:762,1
DA:765,1
DA:766,1
DA:768,1
DA:769,1
DA:772,1
DA:774,1
DA:775,1
DA:776,1
DA:777,1
DA:778,1
DA:779,1
DA:780,1
DA:783,1
DA:784,1
DA:786,1
DA:787,1
DA:788,1
DA:789,1
DA:790,1
DA:791,1
DA:792,1
DA:793,1
DA:796,1
DA:797,1
DA:798,1
DA:799,1
DA:800,1
DA:802,1
DA:803,1
DA:806,1
DA:807,1
DA:808,1
DA:809,1
DA:810,1
DA:812,1
DA:813,1
DA:816,1
DA:817,1
DA:818,1
DA:820,1
DA:823,1
DA:824,1
DA:825,1
DA:827,1
DA:828,1
DA:829,1
DA:830,1
DA:833,1
DA:834,1
DA:835,1
DA:837,1
DA:840,1
DA:841,1
DA:843,1
DA:844,1
DA:845,1
DA:848,1
DA:849,1
DA:850,1
DA:852,1
DA:855,1
DA:856,1
DA:858,1
DA:859,1
DA:860,1
DA:863,1
DA:864,1
DA:865,1
DA:867,1
DA:870,1
DA:871,1
DA:873,1
DA:874,1
DA:876,1
DA:877,1
DA:878,1
DA:881,1
DA:882,1
DA:883,1
DA:885,1
DA:888,1
DA:889,1
DA:891,1
DA:892,1
DA:894,1
DA:895,1
DA:896,1
DA:899,1
DA:901,1
DA:902,1
DA:903,1
DA:906,1
DA:907,1
DA:908,1
DA:909,1
DA:912,1
DA:913,1
DA:914,1
DA:915,1
DA:916,1
DA:918,1
DA:919,1
DA:920,1
DA:921,1
DA:922,1
DA:925,1
DA:926,1
DA:928,1
DA:929,1
DA:932,1
DA:933,1
DA:935,1
DA:936,1
DA:937,1
DA:940,1
DA:941,1
DA:943,1
DA:944,1
DA:945,1
DA:946,1
DA:948,1
DA:950,1
DA:951,1
DA:952,1
DA:953,1
DA:956,1
DA:957,1
DA:960,1
DA:961,1
DA:963,1
DA:964,1
DA:965,1
DA:966,1
DA:968,1
DA:970,1
DA:971,1
DA:973,1
DA:974,1
BRF:0
BRH:0
LF:542
LH:465
end_of_record
SF:/home/nathan/Projects/lens/src/pipeline/executor.rs
FN:432,_RNCNvMs0_NtNtCscx2lCY9pHX3_9lens_core8pipeline8executorNtB7_16PipelineExecutor11get_metrics0Bb_
FN:635,_RNCNvNtNtNtCscx2lCY9pHX3_9lens_core8pipeline8executor5tests25create_mock_search_engine0B9_
FN:432,_RNvMs0_NtNtCscx2lCY9pHX3_9lens_core8pipeline8executorNtB5_16PipelineExecutor11get_metrics
FN:635,_RNvNtNtNtCscx2lCY9pHX3_9lens_core8pipeline8executor5tests25create_mock_search_engine
FN:733,_RNvNtNtNtCscx2lCY9pHX3_9lens_core8pipeline8executor5testss_23test_post_process_stage
FN:740,_RNvNtNtNtCscx2lCY9pHX3_9lens_core8pipeline8executor5testss_24test_result_fusion_stage
FN:726,_RNvNtNtNtCscx2lCY9pHX3_9lens_core8pipeline8executor5testss_25test_query_analysis_stage
FN:661,_RNvNtNtNtCscx2lCY9pHX3_9lens_core8pipeline8executor5testss_28test_executor_metrics_update
FN:641,_RNvNtNtNtCscx2lCY9pHX3_9lens_core8pipeline8executor5testss_29test_executor_metrics_default
FN:706,_RNvNtNtNtCscx2lCY9pHX3_9lens_core8pipeline8executor5testss_30test_stopping_predictor_update
FN:675,_RNvNtNtNtCscx2lCY9pHX3_9lens_core8pipeline8executor5testss_31test_pipeline_executor_creation
FN:652,_RNvNtNtNtCscx2lCY9pHX3_9lens_core8pipeline8executor5testss_31test_stopping_predictor_default
FN:689,_RNvNtNtNtCscx2lCY9pHX3_9lens_core8pipeline8executor5testss_35test_stopping_predictor_should_stop
FN:266,_RNCNCNvMs0_NtNtCscx2lCY9pHX3_9lens_core8pipeline8executorNtB9_16PipelineExecutor14execute_stages00Bd_
FN:208,_RNCNCNvMs0_NtNtCscx2lCY9pHX3_9lens_core8pipeline8executorNtB9_16PipelineExecutor7execute00Bd_
FN:227,_RNCNCNvMs0_NtNtCscx2lCY9pHX3_9lens_core8pipeline8executorNtB9_16PipelineExecutor7execute0s_0Bd_
FN:505,_RNCNCNvXsb_NtNtCscx2lCY9pHX3_9lens_core8pipeline8executorNtB9_15LspRoutingStageNtBb_22PipelineStageProcessor7process00Bd_
FN:548,_RNCNCNvXsc_NtNtCscx2lCY9pHX3_9lens_core8pipeline8executorNtB9_19ParallelSearchStageNtBb_22PipelineStageProcessor7process00Bd_
FN:178,_RNCNvMs0_NtNtCscx2lCY9pHX3_9lens_core8pipeline8executorNtB7_16PipelineExecutor11init_stages0Bb_
FN:246,_RNCNvMs0_NtNtCscx2lCY9pHX3_9lens_core8pipeline8executorNtB7_16PipelineExecutor14execute_stages0Bb_
FN:401,_RNCNvMs0_NtNtCscx2lCY9pHX3_9lens_core8pipeline8executorNtB7_16PipelineExecutor14update_metrics0Bb_
FN:323,_RNCNvMs0_NtNtCscx2lCY9pHX3_9lens_core8pipeline8executorNtB7_16PipelineExecutor17should_stop_early0Bb_
FN:353,_RNCNvMs0_NtNtCscx2lCY9pHX3_9lens_core8pipeline8executorNtB7_16PipelineExecutor23estimate_result_quality0Bb_
FN:379,_RNCNvMs0_NtNtCscx2lCY9pHX3_9lens_core8pipeline8executorNtB7_16PipelineExecutor26estimate_result_confidence0Bb_
FN:136,_RNCNvMs0_NtNtCscx2lCY9pHX3_9lens_core8pipeline8executorNtB7_16PipelineExecutor3new0Bb_
FN:206,_RNCNvMs0_NtNtCscx2lCY9pHX3_9lens_core8pipeline8executorNtB7_16PipelineExecutor7execute0Bb_
FN:437,_RNCNvMs0_NtNtCscx2lCY9pHX3_9lens_core8pipeline8executorNtB7_16PipelineExecutor8shutdown0Bb_
FN:178,_RNvMs0_NtNtCscx2lCY9pHX3_9lens_core8pipeline8executorNtB5_16PipelineExecutor11init_stages
FN:246,_RNvMs0_NtNtCscx2lCY9pHX3_9lens_core8pipeline8executorNtB5_16PipelineExecutor14execute_stages
FN:401,_RNvMs0_NtNtCscx2lCY9pHX3_9lens_core8pipeline8executorNtB5_16PipelineExecutor14update_metrics
FN:323,_RNvMs0_NtNtCscx2lCY9pHX3_9lens_core8pipeline8executorNtB5_16PipelineExecutor17should_stop_early
FN:392,_RNvMs0_NtNtCscx2lCY9pHX3_9lens_core8pipeline8executorNtB5_16PipelineExecutor20estimate_buffer_size
FN:353,_RNvMs0_NtNtCscx2lCY9pHX3_9lens_core8pipeline8executorNtB5_16PipelineExecutor23estimate_result_quality
FN:379,_RNvMs0_NtNtCscx2lCY9pHX3_9lens_core8pipeline8executorNtB5_16PipelineExecutor26estimate_result_confidence
FN:136,_RNvMs0_NtNtCscx2lCY9pHX3_9lens_core8pipeline8executorNtB5_16PipelineExecutor3new
FN:206,_RNvMs0_NtNtCscx2lCY9pHX3_9lens_core8pipeline8executorNtB5_16PipelineExecutor7execute
FN:437,_RNvMs0_NtNtCscx2lCY9pHX3_9lens_core8pipeline8executorNtB5_16PipelineExecutor8shutdown
FN:454,_RNvMs1_NtNtCscx2lCY9pHX3_9lens_core8pipeline8executorNtB5_18QueryAnalysisStage3new
FN:495,_RNvMs2_NtNtCscx2lCY9pHX3_9lens_core8pipeline8executorNtB5_15LspRoutingStage3new
FN:534,_RNvMs3_NtNtCscx2lCY9pHX3_9lens_core8pipeline8executorNtB5_19ParallelSearchStage3new
FN:575,_RNvMs4_NtNtCscx2lCY9pHX3_9lens_core8pipeline8executorNtB5_17ResultFusionStage3new
FN:604,_RNvMs5_NtNtCscx2lCY9pHX3_9lens_core8pipeline8executorNtB5_16PostProcessStage3new
FN:82,_RNvMs_NtNtCscx2lCY9pHX3_9lens_core8pipeline8executorNtB4_17StoppingPredictor17should_stop_early
FN:102,_RNvMs_NtNtCscx2lCY9pHX3_9lens_core8pipeline8executorNtB4_17StoppingPredictor6update
FN:70,_RNvXNtNtCscx2lCY9pHX3_9lens_core8pipeline8executorNtB2_17StoppingPredictorNtNtCs66KPHxksi63_4core7default7Default7default
FN:484,_RNvXsa_NtNtCscx2lCY9pHX3_9lens_core8pipeline8executorNtB5_18QueryAnalysisStageNtB7_22PipelineStageProcessor15supports_fusion
FN:461,_RNvXsa_NtNtCscx2lCY9pHX3_9lens_core8pipeline8executorNtB5_18QueryAnalysisStageNtB7_22PipelineStageProcessor7process
FN:480,_RNvXsa_NtNtCscx2lCY9pHX3_9lens_core8pipeline8executorNtB5_18QueryAnalysisStageNtB7_22PipelineStageProcessor8stage_id
FN:522,_RNvXsb_NtNtCscx2lCY9pHX3_9lens_core8pipeline8executorNtB5_15LspRoutingStageNtB7_22PipelineStageProcessor15supports_fusion
FN:502,_RNvXsb_NtNtCscx2lCY9pHX3_9lens_core8pipeline8executorNtB5_15LspRoutingStageNtB7_22PipelineStageProcessor7process
FN:518,_RNvXsb_NtNtCscx2lCY9pHX3_9lens_core8pipeline8executorNtB5_15LspRoutingStageNtB7_22PipelineStageProcessor8stage_id
FN:561,_RNvXsc_NtNtCscx2lCY9pHX3_9lens_core8pipeline8executorNtB5_19ParallelSearchStageNtB7_22PipelineStageProcessor15supports_fusion
FN:565,_RNvXsc_NtNtCscx2lCY9pHX3_9lens_core8pipeline8executorNtB5_19ParallelSearchStageNtB7_22PipelineStageProcessor24estimate_processing_time
FN:544,_RNvXsc_NtNtCscx2lCY9pHX3_9lens_core8pipeline8executorNtB5_19ParallelSearchStageNtB7_22PipelineStageProcessor7process
FN:557,_RNvXsc_NtNtCscx2lCY9pHX3_9lens_core8pipeline8executorNtB5_19ParallelSearchStageNtB7_22PipelineStageProcessor8stage_id
FN:595,_RNvXsd_NtNtCscx2lCY9pHX3_9lens_core8pipeline8executorNtB5_17ResultFusionStageNtB7_22PipelineStageProcessor15supports_fusion
FN:582,_RNvXsd_NtNtCscx2lCY9pHX3_9lens_core8pipeline8executorNtB5_17ResultFusionStageNtB7_22PipelineStageProcessor7process
FN:591,_RNvXsd_NtNtCscx2lCY9pHX3_9lens_core8pipeline8executorNtB5_17ResultFusionStageNtB7_22PipelineStageProcessor8stage_id
FN:623,_RNvXse_NtNtCscx2lCY9pHX3_9lens_core8pipeline8executorNtB5_16PostProcessStageNtB7_22PipelineStageProcessor15supports_fusion
FN:611,_RNvXse_NtNtCscx2lCY9pHX3_9lens_core8pipeline8executorNtB5_16PostProcessStageNtB7_22PipelineStageProcessor7process
FN:619,_RNvXse_NtNtCscx2lCY9pHX3_9lens_core8pipeline8executorNtB5_16PostProcessStageNtB7_22PipelineStageProcessor8stage_id
FN:733,_RNCNvNtNtNtCscx2lCY9pHX3_9lens_core8pipeline8executor5testss_23test_post_process_stage0B9_
FN:740,_RNCNvNtNtNtCscx2lCY9pHX3_9lens_core8pipeline8executor5testss_24test_result_fusion_stage0B9_
FN:726,_RNCNvNtNtNtCscx2lCY9pHX3_9lens_core8pipeline8executor5testss_25test_query_analysis_stage0B9_
FN:675,_RNCNvNtNtNtCscx2lCY9pHX3_9lens_core8pipeline8executor5testss_31test_pipeline_executor_creation0B9_
FNDA:0,_RNCNvMs0_NtNtCscx2lCY9pHX3_9lens_core8pipeline8executorNtB7_16PipelineExecutor11get_metrics0Bb_
FNDA:0,_RNCNvNtNtNtCscx2lCY9pHX3_9lens_core8pipeline8executor5tests25create_mock_search_engine0B9_
FNDA:0,_RNvMs0_NtNtCscx2lCY9pHX3_9lens_core8pipeline8executorNtB5_16PipelineExecutor11get_metrics
FNDA:0,_RNvNtNtNtCscx2lCY9pHX3_9lens_core8pipeline8executor5tests25create_mock_search_engine
FNDA:1,_RNvNtNtNtCscx2lCY9pHX3_9lens_core8pipeline8executor5testss_23test_post_process_stage
FNDA:1,_RNvNtNtNtCscx2lCY9pHX3_9lens_core8pipeline8executor5testss_24test_result_fusion_stage
FNDA:1,_RNvNtNtNtCscx2lCY9pHX3_9lens_core8pipeline8executor5testss_25test_query_analysis_stage
FNDA:1,_RNvNtNtNtCscx2lCY9pHX3_9lens_core8pipeline8executor5testss_28test_executor_metrics_update
FNDA:1,_RNvNtNtNtCscx2lCY9pHX3_9lens_core8pipeline8executor5testss_29test_executor_metrics_default
FNDA:1,_RNvNtNtNtCscx2lCY9pHX3_9lens_core8pipeline8executor5testss_30test_stopping_predictor_update
FNDA:1,_RNvNtNtNtCscx2lCY9pHX3_9lens_core8pipeline8executor5testss_31test_pipeline_executor_creation
FNDA:1,_RNvNtNtNtCscx2lCY9pHX3_9lens_core8pipeline8executor5testss_31test_stopping_predictor_default
FNDA:1,_RNvNtNtNtCscx2lCY9pHX3_9lens_core8pipeline8executor5testss_35test_stopping_predictor_should_stop
FNDA:0,_RNCNCNvMs0_NtNtCscx2lCY9pHX3_9lens_core8pipeline8executorNtB9_16PipelineExecutor14execute_stages00Bd_
FNDA:0,_RNCNCNvMs0_NtNtCscx2lCY9pHX3_9lens_core8pipeline8executorNtB9_16PipelineExecutor7execute00Bd_
FNDA:0,_RNCNCNvMs0_NtNtCscx2lCY9pHX3_9lens_core8pipeline8executorNtB9_16PipelineExecutor7execute0s_0Bd_
FNDA:0,_RNCNCNvXsb_NtNtCscx2lCY9pHX3_9lens_core8pipeline8executorNtB9_15LspRoutingStageNtBb_22PipelineStageProcessor7process00Bd_
FNDA:0,_RNCNCNvXsc_NtNtCscx2lCY9pHX3_9lens_core8pipeline8executorNtB9_19ParallelSearchStageNtBb_22PipelineStageProcessor7process00Bd_
FNDA:2,_RNCNvMs0_NtNtCscx2lCY9pHX3_9lens_core8pipeline8executorNtB7_16PipelineExecutor11init_stages0Bb_
FNDA:0,_RNCNvMs0_NtNtCscx2lCY9pHX3_9lens_core8pipeline8executorNtB7_16PipelineExecutor14execute_stages0Bb_
FNDA:0,_RNCNvMs0_NtNtCscx2lCY9pHX3_9lens_core8pipeline8executorNtB7_16PipelineExecutor14update_metrics0Bb_
FNDA:0,_RNCNvMs0_NtNtCscx2lCY9pHX3_9lens_core8pipeline8executorNtB7_16PipelineExecutor17should_stop_early0Bb_
FNDA:0,_RNCNvMs0_NtNtCscx2lCY9pHX3_9lens_core8pipeline8executorNtB7_16PipelineExecutor23estimate_result_quality0Bb_
FNDA:0,_RNCNvMs0_NtNtCscx2lCY9pHX3_9lens_core8pipeline8executorNtB7_16PipelineExecutor26estimate_result_confidence0Bb_
FNDA:2,_RNCNvMs0_NtNtCscx2lCY9pHX3_9lens_core8pipeline8executorNtB7_16PipelineExecutor3new0Bb_
FNDA:0,_RNCNvMs0_NtNtCscx2lCY9pHX3_9lens_core8pipeline8executorNtB7_16PipelineExecutor7execute0Bb_
FNDA:0,_RNCNvMs0_NtNtCscx2lCY9pHX3_9lens_core8pipeline8executorNtB7_16PipelineExecutor8shutdown0Bb_
FNDA:2,_RNvMs0_NtNtCscx2lCY9pHX3_9lens_core8pipeline8executorNtB5_16PipelineExecutor11init_stages
FNDA:0,_RNvMs0_NtNtCscx2lCY9pHX3_9lens_core8pipeline8executorNtB5_16PipelineExecutor14execute_stages
FNDA:0,_RNvMs0_NtNtCscx2lCY9pHX3_9lens_core8pipeline8executorNtB5_16PipelineExecutor14update_metrics
FNDA:0,_RNvMs0_NtNtCscx2lCY9pHX3_9lens_core8pipeline8executorNtB5_16PipelineExecutor17should_stop_early
FNDA:0,_RNvMs0_NtNtCscx2lCY9pHX3_9lens_core8pipeline8executorNtB5_16PipelineExecutor20estimate_buffer_size
FNDA:0,_RNvMs0_NtNtCscx2lCY9pHX3_9lens_core8pipeline8executorNtB5_16PipelineExecutor23estimate_result_quality
FNDA:0,_RNvMs0_NtNtCscx2lCY9pHX3_9lens_core8pipeline8executorNtB5_16PipelineExecutor26estimate_result_confidence
FNDA:2,_RNvMs0_NtNtCscx2lCY9pHX3_9lens_core8pipeline8executorNtB5_16PipelineExecutor3new
FNDA:0,_RNvMs0_NtNtCscx2lCY9pHX3_9lens_core8pipeline8executorNtB5_16PipelineExecutor7execute
FNDA:0,_RNvMs0_NtNtCscx2lCY9pHX3_9lens_core8pipeline8executorNtB5_16PipelineExecutor8shutdown
FNDA:3,_RNvMs1_NtNtCscx2lCY9pHX3_9lens_core8pipeline8executorNtB5_18QueryAnalysisStage3new
FNDA:2,_RNvMs2_NtNtCscx2lCY9pHX3_9lens_core8pipeline8executorNtB5_15LspRoutingStage3new
FNDA:2,_RNvMs3_NtNtCscx2lCY9pHX3_9lens_core8pipeline8executorNtB5_19ParallelSearchStage3new
FNDA:3,_RNvMs4_NtNtCscx2lCY9pHX3_9lens_core8pipeline8executorNtB5_17ResultFusionStage3new
FNDA:3,_RNvMs5_NtNtCscx2lCY9pHX3_9lens_core8pipeline8executorNtB5_16PostProcessStage3new
FNDA:4,_RNvMs_NtNtCscx2lCY9pHX3_9lens_core8pipeline8executorNtB4_17StoppingPredictor17should_stop_early
FNDA:11,_RNvMs_NtNtCscx2lCY9pHX3_9lens_core8pipeline8executorNtB4_17StoppingPredictor6update
FNDA:5,_RNvXNtNtCscx2lCY9pHX3_9lens_core8pipeline8executorNtB2_17StoppingPredictorNtNtCs66KPHxksi63_4core7default7Default7default
FNDA:1,_RNvXsa_NtNtCscx2lCY9pHX3_9lens_core8pipeline8executorNtB5_18QueryAnalysisStageNtB7_22PipelineStageProcessor15supports_fusion
FNDA:0,_RNvXsa_NtNtCscx2lCY9pHX3_9lens_core8pipeline8executorNtB5_18QueryAnalysisStageNtB7_22PipelineStageProcessor7process
FNDA:1,_RNvXsa_NtNtCscx2lCY9pHX3_9lens_core8pipeline8executorNtB5_18QueryAnalysisStageNtB7_22PipelineStageProcessor8stage_id
FNDA:0,_RNvXsb_NtNtCscx2lCY9pHX3_9lens_core8pipeline8executorNtB5_15LspRoutingStageNtB7_22PipelineStageProcessor15supports_fusion
FNDA:0,_RNvXsb_NtNtCscx2lCY9pHX3_9lens_core8pipeline8executorNtB5_15LspRoutingStageNtB7_22PipelineStageProcessor7process
FNDA:0,_RNvXsb_NtNtCscx2lCY9pHX3_9lens_core8pipeline8executorNtB5_15LspRoutingStageNtB7_22PipelineStageProcessor8stage_id
FNDA:0,_RNvXsc_NtNtCscx2lCY9pHX3_9lens_core8pipeline8executorNtB5_19ParallelSearchStageNtB7_22PipelineStageProcessor15supports_fusion
FNDA:0,_RNvXsc_NtNtCscx2lCY9pHX3_9lens_core8pipeline8executorNtB5_19ParallelSearchStageNtB7_22PipelineStageProcessor24estimate_processing_time
FNDA:0,_RNvXsc_NtNtCscx2lCY9pHX3_9lens_core8pipeline8executorNtB5_19ParallelSearchStageNtB7_22PipelineStageProcessor7process
FNDA:0,_RNvXsc_NtNtCscx2lCY9pHX3_9lens_core8pipeline8executorNtB5_19ParallelSearchStageNtB7_22PipelineStageProcessor8stage_id
FNDA:1,_RNvXsd_NtNtCscx2lCY9pHX3_9lens_core8pipeline8executorNtB5_17ResultFusionStageNtB7_22PipelineStageProcessor15supports_fusion
FNDA:0,_RNvXsd_NtNtCscx2lCY9pHX3_9lens_core8pipeline8executorNtB5_17ResultFusionStageNtB7_22PipelineStageProcessor7process
FNDA:1,_RNvXsd_NtNtCscx2lCY9pHX3_9lens_core8pipeline8executorNtB5_17ResultFusionStageNtB7_22PipelineStageProcessor8stage_id
FNDA:1,_RNvXse_NtNtCscx2lCY9pHX3_9lens_core8pipeline8executorNtB5_16PostProcessStageNtB7_22PipelineStageProcessor15supports_fusion
FNDA:0,_RNvXse_NtNtCscx2lCY9pHX3_9lens_core8pipeline8executorNtB5_16PostProcessStageNtB7_22PipelineStageProcessor7process
FNDA:1,_RNvXse_NtNtCscx2lCY9pHX3_9lens_core8pipeline8executorNtB5_16PostProcessStageNtB7_22PipelineStageProcessor8stage_id
FNDA:1,_RNCNvNtNtNtCscx2lCY9pHX3_9lens_core8pipeline8executor5testss_23test_post_process_stage0B9_
FNDA:1,_RNCNvNtNtNtCscx2lCY9pHX3_9lens_core8pipeline8executor5testss_24test_result_fusion_stage0B9_
FNDA:1,_RNCNvNtNtNtCscx2lCY9pHX3_9lens_core8pipeline8executor5testss_25test_query_analysis_stage0B9_
FNDA:1,_RNCNvNtNtNtCscx2lCY9pHX3_9lens_core8pipeline8executor5testss_31test_pipeline_executor_creation0B9_
FNF:65
FNH:31
DA:70,5
DA:71,5
DA:72,5
DA:73,5
DA:74,5
DA:75,5
DA:76,5
DA:77,5
DA:82,4
DA:84,4
DA:85,1
DA:86,3
DA:89,3
DA:90,1
DA:91,2
DA:94,2
DA:95,1
DA:96,1
DA:98,1
DA:99,4
DA:102,11
DA:104,11
DA:105,11
DA:107,0
DA:110,11
DA:112,11
DA:115,11
DA:116,0
DA:117,11
DA:120,11
DA:122,11
DA:123,0
DA:124,0
DA:125,0
DA:126,11
DA:127,11
DA:128,11
DA:129,11
DA:130,11
DA:131,11
DA:136,2
DA:138,2
DA:140,2
DA:141,2
DA:142,2
DA:143,2
DA:144,2
DA:145,2
DA:146,2
DA:147,2
DA:148,2
DA:149,2
DA:150,2
DA:153,2
DA:155,2
DA:156,2
DA:157,2
DA:159,2
DA:160,2
DA:161,2
DA:162,2
DA:163,2
DA:164,2
DA:165,2
DA:166,2
DA:167,2
DA:168,2
DA:171,2
DA:173,2
DA:175,2
DA:176,2
DA:178,2
DA:180,2
DA:181,2
DA:184,2
DA:185,2
DA:188,2
DA:189,2
DA:190,2
DA:192,2
DA:195,2
DA:196,2
DA:199,2
DA:200,2
DA:202,2
DA:203,2
DA:206,0
DA:207,0
DA:208,0
DA:209,0
DA:210,0
DA:211,0
DA:212,0
DA:213,0
DA:216,0
DA:217,0
DA:218,0
DA:219,0
DA:220,0
DA:221,0
DA:223,0
DA:226,0
DA:227,0
DA:228,0
DA:229,0
DA:230,0
DA:231,0
DA:233,0
DA:234,0
DA:237,0
DA:240,0
DA:241,0
DA:243,0
DA:244,0
DA:246,0
DA:247,0
DA:251,0
DA:252,0
DA:253,0
DA:254,0
DA:255,0
DA:256,0
DA:259,0
DA:260,0
DA:261,0
DA:265,0
DA:266,0
DA:267,0
DA:268,0
DA:269,0
DA:270,0
DA:271,0
DA:273,0
DA:275,0
DA:277,0
DA:278,0
DA:279,0
DA:280,0
DA:282,0
DA:283,0
DA:285,0
DA:289,0
DA:290,0
DA:292,0
DA:293,0
DA:295,0
DA:296,0
DA:299,0
DA:300,0
DA:301,0
DA:302,0
DA:303,0
DA:306,0
DA:307,0
DA:308,0
DA:311,0
DA:312,0
DA:313,0
DA:314,0
DA:315,0
DA:320,0
DA:321,0
DA:323,0
DA:324,0
DA:325,0
DA:326,0
DA:329,0
DA:330,0
DA:331,0
DA:334,0
DA:335,0
DA:336,0
DA:338,0
DA:339,0
DA:341,0
DA:342,0
DA:343,0
DA:346,0
DA:348,0
DA:350,0
DA:351,0
DA:353,0
DA:355,0
DA:356,0
DA:358,0
DA:361,0
DA:362,0
DA:363,0
DA:364,0
DA:365,0
DA:366,0
DA:367,0
DA:368,0
DA:369,0
DA:372,0
DA:373,0
DA:374,0
DA:376,0
DA:377,0
DA:379,0
DA:381,0
DA:382,0
DA:384,0
DA:387,0
DA:389,0
DA:390,0
DA:392,0
DA:394,0
DA:395,0
DA:396,0
DA:398,0
DA:399,0
DA:401,0
DA:402,0
DA:404,0
DA:406,0
DA:407,0
DA:408,0
DA:409,0
DA:410,0
DA:412,0
DA:413,0
DA:416,0
DA:417,0
DA:420,0
DA:421,0
DA:422,0
DA:425,0
DA:426,0
DA:427,0
DA:428,0
DA:429,0
DA:432,0
DA:433,0
DA:434,0
DA:437,0
DA:438,0
DA:441,0
DA:444,0
DA:446,0
DA:447,0
DA:454,3
DA:455,3
DA:456,3
DA:461,0
DA:478,0
DA:480,1
DA:481,1
DA:482,1
DA:484,1
DA:485,1
DA:486,1
DA:495,2
DA:496,2
DA:497,2
DA:502,0
DA:505,0
DA:516,0
DA:518,0
DA:519,0
DA:520,0
DA:522,0
DA:523,0
DA:524,0
DA:534,2
DA:535,2
DA:536,2
DA:537,2
DA:538,2
DA:539,2
DA:544,0
DA:548,0
DA:555,0
DA:557,0
DA:558,0
DA:559,0
DA:561,0
DA:562,0
DA:563,0
DA:565,0
DA:567,0
DA:568,0
DA:575,3
DA:576,3
DA:577,3
DA:582,0
DA:589,0
DA:591,1
DA:592,1
DA:593,1
DA:595,1
DA:596,1
DA:597,1
DA:604,3
DA:605,3
DA:606,3
DA:611,0
DA:617,0
DA:619,1
DA:620,1
DA:621,1
DA:623,1
DA:624,1
DA:625,1
DA:635,0
DA:636,0
DA:637,0
DA:638,0
DA:641,1
DA:642,1
DA:643,1
DA:644,1
DA:645,1
DA:646,1
DA:647,1
DA:648,1
DA:649,1
DA:652,1
DA:653,1
DA:654,1
DA:655,1
DA:656,1
DA:657,1
DA:658,1
DA:661,1
DA:662,1
DA:663,1
DA:664,1
DA:665,1
DA:666,1
DA:668,1
DA:669,1
DA:670,1
DA:671,1
DA:672,1
DA:675,1
DA:676,1
DA:678,1
DA:680,1
DA:681,1
DA:682,1
DA:683,1
DA:684,1
DA:685,1
DA:686,1
DA:689,1
DA:690,1
DA:693,1
DA:696,1
DA:699,1
DA:702,1
DA:703,1
DA:706,1
DA:707,1
DA:708,1
DA:709,1
DA:712,1
DA:713,1
DA:716,11
DA:717,10
DA:718,10
DA:721,1
DA:722,1
DA:723,1
DA:726,1
DA:727,1
DA:728,1
DA:729,1
DA:730,1
DA:733,1
DA:734,1
DA:735,1
DA:736,1
DA:737,1
DA:740,1
DA:741,1
DA:742,1
DA:743,1
DA:744,1
BRF:0
BRH:0
LF:404
LH:198
end_of_record
SF:/home/nathan/Projects/lens/src/pipeline/fusion.rs
FN:384,_RNvXs3_NtNtCscx2lCY9pHX3_9lens_core8pipeline6fusionNtB5_12ResultFusionNtNtCs66KPHxksi63_4core7default7Default7default
FN:550,_RNCNCNvNtNtNtCscx2lCY9pHX3_9lens_core8pipeline6fusion5testss_17test_combsum_fuse00Bb_
FN:493,_RNCNCNvNtNtNtCscx2lCY9pHX3_9lens_core8pipeline6fusion5testss_26test_fuse_multiple_systems00Bb_
FN:582,_RNCNvNtNtNtCscx2lCY9pHX3_9lens_core8pipeline6fusion5testss_17test_combmnz_fuse0B9_
FN:533,_RNCNvNtNtNtCscx2lCY9pHX3_9lens_core8pipeline6fusion5testss_17test_combsum_fuse0B9_
FN:627,_RNCNvNtNtNtCscx2lCY9pHX3_9lens_core8pipeline6fusion5testss_22test_rank_based_fusion0B9_
FN:649,_RNCNvNtNtNtCscx2lCY9pHX3_9lens_core8pipeline6fusion5testss_23test_borda_count_fusion0B9_
FN:444,_RNCNvNtNtNtCscx2lCY9pHX3_9lens_core8pipeline6fusion5testss_23test_fuse_empty_results0B9_
FN:451,_RNCNvNtNtNtCscx2lCY9pHX3_9lens_core8pipeline6fusion5testss_23test_fuse_single_system0B9_
FN:471,_RNCNvNtNtNtCscx2lCY9pHX3_9lens_core8pipeline6fusion5testss_26test_fuse_multiple_systems0B9_
FN:72,_RNvMNtNtCscx2lCY9pHX3_9lens_core8pipeline6fusionNtB2_12ResultFusion10set_weight
FN:67,_RNvMNtNtCscx2lCY9pHX3_9lens_core8pipeline6fusionNtB2_12ResultFusion12add_strategy
FN:77,_RNvMNtNtCscx2lCY9pHX3_9lens_core8pipeline6fusionNtB2_12ResultFusion12fuse_results
FN:111,_RNvMNtNtCscx2lCY9pHX3_9lens_core8pipeline6fusionNtB2_12ResultFusion18select_best_fusion
FN:46,_RNvMNtNtCscx2lCY9pHX3_9lens_core8pipeline6fusionNtB2_12ResultFusion3new
FN:212,_RNvMs0_NtNtCscx2lCY9pHX3_9lens_core8pipeline6fusionNtB5_15CombMnzStrategy3new
FN:281,_RNvMs1_NtNtCscx2lCY9pHX3_9lens_core8pipeline6fusionNtB5_15RankBasedFusion3new
FN:334,_RNvMs2_NtNtCscx2lCY9pHX3_9lens_core8pipeline6fusionNtB5_16BordaCountFusion3new
FN:143,_RNvMs_NtNtCscx2lCY9pHX3_9lens_core8pipeline6fusionNtB4_15CombSumStrategy3new
FN:193,_RNvXs8_NtNtCscx2lCY9pHX3_9lens_core8pipeline6fusionNtB5_15CombSumStrategyNtB5_14FusionStrategy10confidence
FN:156,_RNvXs8_NtNtCscx2lCY9pHX3_9lens_core8pipeline6fusionNtB5_15CombSumStrategyNtB5_14FusionStrategy4fuse
FN:152,_RNvXs8_NtNtCscx2lCY9pHX3_9lens_core8pipeline6fusionNtB5_15CombSumStrategyNtB5_14FusionStrategy4name
FN:262,_RNvXs9_NtNtCscx2lCY9pHX3_9lens_core8pipeline6fusionNtB5_15CombMnzStrategyNtB5_14FusionStrategy10confidence
FN:225,_RNvXs9_NtNtCscx2lCY9pHX3_9lens_core8pipeline6fusionNtB5_15CombMnzStrategyNtB5_14FusionStrategy4fuse
FN:221,_RNvXs9_NtNtCscx2lCY9pHX3_9lens_core8pipeline6fusionNtB5_15CombMnzStrategyNtB5_14FusionStrategy4name
FN:323,_RNvXsa_NtNtCscx2lCY9pHX3_9lens_core8pipeline6fusionNtB5_15RankBasedFusionNtB5_14FusionStrategy10confidence
FN:294,_RNvXsa_NtNtCscx2lCY9pHX3_9lens_core8pipeline6fusionNtB5_15RankBasedFusionNtB5_14FusionStrategy4fuse
FN:290,_RNvXsa_NtNtCscx2lCY9pHX3_9lens_core8pipeline6fusionNtB5_15RankBasedFusionNtB5_14FusionStrategy4name
FN:378,_RNvXsb_NtNtCscx2lCY9pHX3_9lens_core8pipeline6fusionNtB5_16BordaCountFusionNtB5_14FusionStrategy10confidence
FN:347,_RNvXsb_NtNtCscx2lCY9pHX3_9lens_core8pipeline6fusionNtB5_16BordaCountFusionNtB5_14FusionStrategy4fuse
FN:343,_RNvXsb_NtNtCscx2lCY9pHX3_9lens_core8pipeline6fusionNtB5_16BordaCountFusionNtB5_14FusionStrategy4name
FN:394,_RNvNtNtNtCscx2lCY9pHX3_9lens_core8pipeline6fusion5tests25create_test_search_result
FN:408,_RNvNtNtNtCscx2lCY9pHX3_9lens_core8pipeline6fusion5tests26create_test_system_results
FN:582,_RNvNtNtNtCscx2lCY9pHX3_9lens_core8pipeline6fusion5testss_17test_combmnz_fuse
FN:533,_RNvNtNtNtCscx2lCY9pHX3_9lens_core8pipeline6fusion5testss_17test_combsum_fuse
FN:527,_RNvNtNtNtCscx2lCY9pHX3_9lens_core8pipeline6fusion5testss_21test_combsum_strategy
FN:627,_RNvNtNtNtCscx2lCY9pHX3_9lens_core8pipeline6fusion5testss_22test_rank_based_fusion
FN:649,_RNvNtNtNtCscx2lCY9pHX3_9lens_core8pipeline6fusion5testss_23test_borda_count_fusion
FN:604,_RNvNtNtNtCscx2lCY9pHX3_9lens_core8pipeline6fusion5testss_23test_combmnz_confidence
FN:556,_RNvNtNtNtCscx2lCY9pHX3_9lens_core8pipeline6fusion5testss_23test_combsum_confidence
FN:444,_RNvNtNtNtCscx2lCY9pHX3_9lens_core8pipeline6fusion5testss_23test_fuse_empty_results
FN:451,_RNvNtNtNtCscx2lCY9pHX3_9lens_core8pipeline6fusion5testss_23test_fuse_single_system
FN:499,_RNvNtNtNtCscx2lCY9pHX3_9lens_core8pipeline6fusion5testss_23test_select_best_fusion
FN:471,_RNvNtNtNtCscx2lCY9pHX3_9lens_core8pipeline6fusion5testss_26test_fuse_multiple_systems
FN:681,_RNvNtNtNtCscx2lCY9pHX3_9lens_core8pipeline6fusion5testss_26test_fused_result_creation
FN:418,_RNvNtNtNtCscx2lCY9pHX3_9lens_core8pipeline6fusion5testss_27test_result_fusion_creation
FN:670,_RNvNtNtNtCscx2lCY9pHX3_9lens_core8pipeline6fusion5testss_28test_system_results_creation
FN:437,_RNvNtNtNtCscx2lCY9pHX3_9lens_core8pipeline6fusion5testss_29test_result_fusion_set_weight
FN:428,_RNvNtNtNtCscx2lCY9pHX3_9lens_core8pipeline6fusion5testss_31test_result_fusion_add_strategy
FN:92,_RNCNCNCNvMNtNtCscx2lCY9pHX3_9lens_core8pipeline6fusionNtB8_12ResultFusion12fuse_results000Bc_
FN:92,_RNCNCNvMNtNtCscx2lCY9pHX3_9lens_core8pipeline6fusionNtB6_12ResultFusion12fuse_results00Ba_
FN:93,_RNCNCNvMNtNtCscx2lCY9pHX3_9lens_core8pipeline6fusionNtB6_12ResultFusion12fuse_results0s_0Ba_
FN:188,_RNCNCNvXs8_NtNtCscx2lCY9pHX3_9lens_core8pipeline6fusionNtB9_15CombSumStrategyNtB9_14FusionStrategy4fuse0s0_0Bd_
FN:182,_RNCNCNvXs8_NtNtCscx2lCY9pHX3_9lens_core8pipeline6fusionNtB9_15CombSumStrategyNtB9_14FusionStrategy4fuse0s_0Bd_
FN:257,_RNCNCNvXs9_NtNtCscx2lCY9pHX3_9lens_core8pipeline6fusionNtB9_15CombMnzStrategyNtB9_14FusionStrategy4fuse0s0_0Bd_
FN:251,_RNCNCNvXs9_NtNtCscx2lCY9pHX3_9lens_core8pipeline6fusionNtB9_15CombMnzStrategyNtB9_14FusionStrategy4fuse0s_0Bd_
FN:312,_RNCNCNvXsa_NtNtCscx2lCY9pHX3_9lens_core8pipeline6fusionNtB9_15RankBasedFusionNtB9_14FusionStrategy4fuse00Bd_
FN:318,_RNCNCNvXsa_NtNtCscx2lCY9pHX3_9lens_core8pipeline6fusionNtB9_15RankBasedFusionNtB9_14FusionStrategy4fuse0s_0Bd_
FN:367,_RNCNCNvXsb_NtNtCscx2lCY9pHX3_9lens_core8pipeline6fusionNtB9_16BordaCountFusionNtB9_14FusionStrategy4fuse00Bd_
FN:373,_RNCNCNvXsb_NtNtCscx2lCY9pHX3_9lens_core8pipeline6fusionNtB9_16BordaCountFusionNtB9_14FusionStrategy4fuse0s_0Bd_
FN:77,_RNCNvMNtNtCscx2lCY9pHX3_9lens_core8pipeline6fusionNtB4_12ResultFusion12fuse_results0B8_
FN:128,_RNCNvMNtNtCscx2lCY9pHX3_9lens_core8pipeline6fusionNtB4_12ResultFusion18select_best_fusion0B8_
FNDA:0,_RNvXs3_NtNtCscx2lCY9pHX3_9lens_core8pipeline6fusionNtB5_12ResultFusionNtNtCs66KPHxksi63_4core7default7Default7default
FNDA:1,_RNCNCNvNtNtNtCscx2lCY9pHX3_9lens_core8pipeline6fusion5testss_17test_combsum_fuse00Bb_
FNDA:1,_RNCNCNvNtNtNtCscx2lCY9pHX3_9lens_core8pipeline6fusion5testss_26test_fuse_multiple_systems00Bb_
FNDA:1,_RNCNvNtNtNtCscx2lCY9pHX3_9lens_core8pipeline6fusion5testss_17test_combmnz_fuse0B9_
FNDA:1,_RNCNvNtNtNtCscx2lCY9pHX3_9lens_core8pipeline6fusion5testss_17test_combsum_fuse0B9_
FNDA:1,_RNCNvNtNtNtCscx2lCY9pHX3_9lens_core8pipeline6fusion5testss_22test_rank_based_fusion0B9_
FNDA:1,_RNCNvNtNtNtCscx2lCY9pHX3_9lens_core8pipeline6fusion5testss_23test_borda_count_fusion0B9_
FNDA:1,_RNCNvNtNtNtCscx2lCY9pHX3_9lens_core8pipeline6fusion5testss_23test_fuse_empty_results0B9_
FNDA:1,_RNCNvNtNtNtCscx2lCY9pHX3_9lens_core8pipeline6fusion5testss_23test_fuse_single_system0B9_
FNDA:1,_RNCNvNtNtNtCscx2lCY9pHX3_9lens_core8pipeline6fusion5testss_26test_fuse_multiple_systems0B9_
FNDA:22,_RNvMNtNtCscx2lCY9pHX3_9lens_core8pipeline6fusionNtB2_12ResultFusion10set_weight
FNDA:29,_RNvMNtNtCscx2lCY9pHX3_9lens_core8pipeline6fusionNtB2_12ResultFusion12add_strategy
FNDA:3,_RNvMNtNtCscx2lCY9pHX3_9lens_core8pipeline6fusionNtB2_12ResultFusion12fuse_results
FNDA:3,_RNvMNtNtCscx2lCY9pHX3_9lens_core8pipeline6fusionNtB2_12ResultFusion18select_best_fusion
FNDA:7,_RNvMNtNtCscx2lCY9pHX3_9lens_core8pipeline6fusionNtB2_12ResultFusion3new
FNDA:9,_RNvMs0_NtNtCscx2lCY9pHX3_9lens_core8pipeline6fusionNtB5_15CombMnzStrategy3new
FNDA:8,_RNvMs1_NtNtCscx2lCY9pHX3_9lens_core8pipeline6fusionNtB5_15RankBasedFusion3new
FNDA:8,_RNvMs2_NtNtCscx2lCY9pHX3_9lens_core8pipeline6fusionNtB5_16BordaCountFusion3new
FNDA:11,_RNvMs_NtNtCscx2lCY9pHX3_9lens_core8pipeline6fusionNtB4_15CombSumStrategy3new
FNDA:4,_RNvXs8_NtNtCscx2lCY9pHX3_9lens_core8pipeline6fusionNtB5_15CombSumStrategyNtB5_14FusionStrategy10confidence
FNDA:3,_RNvXs8_NtNtCscx2lCY9pHX3_9lens_core8pipeline6fusionNtB5_15CombSumStrategyNtB5_14FusionStrategy4fuse
FNDA:6,_RNvXs8_NtNtCscx2lCY9pHX3_9lens_core8pipeline6fusionNtB5_15CombSumStrategyNtB5_14FusionStrategy4name
FNDA:4,_RNvXs9_NtNtCscx2lCY9pHX3_9lens_core8pipeline6fusionNtB5_15CombMnzStrategyNtB5_14FusionStrategy10confidence
FNDA:3,_RNvXs9_NtNtCscx2lCY9pHX3_9lens_core8pipeline6fusionNtB5_15CombMnzStrategyNtB5_14FusionStrategy4fuse
FNDA:6,_RNvXs9_NtNtCscx2lCY9pHX3_9lens_core8pipeline6fusionNtB5_15CombMnzStrategyNtB5_14FusionStrategy4name
FNDA:3,_RNvXsa_NtNtCscx2lCY9pHX3_9lens_core8pipeline6fusionNtB5_15RankBasedFusionNtB5_14FusionStrategy10confidence
FNDA:3,_RNvXsa_NtNtCscx2lCY9pHX3_9lens_core8pipeline6fusionNtB5_15RankBasedFusionNtB5_14FusionStrategy4fuse
FNDA:6,_RNvXsa_NtNtCscx2lCY9pHX3_9lens_core8pipeline6fusionNtB5_15RankBasedFusionNtB5_14FusionStrategy4name
FNDA:3,_RNvXsb_NtNtCscx2lCY9pHX3_9lens_core8pipeline6fusionNtB5_16BordaCountFusionNtB5_14FusionStrategy10confidence
FNDA:3,_RNvXsb_NtNtCscx2lCY9pHX3_9lens_core8pipeline6fusionNtB5_16BordaCountFusionNtB5_14FusionStrategy4fuse
FNDA:6,_RNvXsb_NtNtCscx2lCY9pHX3_9lens_core8pipeline6fusionNtB5_16BordaCountFusionNtB5_14FusionStrategy4name
FNDA:19,_RNvNtNtNtCscx2lCY9pHX3_9lens_core8pipeline6fusion5tests25create_test_search_result
FNDA:10,_RNvNtNtNtCscx2lCY9pHX3_9lens_core8pipeline6fusion5tests26create_test_system_results
FNDA:1,_RNvNtNtNtCscx2lCY9pHX3_9lens_core8pipeline6fusion5testss_17test_combmnz_fuse
FNDA:1,_RNvNtNtNtCscx2lCY9pHX3_9lens_core8pipeline6fusion5testss_17test_combsum_fuse
FNDA:1,_RNvNtNtNtCscx2lCY9pHX3_9lens_core8pipeline6fusion5testss_21test_combsum_strategy
FNDA:1,_RNvNtNtNtCscx2lCY9pHX3_9lens_core8pipeline6fusion5testss_22test_rank_based_fusion
FNDA:1,_RNvNtNtNtCscx2lCY9pHX3_9lens_core8pipeline6fusion5testss_23test_borda_count_fusion
FNDA:1,_RNvNtNtNtCscx2lCY9pHX3_9lens_core8pipeline6fusion5testss_23test_combmnz_confidence
FNDA:1,_RNvNtNtNtCscx2lCY9pHX3_9lens_core8pipeline6fusion5testss_23test_combsum_confidence
FNDA:1,_RNvNtNtNtCscx2lCY9pHX3_9lens_core8pipeline6fusion5testss_23test_fuse_empty_results
FNDA:1,_RNvNtNtNtCscx2lCY9pHX3_9lens_core8pipeline6fusion5testss_23test_fuse_single_system
FNDA:1,_RNvNtNtNtCscx2lCY9pHX3_9lens_core8pipeline6fusion5testss_23test_select_best_fusion
FNDA:1,_RNvNtNtNtCscx2lCY9pHX3_9lens_core8pipeline6fusion5testss_26test_fuse_multiple_systems
FNDA:1,_RNvNtNtNtCscx2lCY9pHX3_9lens_core8pipeline6fusion5testss_26test_fused_result_creation
FNDA:1,_RNvNtNtNtCscx2lCY9pHX3_9lens_core8pipeline6fusion5testss_27test_result_fusion_creation
FNDA:1,_RNvNtNtNtCscx2lCY9pHX3_9lens_core8pipeline6fusion5testss_28test_system_results_creation
FNDA:1,_RNvNtNtNtCscx2lCY9pHX3_9lens_core8pipeline6fusion5testss_29test_result_fusion_set_weight
FNDA:1,_RNvNtNtNtCscx2lCY9pHX3_9lens_core8pipeline6fusion5testss_31test_result_fusion_add_strategy
FNDA:52,_RNCNCNCNvMNtNtCscx2lCY9pHX3_9lens_core8pipeline6fusionNtB8_12ResultFusion12fuse_results000Bc_
FNDA:32,_RNCNCNvMNtNtCscx2lCY9pHX3_9lens_core8pipeline6fusionNtB6_12ResultFusion12fuse_results00Ba_
FNDA:24,_RNCNCNvMNtNtCscx2lCY9pHX3_9lens_core8pipeline6fusionNtB6_12ResultFusion12fuse_results0s_0Ba_
FNDA:7,_RNCNCNvXs8_NtNtCscx2lCY9pHX3_9lens_core8pipeline6fusionNtB9_15CombSumStrategyNtB9_14FusionStrategy4fuse0s0_0Bd_
FNDA:8,_RNCNCNvXs8_NtNtCscx2lCY9pHX3_9lens_core8pipeline6fusionNtB9_15CombSumStrategyNtB9_14FusionStrategy4fuse0s_0Bd_
FNDA:4,_RNCNCNvXs9_NtNtCscx2lCY9pHX3_9lens_core8pipeline6fusionNtB9_15CombMnzStrategyNtB9_14FusionStrategy4fuse0s0_0Bd_
FNDA:6,_RNCNCNvXs9_NtNtCscx2lCY9pHX3_9lens_core8pipeline6fusionNtB9_15CombMnzStrategyNtB9_14FusionStrategy4fuse0s_0Bd_
FNDA:7,_RNCNCNvXsa_NtNtCscx2lCY9pHX3_9lens_core8pipeline6fusionNtB9_15RankBasedFusionNtB9_14FusionStrategy4fuse00Bd_
FNDA:4,_RNCNCNvXsa_NtNtCscx2lCY9pHX3_9lens_core8pipeline6fusionNtB9_15RankBasedFusionNtB9_14FusionStrategy4fuse0s_0Bd_
FNDA:7,_RNCNCNvXsb_NtNtCscx2lCY9pHX3_9lens_core8pipeline6fusionNtB9_16BordaCountFusionNtB9_14FusionStrategy4fuse00Bd_
FNDA:5,_RNCNCNvXsb_NtNtCscx2lCY9pHX3_9lens_core8pipeline6fusionNtB9_16BordaCountFusionNtB9_14FusionStrategy4fuse0s_0Bd_
FNDA:3,_RNCNvMNtNtCscx2lCY9pHX3_9lens_core8pipeline6fusionNtB4_12ResultFusion12fuse_results0B8_
FNDA:3,_RNCNvMNtNtCscx2lCY9pHX3_9lens_core8pipeline6fusionNtB4_12ResultFusion18select_best_fusion0B8_
FNF:62
FNH:61
DA:46,7
DA:47,7
DA:48,7
DA:49,7
DA:50,7
DA:53,7
DA:54,7
DA:55,7
DA:56,7
DA:59,7
DA:60,7
DA:61,7
DA:63,7
DA:64,7
DA:67,29
DA:68,29
DA:69,29
DA:72,22
DA:73,22
DA:74,22
DA:77,3
DA:78,3
DA:79,1
DA:80,2
DA:82,2
DA:85,10
DA:86,8
DA:87,8
DA:89,28
DA:90,20
DA:91,20
DA:92,52
DA:93,24
DA:94,20
DA:96,20
DA:97,20
DA:98,20
DA:99,20
DA:100,20
DA:101,20
DA:102,20
DA:107,2
DA:108,3
DA:111,3
DA:113,3
DA:115,25
DA:116,22
DA:118,22
DA:119,16
DA:120,6
DA:121,10
DA:122,6
DA:123,6
DA:124,6
DA:127,3
DA:128,3
DA:131,3
DA:133,3
DA:134,3
DA:143,11
DA:144,11
DA:145,11
DA:146,11
DA:147,11
DA:152,6
DA:153,6
DA:154,6
DA:156,3
DA:182,8
DA:183,8
DA:184,8
DA:185,8
DA:188,7
DA:191,3
DA:193,4
DA:194,4
DA:195,1
DA:196,3
DA:199,3
DA:200,3
DA:202,3
DA:203,4
DA:212,9
DA:213,9
DA:214,9
DA:215,9
DA:216,9
DA:221,6
DA:222,6
DA:223,6
DA:225,3
DA:251,6
DA:252,6
DA:253,6
DA:254,6
DA:257,4
DA:260,3
DA:262,4
DA:264,4
DA:265,1
DA:266,3
DA:268,3
DA:269,3
DA:271,3
DA:272,4
DA:281,8
DA:282,8
DA:283,8
DA:284,8
DA:285,8
DA:290,6
DA:291,6
DA:292,6
DA:294,3
DA:312,7
DA:313,7
DA:314,7
DA:315,7
DA:318,4
DA:321,3
DA:323,3
DA:324,3
DA:325,3
DA:334,8
DA:335,8
DA:336,8
DA:337,8
DA:338,8
DA:343,6
DA:344,6
DA:345,6
DA:347,3
DA:367,7
DA:368,7
DA:369,7
DA:370,7
DA:373,5
DA:376,3
DA:378,3
DA:379,3
DA:380,3
DA:384,0
DA:385,0
DA:386,0
DA:394,19
DA:395,19
DA:396,19
DA:397,19
DA:398,19
DA:399,19
DA:400,19
DA:401,19
DA:402,19
DA:403,19
DA:404,19
DA:405,19
DA:406,19
DA:408,10
DA:409,10
DA:410,10
DA:411,10
DA:412,10
DA:413,10
DA:414,10
DA:415,10
DA:418,1
DA:419,1
DA:420,1
DA:421,1
DA:422,1
DA:423,1
DA:424,1
DA:425,1
DA:428,1
DA:429,1
DA:430,1
DA:432,1
DA:433,1
DA:434,1
DA:437,1
DA:438,1
DA:439,1
DA:440,1
DA:441,1
DA:444,1
DA:445,1
DA:446,1
DA:447,1
DA:448,1
DA:451,1
DA:452,1
DA:453,1
DA:454,1
DA:455,1
DA:457,1
DA:459,1
DA:460,1
DA:463,3
DA:464,2
DA:465,2
DA:466,2
DA:467,1
DA:468,1
DA:471,1
DA:472,1
DA:474,1
DA:475,1
DA:476,1
DA:478,1
DA:479,1
DA:480,1
DA:483,1
DA:484,1
DA:485,1
DA:488,1
DA:489,1
DA:492,1
DA:493,1
DA:495,1
DA:496,1
DA:499,1
DA:500,1
DA:501,1
DA:503,1
DA:504,1
DA:505,1
DA:506,1
DA:507,1
DA:508,1
DA:509,1
DA:510,1
DA:511,1
DA:512,1
DA:513,1
DA:514,1
DA:515,1
DA:516,1
DA:517,1
DA:520,1
DA:521,1
DA:522,1
DA:523,1
DA:524,1
DA:527,1
DA:528,1
DA:529,1
DA:530,1
DA:533,1
DA:534,1
DA:535,1
DA:536,1
DA:537,1
DA:538,1
DA:540,1
DA:541,1
DA:542,1
DA:546,1
DA:547,1
DA:550,1
DA:551,1
DA:552,1
DA:553,1
DA:556,1
DA:557,1
DA:558,1
DA:559,1
DA:560,1
DA:561,1
DA:562,1
DA:563,1
DA:564,1
DA:565,1
DA:566,1
DA:567,1
DA:568,1
DA:569,1
DA:570,1
DA:573,1
DA:574,1
DA:575,1
DA:578,1
DA:579,1
DA:582,1
DA:583,1
DA:584,1
DA:586,1
DA:587,1
DA:588,1
DA:590,1
DA:591,1
DA:595,1
DA:596,1
DA:599,1
DA:600,1
DA:601,1
DA:604,1
DA:605,1
DA:606,1
DA:607,1
DA:608,1
DA:609,1
DA:610,1
DA:611,1
DA:612,1
DA:613,1
DA:614,1
DA:615,1
DA:616,1
DA:617,1
DA:618,1
DA:621,1
DA:622,1
DA:623,1
DA:624,1
DA:627,1
DA:628,1
DA:629,1
DA:630,1
DA:632,1
DA:633,1
DA:634,1
DA:635,1
DA:639,1
DA:640,1
DA:643,1
DA:644,1
DA:645,1
DA:646,1
DA:649,1
DA:650,1
DA:651,1
DA:652,1
DA:654,1
DA:655,1
DA:656,1
DA:657,1
DA:661,1
DA:662,1
DA:665,1
DA:666,1
DA:667,1
DA:670,1
DA:671,1
DA:672,1
DA:674,1
DA:675,1
DA:676,1
DA:677,1
DA:678,1
DA:681,1
DA:682,1
DA:683,1
DA:684,1
DA:685,1
DA:686,1
DA:687,1
DA:688,1
DA:689,1
DA:691,1
DA:692,1
DA:693,1
DA:694,1
DA:695,1
BRF:0
BRH:0
LF:386
LH:383
end_of_record
SF:/home/nathan/Projects/lens/src/pipeline/memory.rs
FN:211,_RINvMs1_NtNtCscx2lCY9pHX3_9lens_core8pipeline6memoryNtB6_11SegmentView10parse_jsonpEBa_
FN:402,_RNCNvMs5_NtNtCscx2lCY9pHX3_9lens_core8pipeline6memoryNtB7_10BufferPool5clear0Bb_
FN:502,_RNCNvMs6_NtNtCscx2lCY9pHX3_9lens_core8pipeline6memoryNtB7_21PipelineMemoryManager10pool_stats0Bb_
FN:172,_RNvMs1_NtNtCscx2lCY9pHX3_9lens_core8pipeline6memoryNtB5_11SegmentView6offset
FN:152,_RNvMs1_NtNtCscx2lCY9pHX3_9lens_core8pipeline6memoryNtB5_11SegmentView8as_bytes
FN:157,_RNvMs1_NtNtCscx2lCY9pHX3_9lens_core8pipeline6memoryNtB5_11SegmentView8as_slice
FN:167,_RNvMs1_NtNtCscx2lCY9pHX3_9lens_core8pipeline6memoryNtB5_11SegmentView8is_empty
FN:182,_RNvMs1_NtNtCscx2lCY9pHX3_9lens_core8pipeline6memoryNtB5_11SegmentView9buffer_id
FN:177,_RNvMs1_NtNtCscx2lCY9pHX3_9lens_core8pipeline6memoryNtB5_11SegmentView9view_type
FN:273,_RNvMs4_NtNtCscx2lCY9pHX3_9lens_core8pipeline6memoryNtB5_9PoolStats8hit_rate
FN:402,_RNvMs5_NtNtCscx2lCY9pHX3_9lens_core8pipeline6memoryNtB5_10BufferPool5clear
FN:502,_RNvMs6_NtNtCscx2lCY9pHX3_9lens_core8pipeline6memoryNtB5_21PipelineMemoryManager10pool_stats
FN:497,_RNvMs6_NtNtCscx2lCY9pHX3_9lens_core8pipeline6memoryNtB5_21PipelineMemoryManager11utilization
FN:83,_RNvMs_NtNtCscx2lCY9pHX3_9lens_core8pipeline6memoryNtB4_14ZeroCopyBuffer16create_full_view
FN:102,_RNvMs_NtNtCscx2lCY9pHX3_9lens_core8pipeline6memoryNtB4_14ZeroCopyBuffer8is_empty
FN:118,_RNvXs0_NtNtCscx2lCY9pHX3_9lens_core8pipeline6memoryNtB5_14ZeroCopyBufferNtNtNtCs66KPHxksi63_4core3ops4drop4Drop4drop
FN:221,_RNvXs2_NtNtCscx2lCY9pHX3_9lens_core8pipeline6memoryNtB5_11SegmentViewNtNtNtCs66KPHxksi63_4core3ops4drop4Drop4drop
FN:566,_RNCNvNtNtNtCscx2lCY9pHX3_9lens_core8pipeline6memory5testss_16test_buffer_pool0B9_
FN:586,_RNCNvNtNtNtCscx2lCY9pHX3_9lens_core8pipeline6memory5testss_19test_memory_manager0B9_
FN:600,_RNCNvNtNtNtCscx2lCY9pHX3_9lens_core8pipeline6memory5testss_23test_garbage_collection0B9_
FN:345,_RNCNCNvMs5_NtNtCscx2lCY9pHX3_9lens_core8pipeline6memoryNtB9_10BufferPool20acquire_large_buffer00Bd_
FN:341,_RNCNvMs5_NtNtCscx2lCY9pHX3_9lens_core8pipeline6memoryNtB7_10BufferPool20acquire_large_buffer0Bb_
FN:319,_RNCNvMs5_NtNtCscx2lCY9pHX3_9lens_core8pipeline6memoryNtB7_10BufferPool20acquire_small_buffer0Bb_
FN:330,_RNCNvMs5_NtNtCscx2lCY9pHX3_9lens_core8pipeline6memoryNtB7_10BufferPool21acquire_medium_buffer0Bb_
FN:396,_RNCNvMs5_NtNtCscx2lCY9pHX3_9lens_core8pipeline6memoryNtB7_10BufferPool5stats0Bb_
FN:295,_RNCNvMs5_NtNtCscx2lCY9pHX3_9lens_core8pipeline6memoryNtB7_10BufferPool7acquire0Bb_
FN:357,_RNCNvMs5_NtNtCscx2lCY9pHX3_9lens_core8pipeline6memoryNtB7_10BufferPool7release0Bb_
FN:467,_RNCNvMs6_NtNtCscx2lCY9pHX3_9lens_core8pipeline6memoryNtB7_21PipelineMemoryManager10deallocate0Bb_
FN:507,_RNCNvMs6_NtNtCscx2lCY9pHX3_9lens_core8pipeline6memoryNtB7_21PipelineMemoryManager2gc0Bb_
FN:443,_RNCNvMs6_NtNtCscx2lCY9pHX3_9lens_core8pipeline6memoryNtB7_21PipelineMemoryManager8allocate0Bb_
FN:566,_RNvNtNtNtCscx2lCY9pHX3_9lens_core8pipeline6memory5testss_16test_buffer_pool
FN:552,_RNvNtNtNtCscx2lCY9pHX3_9lens_core8pipeline6memory5testss_17test_segment_view
FN:586,_RNvNtNtNtCscx2lCY9pHX3_9lens_core8pipeline6memory5testss_19test_memory_manager
FN:539,_RNvNtNtNtCscx2lCY9pHX3_9lens_core8pipeline6memory5testss_21test_zero_copy_buffer
FN:600,_RNvNtNtNtCscx2lCY9pHX3_9lens_core8pipeline6memory5testss_23test_garbage_collection
FN:32,_RNvMNtNtCscx2lCY9pHX3_9lens_core8pipeline6memoryNtB2_8BufferId3new
FN:206,_RNvMs1_NtNtCscx2lCY9pHX3_9lens_core8pipeline6memoryNtB5_11SegmentView15to_string_lossy
FN:162,_RNvMs1_NtNtCscx2lCY9pHX3_9lens_core8pipeline6memoryNtB5_11SegmentView3len
FN:187,_RNvMs1_NtNtCscx2lCY9pHX3_9lens_core8pipeline6memoryNtB5_11SegmentView5slice
FN:341,_RNvMs5_NtNtCscx2lCY9pHX3_9lens_core8pipeline6memoryNtB5_10BufferPool20acquire_large_buffer
FN:319,_RNvMs5_NtNtCscx2lCY9pHX3_9lens_core8pipeline6memoryNtB5_10BufferPool20acquire_small_buffer
FN:330,_RNvMs5_NtNtCscx2lCY9pHX3_9lens_core8pipeline6memoryNtB5_10BufferPool21acquire_medium_buffer
FN:284,_RNvMs5_NtNtCscx2lCY9pHX3_9lens_core8pipeline6memoryNtB5_10BufferPool3new
FN:396,_RNvMs5_NtNtCscx2lCY9pHX3_9lens_core8pipeline6memoryNtB5_10BufferPool5stats
FN:295,_RNvMs5_NtNtCscx2lCY9pHX3_9lens_core8pipeline6memoryNtB5_10BufferPool7acquire
FN:357,_RNvMs5_NtNtCscx2lCY9pHX3_9lens_core8pipeline6memoryNtB5_10BufferPool7release
FN:467,_RNvMs6_NtNtCscx2lCY9pHX3_9lens_core8pipeline6memoryNtB5_21PipelineMemoryManager10deallocate
FN:492,_RNvMs6_NtNtCscx2lCY9pHX3_9lens_core8pipeline6memoryNtB5_21PipelineMemoryManager13current_usage
FN:507,_RNvMs6_NtNtCscx2lCY9pHX3_9lens_core8pipeline6memoryNtB5_21PipelineMemoryManager2gc
FN:430,_RNvMs6_NtNtCscx2lCY9pHX3_9lens_core8pipeline6memoryNtB5_21PipelineMemoryManager3new
FN:443,_RNvMs6_NtNtCscx2lCY9pHX3_9lens_core8pipeline6memoryNtB5_21PipelineMemoryManager8allocate
FN:52,_RNvMs_NtNtCscx2lCY9pHX3_9lens_core8pipeline6memoryNtB4_14ZeroCopyBuffer10from_bytes
FN:64,_RNvMs_NtNtCscx2lCY9pHX3_9lens_core8pipeline6memoryNtB4_14ZeroCopyBuffer11create_view
FN:112,_RNvMs_NtNtCscx2lCY9pHX3_9lens_core8pipeline6memoryNtB4_14ZeroCopyBuffer2id
FN:97,_RNvMs_NtNtCscx2lCY9pHX3_9lens_core8pipeline6memoryNtB4_14ZeroCopyBuffer3len
FN:40,_RNvMs_NtNtCscx2lCY9pHX3_9lens_core8pipeline6memoryNtB4_14ZeroCopyBuffer3new
FN:107,_RNvMs_NtNtCscx2lCY9pHX3_9lens_core8pipeline6memoryNtB4_14ZeroCopyBuffer9ref_count
FN:249,_RNvXs3_NtNtCscx2lCY9pHX3_9lens_core8pipeline6memoryNtB5_10PoolConfigNtNtCs66KPHxksi63_4core7default7Default7default
FNDA:0,_RINvMs1_NtNtCscx2lCY9pHX3_9lens_core8pipeline6memoryNtB6_11SegmentView10parse_jsonpEBa_
FNDA:0,_RNCNvMs5_NtNtCscx2lCY9pHX3_9lens_core8pipeline6memoryNtB7_10BufferPool5clear0Bb_
FNDA:0,_RNCNvMs6_NtNtCscx2lCY9pHX3_9lens_core8pipeline6memoryNtB7_21PipelineMemoryManager10pool_stats0Bb_
FNDA:0,_RNvMs1_NtNtCscx2lCY9pHX3_9lens_core8pipeline6memoryNtB5_11SegmentView6offset
FNDA:0,_RNvMs1_NtNtCscx2lCY9pHX3_9lens_core8pipeline6memoryNtB5_11SegmentView8as_bytes
FNDA:0,_RNvMs1_NtNtCscx2lCY9pHX3_9lens_core8pipeline6memoryNtB5_11SegmentView8as_slice
FNDA:0,_RNvMs1_NtNtCscx2lCY9pHX3_9lens_core8pipeline6memoryNtB5_11SegmentView8is_empty
FNDA:0,_RNvMs1_NtNtCscx2lCY9pHX3_9lens_core8pipeline6memoryNtB5_11SegmentView9buffer_id
FNDA:0,_RNvMs1_NtNtCscx2lCY9pHX3_9lens_core8pipeline6memoryNtB5_11SegmentView9view_type
FNDA:0,_RNvMs4_NtNtCscx2lCY9pHX3_9lens_core8pipeline6memoryNtB5_9PoolStats8hit_rate
FNDA:0,_RNvMs5_NtNtCscx2lCY9pHX3_9lens_core8pipeline6memoryNtB5_10BufferPool5clear
FNDA:0,_RNvMs6_NtNtCscx2lCY9pHX3_9lens_core8pipeline6memoryNtB5_21PipelineMemoryManager10pool_stats
FNDA:0,_RNvMs6_NtNtCscx2lCY9pHX3_9lens_core8pipeline6memoryNtB5_21PipelineMemoryManager11utilization
FNDA:0,_RNvMs_NtNtCscx2lCY9pHX3_9lens_core8pipeline6memoryNtB4_14ZeroCopyBuffer16create_full_view
FNDA:0,_RNvMs_NtNtCscx2lCY9pHX3_9lens_core8pipeline6memoryNtB4_14ZeroCopyBuffer8is_empty
FNDA:6,_RNvXs0_NtNtCscx2lCY9pHX3_9lens_core8pipeline6memoryNtB5_14ZeroCopyBufferNtNtNtCs66KPHxksi63_4core3ops4drop4Drop4drop
FNDA:3,_RNvXs2_NtNtCscx2lCY9pHX3_9lens_core8pipeline6memoryNtB5_11SegmentViewNtNtNtCs66KPHxksi63_4core3ops4drop4Drop4drop
FNDA:1,_RNCNvNtNtNtCscx2lCY9pHX3_9lens_core8pipeline6memory5testss_16test_buffer_pool0B9_
FNDA:1,_RNCNvNtNtNtCscx2lCY9pHX3_9lens_core8pipeline6memory5testss_19test_memory_manager0B9_
FNDA:1,_RNCNvNtNtNtCscx2lCY9pHX3_9lens_core8pipeline6memory5testss_23test_garbage_collection0B9_
FNDA:0,_RNCNCNvMs5_NtNtCscx2lCY9pHX3_9lens_core8pipeline6memoryNtB9_10BufferPool20acquire_large_buffer00Bd_
FNDA:0,_RNCNvMs5_NtNtCscx2lCY9pHX3_9lens_core8pipeline6memoryNtB7_10BufferPool20acquire_large_buffer0Bb_
FNDA:4,_RNCNvMs5_NtNtCscx2lCY9pHX3_9lens_core8pipeline6memoryNtB7_10BufferPool20acquire_small_buffer0Bb_
FNDA:0,_RNCNvMs5_NtNtCscx2lCY9pHX3_9lens_core8pipeline6memoryNtB7_10BufferPool21acquire_medium_buffer0Bb_
FNDA:2,_RNCNvMs5_NtNtCscx2lCY9pHX3_9lens_core8pipeline6memoryNtB7_10BufferPool5stats0Bb_
FNDA:4,_RNCNvMs5_NtNtCscx2lCY9pHX3_9lens_core8pipeline6memoryNtB7_10BufferPool7acquire0Bb_
FNDA:2,_RNCNvMs5_NtNtCscx2lCY9pHX3_9lens_core8pipeline6memoryNtB7_10BufferPool7release0Bb_
FNDA:2,_RNCNvMs6_NtNtCscx2lCY9pHX3_9lens_core8pipeline6memoryNtB7_21PipelineMemoryManager10deallocate0Bb_
FNDA:2,_RNCNvMs6_NtNtCscx2lCY9pHX3_9lens_core8pipeline6memoryNtB7_21PipelineMemoryManager2gc0Bb_
FNDA:3,_RNCNvMs6_NtNtCscx2lCY9pHX3_9lens_core8pipeline6memoryNtB7_21PipelineMemoryManager8allocate0Bb_
FNDA:1,_RNvNtNtNtCscx2lCY9pHX3_9lens_core8pipeline6memory5testss_16test_buffer_pool
FNDA:1,_RNvNtNtNtCscx2lCY9pHX3_9lens_core8pipeline6memory5testss_17test_segment_view
FNDA:1,_RNvNtNtNtCscx2lCY9pHX3_9lens_core8pipeline6memory5testss_19test_memory_manager
FNDA:1,_RNvNtNtNtCscx2lCY9pHX3_9lens_core8pipeline6memory5testss_21test_zero_copy_buffer
FNDA:1,_RNvNtNtNtCscx2lCY9pHX3_9lens_core8pipeline6memory5testss_23test_garbage_collection
FNDA:6,_RNvMNtNtCscx2lCY9pHX3_9lens_core8pipeline6memoryNtB2_8BufferId3new
FNDA:2,_RNvMs1_NtNtCscx2lCY9pHX3_9lens_core8pipeline6memoryNtB5_11SegmentView15to_string_lossy
FNDA:2,_RNvMs1_NtNtCscx2lCY9pHX3_9lens_core8pipeline6memoryNtB5_11SegmentView3len
FNDA:1,_RNvMs1_NtNtCscx2lCY9pHX3_9lens_core8pipeline6memoryNtB5_11SegmentView5slice
FNDA:0,_RNvMs5_NtNtCscx2lCY9pHX3_9lens_core8pipeline6memoryNtB5_10BufferPool20acquire_large_buffer
FNDA:4,_RNvMs5_NtNtCscx2lCY9pHX3_9lens_core8pipeline6memoryNtB5_10BufferPool20acquire_small_buffer
FNDA:0,_RNvMs5_NtNtCscx2lCY9pHX3_9lens_core8pipeline6memoryNtB5_10BufferPool21acquire_medium_buffer
FNDA:5,_RNvMs5_NtNtCscx2lCY9pHX3_9lens_core8pipeline6memoryNtB5_10BufferPool3new
FNDA:2,_RNvMs5_NtNtCscx2lCY9pHX3_9lens_core8pipeline6memoryNtB5_10BufferPool5stats
FNDA:4,_RNvMs5_NtNtCscx2lCY9pHX3_9lens_core8pipeline6memoryNtB5_10BufferPool7acquire
FNDA:2,_RNvMs5_NtNtCscx2lCY9pHX3_9lens_core8pipeline6memoryNtB5_10BufferPool7release
FNDA:2,_RNvMs6_NtNtCscx2lCY9pHX3_9lens_core8pipeline6memoryNtB5_21PipelineMemoryManager10deallocate
FNDA:1,_RNvMs6_NtNtCscx2lCY9pHX3_9lens_core8pipeline6memoryNtB5_21PipelineMemoryManager13current_usage
FNDA:2,_RNvMs6_NtNtCscx2lCY9pHX3_9lens_core8pipeline6memoryNtB5_21PipelineMemoryManager2gc
FNDA:4,_RNvMs6_NtNtCscx2lCY9pHX3_9lens_core8pipeline6memoryNtB5_21PipelineMemoryManager3new
FNDA:3,_RNvMs6_NtNtCscx2lCY9pHX3_9lens_core8pipeline6memoryNtB5_21PipelineMemoryManager8allocate
FNDA:1,_RNvMs_NtNtCscx2lCY9pHX3_9lens_core8pipeline6memoryNtB4_14ZeroCopyBuffer10from_bytes
FNDA:2,_RNvMs_NtNtCscx2lCY9pHX3_9lens_core8pipeline6memoryNtB4_14ZeroCopyBuffer11create_view
FNDA:4,_RNvMs_NtNtCscx2lCY9pHX3_9lens_core8pipeline6memoryNtB4_14ZeroCopyBuffer2id
FNDA:5,_RNvMs_NtNtCscx2lCY9pHX3_9lens_core8pipeline6memoryNtB4_14ZeroCopyBuffer3len
FNDA:5,_RNvMs_NtNtCscx2lCY9pHX3_9lens_core8pipeline6memoryNtB4_14ZeroCopyBuffer3new
FNDA:5,_RNvMs_NtNtCscx2lCY9pHX3_9lens_core8pipeline6memoryNtB4_14ZeroCopyBuffer9ref_count
FNDA:5,_RNvXs3_NtNtCscx2lCY9pHX3_9lens_core8pipeline6memoryNtB5_10PoolConfigNtNtCs66KPHxksi63_4core7default7Default7default
FNF:58
FNH:38
DA:32,6
DA:34,6
DA:35,6
DA:40,5
DA:41,5
DA:43,5
DA:44,5
DA:45,5
DA:46,5
DA:47,5
DA:48,5
DA:49,5
DA:52,1
DA:53,1
DA:55,1
DA:56,1
DA:57,1
DA:58,1
DA:59,1
DA:60,1
DA:61,1
DA:64,2
DA:65,2
DA:66,0
DA:67,2
DA:70,2
DA:72,2
DA:73,2
DA:74,2
DA:75,2
DA:76,2
DA:77,2
DA:78,2
DA:79,2
DA:80,2
DA:83,0
DA:84,0
DA:86,0
DA:87,0
DA:88,0
DA:89,0
DA:90,0
DA:91,0
DA:92,0
DA:93,0
DA:94,0
DA:97,5
DA:98,5
DA:99,5
DA:102,0
DA:103,0
DA:104,0
DA:107,5
DA:108,5
DA:109,5
DA:112,4
DA:113,4
DA:114,4
DA:118,6
DA:119,6
DA:120,6
DA:121,6
DA:152,0
DA:153,0
DA:154,0
DA:157,0
DA:158,0
DA:159,0
DA:162,2
DA:163,2
DA:164,2
DA:167,0
DA:168,0
DA:169,0
DA:172,0
DA:173,0
DA:174,0
DA:177,0
DA:178,0
DA:179,0
DA:182,0
DA:183,0
DA:184,0
DA:187,1
DA:188,1
DA:189,0
DA:190,1
DA:193,1
DA:195,1
DA:196,1
DA:197,1
DA:198,1
DA:199,1
DA:200,1
DA:201,1
DA:202,1
DA:203,1
DA:206,2
DA:207,2
DA:208,2
DA:211,0
DA:212,0
DA:213,0
DA:215,0
DA:216,0
DA:217,0
DA:221,3
DA:222,3
DA:223,3
DA:224,0
DA:225,3
DA:226,3
DA:249,5
DA:250,5
DA:251,5
DA:252,5
DA:253,5
DA:254,5
DA:255,5
DA:256,5
DA:257,5
DA:258,5
DA:273,0
DA:274,0
DA:275,0
DA:277,0
DA:279,0
DA:284,5
DA:285,5
DA:286,5
DA:287,5
DA:288,5
DA:289,5
DA:290,5
DA:291,5
DA:292,5
DA:295,4
DA:296,4
DA:297,4
DA:299,4
DA:300,4
DA:301,0
DA:302,0
DA:304,0
DA:307,4
DA:308,1
DA:309,1
DA:310,1
DA:313,3
DA:314,3
DA:317,4
DA:319,4
DA:320,4
DA:321,4
DA:323,4
DA:324,1
DA:325,3
DA:327,4
DA:328,4
DA:330,0
DA:331,0
DA:332,0
DA:334,0
DA:335,0
DA:336,0
DA:338,0
DA:339,0
DA:341,0
DA:342,0
DA:345,0
DA:347,0
DA:348,0
DA:349,0
DA:350,0
DA:352,0
DA:354,0
DA:357,2
DA:359,2
DA:360,0
DA:361,2
DA:363,2
DA:364,2
DA:366,2
DA:367,2
DA:368,2
DA:369,2
DA:370,2
DA:371,0
DA:372,2
DA:373,0
DA:374,0
DA:375,0
DA:376,0
DA:377,0
DA:378,0
DA:379,0
DA:380,0
DA:381,0
DA:383,0
DA:384,0
DA:385,0
DA:386,0
DA:387,0
DA:388,0
DA:389,0
DA:392,2
DA:393,2
DA:396,2
DA:397,2
DA:398,2
DA:399,2
DA:402,0
DA:403,0
DA:404,0
DA:405,0
DA:407,0
DA:408,0
DA:409,0
DA:411,0
DA:412,0
DA:413,0
DA:414,0
DA:416,0
DA:417,0
DA:430,4
DA:431,4
DA:432,4
DA:434,4
DA:435,4
DA:436,4
DA:437,4
DA:438,4
DA:439,4
DA:440,4
DA:443,3
DA:445,3
DA:446,3
DA:447,1
DA:448,1
DA:449,2
DA:451,2
DA:452,2
DA:456,2
DA:457,2
DA:460,2
DA:462,2
DA:463,2
DA:464,3
DA:467,2
DA:468,2
DA:469,2
DA:470,2
DA:473,2
DA:474,2
DA:477,2
DA:479,1
DA:480,1
DA:481,0
DA:482,1
DA:484,2
DA:485,2
DA:486,0
DA:488,2
DA:489,2
DA:492,1
DA:493,1
DA:494,1
DA:497,0
DA:498,0
DA:499,0
DA:502,0
DA:503,0
DA:504,0
DA:507,2
DA:508,2
DA:509,2
DA:512,2
DA:513,2
DA:515,2
DA:516,1
DA:517,1
DA:521,3
DA:522,1
DA:523,1
DA:526,2
DA:527,1
DA:528,1
DA:530,2
DA:531,2
DA:539,1
DA:540,1
DA:541,1
DA:542,1
DA:544,1
DA:545,1
DA:547,1
DA:548,1
DA:549,1
DA:552,1
DA:553,1
DA:554,1
DA:556,1
DA:557,1
DA:558,1
DA:560,1
DA:561,1
DA:562,1
DA:563,1
DA:566,1
DA:567,1
DA:568,1
DA:571,1
DA:572,1
DA:573,1
DA:574,1
DA:577,1
DA:578,1
DA:580,1
DA:581,1
DA:582,1
DA:583,1
DA:586,1
DA:587,1
DA:589,1
DA:590,1
DA:593,1
DA:594,1
DA:596,1
DA:597,1
DA:600,1
DA:601,1
DA:603,1
DA:604,1
DA:607,1
DA:608,1
DA:610,1
DA:613,1
DA:614,1
DA:615,1
BRF:0
BRH:0
LF:357
LH:247
end_of_record
SF:/home/nathan/Projects/lens/src/pipeline/mod.rs
FN:468,_RNCNvMs3_NtCscx2lCY9pHX3_9lens_core8pipelineNtB7_13FusedPipeline11get_metrics0B9_
FN:74,_RNvMNtCscx2lCY9pHX3_9lens_core8pipelineNtB2_15PipelineContext14remaining_time
FN:177,_RNvMs0_NtCscx2lCY9pHX3_9lens_core8pipelineNtB5_13PipelineStage6as_str
FN:468,_RNvMs3_NtCscx2lCY9pHX3_9lens_core8pipelineNtB5_13FusedPipeline11get_metrics
FN:121,_RNvMs_NtCscx2lCY9pHX3_9lens_core8pipelineNtB4_12PipelineData11add_segment
FN:126,_RNvMs_NtCscx2lCY9pHX3_9lens_core8pipelineNtB4_12PipelineData11create_view
FN:344,_RNvYpNtNtCscx2lCY9pHX3_9lens_core8pipeline22PipelineStageProcessor15supports_fusionB7_
FN:349,_RNvYNtNtNtCscx2lCY9pHX3_9lens_core8pipeline8executor15LspRoutingStageNtB6_22PipelineStageProcessor24estimate_processing_timeB8_
FN:349,_RNvYNtNtNtCscx2lCY9pHX3_9lens_core8pipeline8executor16PostProcessStageNtB6_22PipelineStageProcessor24estimate_processing_timeB8_
FN:349,_RNvYNtNtNtCscx2lCY9pHX3_9lens_core8pipeline8executor17ResultFusionStageNtB6_22PipelineStageProcessor24estimate_processing_timeB8_
FN:349,_RNvYNtNtNtCscx2lCY9pHX3_9lens_core8pipeline8executor18QueryAnalysisStageNtB6_22PipelineStageProcessor24estimate_processing_timeB8_
FN:434,_RNCNvMs3_NtCscx2lCY9pHX3_9lens_core8pipelineNtB7_13FusedPipeline14update_metrics0B9_
FN:463,_RNCNvMs3_NtCscx2lCY9pHX3_9lens_core8pipelineNtB7_13FusedPipeline19get_current_metrics0B9_
FN:363,_RNCNvMs3_NtCscx2lCY9pHX3_9lens_core8pipelineNtB7_13FusedPipeline3new0B9_
FN:379,_RNCNvMs3_NtCscx2lCY9pHX3_9lens_core8pipelineNtB7_13FusedPipeline6search0B9_
FN:473,_RNCNvMs3_NtCscx2lCY9pHX3_9lens_core8pipelineNtB7_13FusedPipeline8shutdown0B9_
FN:132,_RNCNvMs_NtCscx2lCY9pHX3_9lens_core8pipelineNtB6_12PipelineData10total_size0B8_
FN:541,_RNCNvNtNtCscx2lCY9pHX3_9lens_core8pipeline5testss_22test_pipeline_creation0B7_
FN:60,_RNvMNtCscx2lCY9pHX3_9lens_core8pipelineNtB2_15PipelineContext14with_file_path
FN:65,_RNvMNtCscx2lCY9pHX3_9lens_core8pipelineNtB2_15PipelineContext16with_max_results
FN:82,_RNvMNtCscx2lCY9pHX3_9lens_core8pipelineNtB2_15PipelineContext19time_budget_percent
FN:78,_RNvMNtCscx2lCY9pHX3_9lens_core8pipelineNtB2_15PipelineContext20is_deadline_exceeded
FN:44,_RNvMNtCscx2lCY9pHX3_9lens_core8pipelineNtB2_15PipelineContext3new
FN:70,_RNvMNtCscx2lCY9pHX3_9lens_core8pipelineNtB2_15PipelineContext7elapsed
FN:189,_RNvMs0_NtCscx2lCY9pHX3_9lens_core8pipelineNtB5_13PipelineStage4next
FN:295,_RNvMs2_NtCscx2lCY9pHX3_9lens_core8pipelineNtB5_13StageTimeouts17calculate_timeout
FN:434,_RNvMs3_NtCscx2lCY9pHX3_9lens_core8pipelineNtB5_13FusedPipeline14update_metrics
FN:463,_RNvMs3_NtCscx2lCY9pHX3_9lens_core8pipelineNtB5_13FusedPipeline19get_current_metrics
FN:363,_RNvMs3_NtCscx2lCY9pHX3_9lens_core8pipelineNtB5_13FusedPipeline3new
FN:379,_RNvMs3_NtCscx2lCY9pHX3_9lens_core8pipelineNtB5_13FusedPipeline6search
FN:473,_RNvMs3_NtCscx2lCY9pHX3_9lens_core8pipelineNtB5_13FusedPipeline8shutdown
FN:131,_RNvMs_NtCscx2lCY9pHX3_9lens_core8pipelineNtB4_12PipelineData10total_size
FN:136,_RNvMs_NtCscx2lCY9pHX3_9lens_core8pipelineNtB4_12PipelineData13advance_stage
FN:111,_RNvMs_NtCscx2lCY9pHX3_9lens_core8pipelineNtB4_12PipelineData3new
FN:273,_RNvXs1_NtCscx2lCY9pHX3_9lens_core8pipelineNtB5_14PipelineConfigNtNtCs66KPHxksi63_4core7default7Default7default
FN:496,_RNvNtNtCscx2lCY9pHX3_9lens_core8pipeline5testss_18test_pipeline_data
FN:508,_RNvNtNtCscx2lCY9pHX3_9lens_core8pipeline5testss_19test_stage_timeouts
FN:485,_RNvNtNtCscx2lCY9pHX3_9lens_core8pipeline5testss_21test_pipeline_context
FN:541,_RNvNtNtCscx2lCY9pHX3_9lens_core8pipeline5testss_22test_pipeline_creation
FN:522,_RNvNtNtCscx2lCY9pHX3_9lens_core8pipeline5testss_22test_stage_progression
FNDA:0,_RNCNvMs3_NtCscx2lCY9pHX3_9lens_core8pipelineNtB7_13FusedPipeline11get_metrics0B9_
FNDA:0,_RNvMNtCscx2lCY9pHX3_9lens_core8pipelineNtB2_15PipelineContext14remaining_time
FNDA:0,_RNvMs0_NtCscx2lCY9pHX3_9lens_core8pipelineNtB5_13PipelineStage6as_str
FNDA:0,_RNvMs3_NtCscx2lCY9pHX3_9lens_core8pipelineNtB5_13FusedPipeline11get_metrics
FNDA:0,_RNvMs_NtCscx2lCY9pHX3_9lens_core8pipelineNtB4_12PipelineData11add_segment
FNDA:0,_RNvMs_NtCscx2lCY9pHX3_9lens_core8pipelineNtB4_12PipelineData11create_view
FNDA:0,_RNvYpNtNtCscx2lCY9pHX3_9lens_core8pipeline22PipelineStageProcessor15supports_fusionB7_
FNDA:0,_RNvYNtNtNtCscx2lCY9pHX3_9lens_core8pipeline8executor15LspRoutingStageNtB6_22PipelineStageProcessor24estimate_processing_timeB8_
FNDA:0,_RNvYNtNtNtCscx2lCY9pHX3_9lens_core8pipeline8executor16PostProcessStageNtB6_22PipelineStageProcessor24estimate_processing_timeB8_
FNDA:0,_RNvYNtNtNtCscx2lCY9pHX3_9lens_core8pipeline8executor17ResultFusionStageNtB6_22PipelineStageProcessor24estimate_processing_timeB8_
FNDA:0,_RNvYNtNtNtCscx2lCY9pHX3_9lens_core8pipeline8executor18QueryAnalysisStageNtB6_22PipelineStageProcessor24estimate_processing_timeB8_
FNDA:0,_RNCNvMs3_NtCscx2lCY9pHX3_9lens_core8pipelineNtB7_13FusedPipeline14update_metrics0B9_
FNDA:0,_RNCNvMs3_NtCscx2lCY9pHX3_9lens_core8pipelineNtB7_13FusedPipeline19get_current_metrics0B9_
FNDA:1,_RNCNvMs3_NtCscx2lCY9pHX3_9lens_core8pipelineNtB7_13FusedPipeline3new0B9_
FNDA:0,_RNCNvMs3_NtCscx2lCY9pHX3_9lens_core8pipelineNtB7_13FusedPipeline6search0B9_
FNDA:0,_RNCNvMs3_NtCscx2lCY9pHX3_9lens_core8pipelineNtB7_13FusedPipeline8shutdown0B9_
FNDA:0,_RNCNvMs_NtCscx2lCY9pHX3_9lens_core8pipelineNtB6_12PipelineData10total_size0B8_
FNDA:1,_RNCNvNtNtCscx2lCY9pHX3_9lens_core8pipeline5testss_22test_pipeline_creation0B7_
FNDA:0,_RNvMNtCscx2lCY9pHX3_9lens_core8pipelineNtB2_15PipelineContext14with_file_path
FNDA:0,_RNvMNtCscx2lCY9pHX3_9lens_core8pipelineNtB2_15PipelineContext16with_max_results
FNDA:0,_RNvMNtCscx2lCY9pHX3_9lens_core8pipelineNtB2_15PipelineContext19time_budget_percent
FNDA:1,_RNvMNtCscx2lCY9pHX3_9lens_core8pipelineNtB2_15PipelineContext20is_deadline_exceeded
FNDA:1,_RNvMNtCscx2lCY9pHX3_9lens_core8pipelineNtB2_15PipelineContext3new
FNDA:0,_RNvMNtCscx2lCY9pHX3_9lens_core8pipelineNtB2_15PipelineContext7elapsed
FNDA:8,_RNvMs0_NtCscx2lCY9pHX3_9lens_core8pipelineNtB5_13PipelineStage4next
